Component: ARM Compiler 5.06 update 6 (build 750) Tool: armlink [4d35ed]

==============================================================================

Section Cross References

    main.o(i.__sti___8_main_cpp_main) refers to ios.o(i._ZNSt8ios_base4InitC1Ev) for std::ios_base::Init::Init()
    main.o(i.__sti___8_main_cpp_main) refers to aeabi_atexit.o(.text) for __aeabi_atexit
    main.o(i.__sti___8_main_cpp_main) refers to cxa_guard_acquire.o(i.__cxa_guard_acquire) for __cxa_guard_acquire
    main.o(i.__sti___8_main_cpp_main) refers to main.o(i._ZNSt6locale2idC1Ev) for std::locale::id::id()
    main.o(i.__sti___8_main_cpp_main) refers to main.o(.data) for __rw::__rw_stream_initializer
    main.o(i.__sti___8_main_cpp_main) refers to ios.o(i._ZNSt8ios_base4InitD1Ev) for std::ios_base::Init::~Init()
    main.o(i.__sti___8_main_cpp_main) refers to main.o(.data__ZNSt8numpunctIcE2idE) for guard variable for std::numpunct<char>::id
    main.o(i.__sti___8_main_cpp_main) refers to main.o(.data__ZNSt7num_getIcSt19istreambuf_iteratorIcSt11char_traitsIcEEE2idE) for guard variable for std::num_get<char, std::istreambuf_iterator<char, std::char_traits<char>>>::id
    main.o(i.__sti___8_main_cpp_main) refers to main.o(.data__ZNSt7num_putIcSt19ostreambuf_iteratorIcSt11char_traitsIcEEE2idE) for guard variable for std::num_put<char, std::ostreambuf_iterator<char, std::char_traits<char>>>::id
    main.o(i.main) refers to uartbsp.o(i._Z11USART6_Initv) for USART6_Init()
    main.o(i.main) refers to main.o(t._ZStlsISt11char_traitsIcEERSt13basic_ostreamIcT_ES5_PKc) for std::basic_ostream<char, T1>& std::operator <<<std::char_traits<char>>(std::basic_ostream<char, T1>&, const char*)
    main.o(i.main) refers to main.o(t._ZNSirsERi) for std::basic_istream<char, std::char_traits<char>>::operator >>(int&)
    main.o(i.main) refers to new.o(i._Znwj) for operator new(unsigned)
    main.o(i.main) refers to main.o(t._ZN4__rw11__rw_insertIcSt11char_traitsIcEiEERSt13basic_ostreamIT_T0_ES7_T1_) for std::basic_ostream<T1, T2>& __rw::__rw_insert<char, std::char_traits<char>, int>(std::basic_ostream<T1, T2>&, T3)
    main.o(i.main) refers to array_del.o(i._ZdaPv) for operator delete[] (void*)
    main.o(i.main) refers to ios.o(.data) for std::cout
    main.o(i.main) refers to ios.o(.data) for std::cin
    main.o(.ARM.exidx) refers to main.o(i.main) for i.main
    main.o(.ARM.exidx) refers to main.o(i.__sti___8_main_cpp_main) for i.__sti___8_main_cpp_main
    main.o(.init_array) refers to main.o(i.__sti___8_main_cpp_main) for __sti___8_main_cpp_main
    main.o(.init_array) refers to init_aeabi.o(.text) for __cpp_initialize__aeabi_
    uartbsp.o(i.fgetc) refers to uartbsp.o(i._Z11USART6_readv) for USART6_read()
    uartbsp.o(i.fgetc) refers to uartbsp.o(i._Z12USART6_writei) for USART6_write(int)
    uartbsp.o(i.fputc) refers to uartbsp.o(i._Z12USART6_writei) for USART6_write(int)
    uartbsp.o(.ARM.exidx) refers to uartbsp.o(i._Z11USART2_Initv) for i._Z11USART2_Initv
    uartbsp.o(.ARM.exidx) refers to uartbsp.o(i._Z11USART6_Initv) for i._Z11USART6_Initv
    uartbsp.o(.ARM.exidx) refers to uartbsp.o(i._Z12USART2_writei) for i._Z12USART2_writei
    uartbsp.o(.ARM.exidx) refers to uartbsp.o(i._Z11USART2_readv) for i._Z11USART2_readv
    uartbsp.o(.ARM.exidx) refers to uartbsp.o(i._Z12USART6_writei) for i._Z12USART6_writei
    uartbsp.o(.ARM.exidx) refers to uartbsp.o(i._Z11USART6_readv) for i._Z11USART6_readv
    uartbsp.o(.ARM.exidx) refers to uartbsp.o(i.fgetc) for i.fgetc
    uartbsp.o(.ARM.exidx) refers to uartbsp.o(i.fputc) for i.fputc
    uartbsp.o(.ARM.exidx) refers to uartbsp.o(i.ferror) for i.ferror
    uartbsp.o(.ARM.exidx) refers to uartbsp.o(i.ftell) for i.ftell
    uartbsp.o(.ARM.exidx) refers to uartbsp.o(i.fclose) for i.fclose
    uartbsp.o(.ARM.exidx) refers to uartbsp.o(i.fseek) for i.fseek
    uartbsp.o(.ARM.exidx) refers to uartbsp.o(i.fflush) for i.fflush
    startup_stm32f407xx.o(STACK) refers (Special) to heapauxi.o(.text) for __use_two_region_memory
    startup_stm32f407xx.o(HEAP) refers (Special) to heapauxi.o(.text) for __use_two_region_memory
    startup_stm32f407xx.o(RESET) refers (Special) to heapauxi.o(.text) for __use_two_region_memory
    startup_stm32f407xx.o(RESET) refers to startup_stm32f407xx.o(STACK) for __initial_sp
    startup_stm32f407xx.o(RESET) refers to startup_stm32f407xx.o(.text) for Reset_Handler
    startup_stm32f407xx.o(.text) refers (Special) to heapauxi.o(.text) for __use_two_region_memory
    startup_stm32f407xx.o(.text) refers to system_stm32f4xx.o(i.SystemInit) for SystemInit
    startup_stm32f407xx.o(.text) refers to __main.o(!!!main) for __main
    startup_stm32f407xx.o(.text) refers to startup_stm32f407xx.o(HEAP) for Heap_Mem
    startup_stm32f407xx.o(.text) refers to startup_stm32f407xx.o(STACK) for Stack_Mem
    system_stm32f4xx.o(i.SystemCoreClockUpdate) refers to system_stm32f4xx.o(.data) for SystemCoreClock
    system_stm32f4xx.o(i.SystemCoreClockUpdate) refers to system_stm32f4xx.o(.constdata) for AHBPrescTable
    atexit_aeabi.o(.text) refers to aeabi_atexit.o(.text) for __aeabi_atexit
    atexit_aeabi.o(.ARM.exidx) refers to atexit_aeabi.o(.text) for .text
    aeabi_atexit.o(.text) refers (Special) to cxa_finalize.o(.text) for __cxa_finalize
    aeabi_atexit.o(.text) refers to h1_alloc.o(.text) for malloc
    aeabi_atexit.o(.text) refers to rt_ddtor_pointer_addr_intlibspace.o(.text) for __rt_ddtor_pointer_addr
    aeabi_atexit.o(.ARM.exidx) refers (Special) to cxa_finalize.o(.text) for __cxa_finalize
    aeabi_atexit.o(.ARM.exidx) refers to aeabi_atexit.o(.text) for .text
    rt_memcpy_v6.o(.text) refers to rt_memcpy_w.o(.text) for __aeabi_memcpy4
    rt_memmove_v6.o(.text) refers to rt_memcpy_v6.o(.text) for __aeabi_memcpy
    rt_memmove_v6.o(.text) refers to rt_memmove_w.o(.text) for __memmove_aligned
    __main.o(!!!main) refers to __rtentry.o(.ARM.Collect$$rtentry$$00000000) for __rt_entry
    init_aeabi.o(.emb_text) refers (Special) to libinit2.o(.ARM.Collect$$libinit$$00000031) for __rt_lib_init_cpp_2
    init_aeabi.o(.init_array) refers (Special) to libinit2.o(.ARM.Collect$$libinit$$00000031) for __rt_lib_init_cpp_2
    init_aeabi.o(.init_array) refers to init_aeabi.o(.text) for __cpp_initialize__aeabi_
    init_aeabi.o(.dummy_text) refers (Special) to libinit2.o(.ARM.Collect$$libinit$$00000031) for __rt_lib_init_cpp_2
    init_aeabi.o(.text) refers (Special) to libinit2.o(.ARM.Collect$$libinit$$00000031) for __rt_lib_init_cpp_2
    init_aeabi.o(.ARM.exidx) refers (Special) to libinit2.o(.ARM.Collect$$libinit$$00000031) for __rt_lib_init_cpp_2
    init_aeabi.o(.ARM.exidx) refers to init_aeabi.o(.text) for .text
    char.o(i._ZNKSt14collate_bynameIcE10do_compareEPKcS2_S2_S2_) refers to locale.o(i._ZN4__rw21__rw_use_c_lib_localeC1EPKci) for __rw::__rw_use_c_lib_locale::__rw_use_c_lib_locale(const char*, int)
    char.o(i._ZNKSt14collate_bynameIcE10do_compareEPKcS2_S2_S2_) refers to array_new.o(i._Znaj) for operator new[] (unsigned)
    char.o(i._ZNKSt14collate_bynameIcE10do_compareEPKcS2_S2_S2_) refers to rt_memcpy_v6.o(.text) for __aeabi_memcpy
    char.o(i._ZNKSt14collate_bynameIcE10do_compareEPKcS2_S2_S2_) refers to strcoll.o(.text) for strcoll
    char.o(i._ZNKSt14collate_bynameIcE10do_compareEPKcS2_S2_S2_) refers to array_del.o(i._ZdaPv) for operator delete[] (void*)
    char.o(i._ZNKSt14collate_bynameIcE10do_compareEPKcS2_S2_S2_) refers to char.o(i._ZN4__rw21__rw_use_c_lib_localeD1Ev) for __rw::__rw_use_c_lib_locale::~__rw_use_c_lib_locale()
    char.o(i._ZNKSt14collate_bynameIcE10do_compareEPKcS2_S2_S2_.clean) refers to char.o(i._ZN4__rw21__rw_use_c_lib_localeD1Ev) for __rw::__rw_use_c_lib_locale::~__rw_use_c_lib_locale()
    char.o(i._ZNKSt14collate_bynameIcE10do_compareEPKcS2_S2_S2_.clean) refers to arm_exceptions_cleanup.o(.emb_text) for __cxa_end_cleanup
    char.o(i._ZNKSt14collate_bynameIcE12do_transformEPKcS2_) refers to locale.o(i._ZN4__rw21__rw_use_c_lib_localeC1EPKci) for __rw::__rw_use_c_lib_locale::__rw_use_c_lib_locale(const char*, int)
    char.o(i._ZNKSt14collate_bynameIcE12do_transformEPKcS2_) refers to array_new.o(i._Znaj) for operator new[] (unsigned)
    char.o(i._ZNKSt14collate_bynameIcE12do_transformEPKcS2_) refers to rt_memcpy_v6.o(.text) for __aeabi_memcpy
    char.o(i._ZNKSt14collate_bynameIcE12do_transformEPKcS2_) refers to strxfrm.o(.text) for strxfrm
    char.o(i._ZNKSt14collate_bynameIcE12do_transformEPKcS2_) refers to char.o(t._ZNSsC1EPKcjRKSaIcE) for std::basic_string<char, std::char_traits<char>, std::allocator<char>>::basic_string(const char*, unsigned, const std::allocator<char>&)
    char.o(i._ZNKSt14collate_bynameIcE12do_transformEPKcS2_) refers to char.o(t._ZNSs5beginEv) for std::basic_string<char, std::char_traits<char>, std::allocator<char>>::begin()
    char.o(i._ZNKSt14collate_bynameIcE12do_transformEPKcS2_) refers to array_del.o(i._ZdaPv) for operator delete[] (void*)
    char.o(i._ZNKSt14collate_bynameIcE12do_transformEPKcS2_) refers to char.o(i._ZN4__rw21__rw_use_c_lib_localeD1Ev) for __rw::__rw_use_c_lib_locale::~__rw_use_c_lib_locale()
    char.o(i._ZNKSt14collate_bynameIcE12do_transformEPKcS2_.clean) refers to char.o(t._ZNSsD1Ev) for std::basic_string<char, std::char_traits<char>, std::allocator<char>>::~basic_string()
    char.o(i._ZNKSt14collate_bynameIcE12do_transformEPKcS2_.clean) refers to char.o(i._ZN4__rw21__rw_use_c_lib_localeD1Ev) for __rw::__rw_use_c_lib_locale::~__rw_use_c_lib_locale()
    char.o(i._ZNKSt14collate_bynameIcE12do_transformEPKcS2_.clean) refers to arm_exceptions_cleanup.o(.emb_text) for __cxa_end_cleanup
    char.o(i._ZNSt12ctype_bynameIcE17_C_get_mask_tableEPKc) refers to strcmpv7m.o(.text) for strcmp
    char.o(i._ZNSt12ctype_bynameIcE17_C_get_mask_tableEPKc) refers to array_new.o(i._Znaj) for operator new[] (unsigned)
    char.o(i._ZNSt12ctype_bynameIcE17_C_get_mask_tableEPKc) refers to locale.o(i._ZN4__rw21__rw_use_c_lib_localeC1EPKci) for __rw::__rw_use_c_lib_locale::__rw_use_c_lib_locale(const char*, int)
    char.o(i._ZNSt12ctype_bynameIcE17_C_get_mask_tableEPKc) refers to rt_ctype_table.o(.text) for __rt_ctype_table
    char.o(i._ZNSt12ctype_bynameIcE17_C_get_mask_tableEPKc) refers to char.o(i._ZN4__rw21__rw_use_c_lib_localeD1Ev) for __rw::__rw_use_c_lib_locale::~__rw_use_c_lib_locale()
    char.o(i._ZNSt12ctype_bynameIcE17_C_get_mask_tableEPKc) refers to char.o(.constdata) for .constdata
    char.o(i._ZNSt12ctype_bynameIcE17_C_get_mask_tableEPKc.clean) refers to arm_exceptions_cleanup.o(.emb_text) for __cxa_end_cleanup
    char.o(i._ZNSt12ctype_bynameIcEC1EPKcj) refers to char.o(i._ZNSt12ctype_bynameIcE17_C_get_mask_tableEPKc) for std::ctype_byname<char>::_C_get_mask_table(const char*)
    char.o(i._ZNSt12ctype_bynameIcEC1EPKcj) refers to char.o(i._ZNSt5ctypeIcEC1EPKNSt10ctype_base4maskEbj) for std::ctype<char>::ctype(const std::ctype_base::mask*, bool, unsigned)
    char.o(i._ZNSt12ctype_bynameIcEC1EPKcj) refers to locale.o(i._ZN4__rw21__rw_use_c_lib_localeC1EPKci) for __rw::__rw_use_c_lib_locale::__rw_use_c_lib_locale(const char*, int)
    char.o(i._ZNSt12ctype_bynameIcEC1EPKcj) refers to char.o(i._ZNKSt5ctypeIcE2isENSt10ctype_base4maskEc) for std::ctype<char>::is(std::ctype_base::mask, char) const
    char.o(i._ZNSt12ctype_bynameIcEC1EPKcj) refers to char.o(i._ZN4__rw21__rw_use_c_lib_localeD1Ev) for __rw::__rw_use_c_lib_locale::~__rw_use_c_lib_locale()
    char.o(i._ZNSt12ctype_bynameIcEC1EPKcj) refers to char.o(.constdata__ZTVSt12ctype_bynameIcE) for vtable for std::ctype_byname<char>
    char.o(i._ZNSt12ctype_bynameIcEC1EPKcj) refers to char.o(.constdata) for .constdata
    char.o(i._ZNSt12ctype_bynameIcEC1EPKcj.clean) refers to char.o(i._ZN4__rw21__rw_use_c_lib_localeD1Ev) for __rw::__rw_use_c_lib_locale::~__rw_use_c_lib_locale()
    char.o(i._ZNSt12ctype_bynameIcEC1EPKcj.clean) refers to char.o(i._ZNSt5ctypeIcED1Ev) for std::ctype<char>::~ctype()
    char.o(i._ZNSt12ctype_bynameIcEC1EPKcj.clean) refers to arm_exceptions_cleanup.o(.emb_text) for __cxa_end_cleanup
    char.o(i._ZNSt5ctypeIcE12_C_initfacetERKSt6locale) refers to locale.o(i._ZNKSt6locale4nameEv) for std::locale::name() const
    char.o(i._ZNSt5ctypeIcE12_C_initfacetERKSt6locale) refers to locale.o(i._ZN4__rw21__rw_use_c_lib_localeC1EPKci) for __rw::__rw_use_c_lib_locale::__rw_use_c_lib_locale(const char*, int)
    char.o(i._ZNSt5ctypeIcE12_C_initfacetERKSt6locale) refers to char.o(t._ZNSsD1Ev) for std::basic_string<char, std::char_traits<char>, std::allocator<char>>::~basic_string()
    char.o(i._ZNSt5ctypeIcE12_C_initfacetERKSt6locale) refers to char.o(i._ZNKSt5ctypeIcE2isENSt10ctype_base4maskEc) for std::ctype<char>::is(std::ctype_base::mask, char) const
    char.o(i._ZNSt5ctypeIcE12_C_initfacetERKSt6locale) refers to char.o(i._ZN4__rw21__rw_use_c_lib_localeD1Ev) for __rw::__rw_use_c_lib_locale::~__rw_use_c_lib_locale()
    char.o(i._ZNSt5ctypeIcE12_C_initfacetERKSt6locale.clean) refers to char.o(i._ZN4__rw21__rw_use_c_lib_localeD1Ev) for __rw::__rw_use_c_lib_locale::~__rw_use_c_lib_locale()
    char.o(i._ZNSt5ctypeIcE12_C_initfacetERKSt6locale.clean) refers to arm_exceptions_cleanup.o(.emb_text) for __cxa_end_cleanup
    char.o(i._ZNSt5ctypeIcE12_C_initfacetERKSt6locale.clean) refers to char.o(t._ZNSsD1Ev) for std::basic_string<char, std::char_traits<char>, std::allocator<char>>::~basic_string()
    char.o(i._ZNSt5ctypeIcEC1EPKNSt10ctype_base4maskEbj) refers to char.o(i._ZNKSt5ctypeIcE2isENSt10ctype_base4maskEc) for std::ctype<char>::is(std::ctype_base::mask, char) const
    char.o(i._ZNSt5ctypeIcEC1EPKNSt10ctype_base4maskEbj) refers to array_new.o(i._Znaj) for operator new[] (unsigned)
    char.o(i._ZNSt5ctypeIcEC1EPKNSt10ctype_base4maskEbj) refers to char.o(.constdata__ZTVSt5ctypeIcE) for vtable for std::ctype<char>
    char.o(i._ZNSt5ctypeIcEC1EPKNSt10ctype_base4maskEbj) refers to char.o(.constdata) for .constdata
    char.o(i._ZNSt5ctypeIcEC1EPKNSt10ctype_base4maskEbj.clean) refers to arm_exceptions_cleanup.o(.emb_text) for __cxa_end_cleanup
    char.o(i.__sti___8_char_cpp_a3dc957a) refers to char.o(.data) for .data
    char.o(.ARM.exidx) refers to char.o(i._ZNSt5ctypeIcE12_C_initfacetERKSt6locale) for i._ZNSt5ctypeIcE12_C_initfacetERKSt6locale
    char.o(.ARM.exidx) refers to unwind_pr0.o(.text) for __aeabi_unwind_cpp_pr0
    char.o(.ARM.exidx) refers to char.o(.ARM.extab) for .extab._ZNSt5ctypeIcE12_C_initfacetERKSt6locale
    char.o(.ARM.exidx) refers to char.o(i._ZNSt5ctypeIcE12_C_initfacetERKSt6locale.clean) for i._ZNSt5ctypeIcE12_C_initfacetERKSt6locale.clean
    char.o(.ARM.exidx) refers to char.o(i._ZNSt5ctypeIcEC1EPKNSt10ctype_base4maskEbj) for i._ZNSt5ctypeIcEC1EPKNSt10ctype_base4maskEbj
    char.o(.ARM.exidx) refers to unwind_pr0.o(.text) for __aeabi_unwind_cpp_pr0
    char.o(.ARM.exidx) refers to char.o(.ARM.extab) for .extab._ZNSt5ctypeIcEC1EPKNSt10ctype_base4maskEbj
    char.o(.ARM.exidx) refers to char.o(i._ZNSt5ctypeIcEC1EPKNSt10ctype_base4maskEbj.clean) for i._ZNSt5ctypeIcEC1EPKNSt10ctype_base4maskEbj.clean
    char.o(.ARM.exidx) refers to char.o(i._ZNSt12ctype_bynameIcE17_C_get_mask_tableEPKc) for i._ZNSt12ctype_bynameIcE17_C_get_mask_tableEPKc
    char.o(.ARM.exidx) refers to unwind_pr0.o(.text) for __aeabi_unwind_cpp_pr0
    char.o(.ARM.exidx) refers to char.o(i._ZNSt12ctype_bynameIcE17_C_get_mask_tableEPKc.clean) for i._ZNSt12ctype_bynameIcE17_C_get_mask_tableEPKc.clean
    char.o(.ARM.exidx) refers to char.o(i._ZNSt12ctype_bynameIcEC1EPKcj) for i._ZNSt12ctype_bynameIcEC1EPKcj
    char.o(.ARM.exidx) refers to unwind_pr0.o(.text) for __aeabi_unwind_cpp_pr0
    char.o(.ARM.exidx) refers to char.o(.ARM.extab) for .extab._ZNSt12ctype_bynameIcEC1EPKcj
    char.o(.ARM.exidx) refers to char.o(i._ZNSt12ctype_bynameIcEC1EPKcj.clean) for i._ZNSt12ctype_bynameIcEC1EPKcj.clean
    char.o(.ARM.exidx) refers to char.o(i._ZNKSt14collate_bynameIcE10do_compareEPKcS2_S2_S2_) for i._ZNKSt14collate_bynameIcE10do_compareEPKcS2_S2_S2_
    char.o(.ARM.exidx) refers to unwind_pr0.o(.text) for __aeabi_unwind_cpp_pr0
    char.o(.ARM.exidx) refers to char.o(.ARM.extab) for .extab._ZNKSt14collate_bynameIcE10do_compareEPKcS2_S2_S2_
    char.o(.ARM.exidx) refers to char.o(i._ZNKSt14collate_bynameIcE10do_compareEPKcS2_S2_S2_.clean) for i._ZNKSt14collate_bynameIcE10do_compareEPKcS2_S2_S2_.clean
    char.o(.ARM.exidx) refers to char.o(i._ZNKSt14collate_bynameIcE12do_transformEPKcS2_) for i._ZNKSt14collate_bynameIcE12do_transformEPKcS2_
    char.o(.ARM.exidx) refers to unwind_pr0.o(.text) for __aeabi_unwind_cpp_pr0
    char.o(.ARM.exidx) refers to char.o(.ARM.extab) for .extab._ZNKSt14collate_bynameIcE12do_transformEPKcS2_
    char.o(.ARM.exidx) refers to char.o(i._ZNKSt14collate_bynameIcE12do_transformEPKcS2_.clean) for i._ZNKSt14collate_bynameIcE12do_transformEPKcS2_.clean
    char.o(.ARM.exidx) refers to char.o(i.__sti___8_char_cpp_a3dc957a) for i.__sti___8_char_cpp_a3dc957a
    char.o(.ARM.extab) refers to char.o(i._ZNSt5ctypeIcE12_C_initfacetERKSt6locale.clean) for i._ZNSt5ctypeIcE12_C_initfacetERKSt6locale.clean
    char.o(.ARM.extab) refers to char.o(i._ZNSt5ctypeIcEC1EPKNSt10ctype_base4maskEbj.clean) for i._ZNSt5ctypeIcEC1EPKNSt10ctype_base4maskEbj.clean
    char.o(.ARM.extab) refers to char.o(i._ZNSt12ctype_bynameIcEC1EPKcj.clean) for i._ZNSt12ctype_bynameIcEC1EPKcj.clean
    char.o(.ARM.extab) refers to char.o(i._ZNKSt14collate_bynameIcE10do_compareEPKcS2_S2_S2_.clean) for i._ZNKSt14collate_bynameIcE10do_compareEPKcS2_S2_S2_.clean
    char.o(.ARM.extab) refers to char.o(i._ZNKSt14collate_bynameIcE12do_transformEPKcS2_.clean) for i._ZNKSt14collate_bynameIcE12do_transformEPKcS2_.clean
    char.o(.init_array) refers to char.o(i.__sti___8_char_cpp_a3dc957a) for __sti___8_char_cpp_a3dc957a
    char.o(.init_array) refers to init_aeabi.o(.text) for __cpp_initialize__aeabi_
    ios.o(i._ZNSt8ios_base10_C_copyfmtERKS_) refers to array_new.o(i._Znaj) for operator new[] (unsigned)
    ios.o(i._ZNSt8ios_base10_C_copyfmtERKS_) refers to rt_memcpy_w.o(.text) for __aeabi_memcpy4
    ios.o(i._ZNSt8ios_base10_C_copyfmtERKS_) refers to ios.o(i._ZNSt8ios_base13_C_fire_eventENS_5eventEb) for std::ios_base::_C_fire_event(std::ios_base::event, bool)
    ios.o(i._ZNSt8ios_base10_C_copyfmtERKS_) refers to array_del.o(i._ZdaPv) for operator delete[] (void*)
    ios.o(i._ZNSt8ios_base10_C_copyfmtERKS_) refers to arm_rethrow_noexceptions.o(.text) for __cxa_rethrow
    ios.o(i._ZNSt8ios_base10_C_copyfmtERKS_.clean) refers to arm_exceptions_cleanup.o(.emb_text) for __cxa_end_cleanup
    ios.o(i._ZNSt8ios_base13_C_fire_eventENS_5eventEb) refers to ios.o(i._ZN4__rw27__rw_reallocate_temp_bufferEPvj) for __rw::__rw_reallocate_temp_buffer(void*, unsigned)
    ios.o(i._ZNSt8ios_base13_C_fire_eventENS_5eventEb) refers to rt_memcpy_w.o(.text) for __aeabi_memcpy4
    ios.o(i._ZNSt8ios_base13_C_fire_eventENS_5eventEb) refers to ios.o(i._ZNSt8ios_base15_C_unsafe_clearEii) for std::ios_base::_C_unsafe_clear(int, int)
    ios.o(i._ZNSt8ios_base13_C_fire_eventENS_5eventEb) refers to ios.o(t._ZSt23return_temporary_bufferINSt8ios_base11_C_event_cbEEvPT_) for void std::return_temporary_buffer<std::ios_base::_C_event_cb>(T1*)
    ios.o(i._ZNSt8ios_base13_C_fire_eventENS_5eventEb) refers to arm_rethrow_noexceptions.o(.text) for __cxa_rethrow
    ios.o(i._ZNSt8ios_base13_C_fire_eventENS_5eventEb.clean) refers to arm_exceptions_cleanup.o(.emb_text) for __cxa_end_cleanup
    ios.o(i._ZNSt8ios_base15_C_unsafe_clearEii) refers to rwstdexcept.o(i._ZN4__rw10__rw_throwEiz) for __rw::__rw_throw(int, ...)
    ios.o(i._ZNSt8ios_base15_C_unsafe_clearEii) refers to ios.o(.bss) for .bss
    ios.o(i._ZNSt8ios_base15_C_unsafe_clearEii) refers to ios.o(.constdata) for .constdata
    ios.o(i._ZNSt8ios_base17register_callbackEPFvNS_5eventERS_iEi) refers to ios.o(t._ZN4__rw17__rw_resize_arrayINSt8ios_base11_C_event_cbEjEEPT_S4_RT0_i) for T1* __rw::__rw_resize_array<std::ios_base::_C_event_cb, unsigned>(T1*, T2&, int)
    ios.o(i._ZNSt8ios_base17register_callbackEPFvNS_5eventERS_iEi) refers to ios.o(i._ZNSt8ios_base15_C_unsafe_clearEii) for std::ios_base::_C_unsafe_clear(int, int)
    ios.o(i._ZNSt8ios_base4InitC1Ev) refers to ios.o(t._ZNSt13basic_filebufIcSt11char_traitsIcEEC1EPSt6__FILEPcl) for std::basic_filebuf<char, std::char_traits<char>>::basic_filebuf(std::__FILE*, char*, long)
    ios.o(i._ZNSt8ios_base4InitC1Ev) refers to ios.o(t._ZNSt9basic_iosIcSt11char_traitsIcEEC1Ev) for std::basic_ios<char, std::char_traits<char>>::basic_ios()
    ios.o(i._ZNSt8ios_base4InitC1Ev) refers to ios.o(t._ZNSt9basic_iosIcSt11char_traitsIcEE4initEPSt15basic_streambufIcS1_E) for std::basic_ios<char, std::char_traits<char>>::init(std::basic_streambuf<char, std::char_traits<char>>*)
    ios.o(i._ZNSt8ios_base4InitC1Ev) refers to ios.o(t._ZNSoC1EPSt15basic_streambufIcSt11char_traitsIcEE) for std::basic_ostream<char, std::char_traits<char>>::basic_ostream(std::basic_streambuf<char, std::char_traits<char>>*)
    ios.o(i._ZNSt8ios_base4InitC1Ev) refers to ios.o(t._ZNSt13basic_filebufIwSt11char_traitsIwEEC1EPSt6__FILEPwl) for std::basic_filebuf<wchar_t, std::char_traits<wchar_t>>::basic_filebuf(std::__FILE*, wchar_t*, long)
    ios.o(i._ZNSt8ios_base4InitC1Ev) refers to ios.o(t._ZNSt9basic_iosIwSt11char_traitsIwEEC1Ev) for std::basic_ios<wchar_t, std::char_traits<wchar_t>>::basic_ios()
    ios.o(i._ZNSt8ios_base4InitC1Ev) refers to ios.o(t._ZNSt9basic_iosIwSt11char_traitsIwEE4initEPSt15basic_streambufIwS1_E) for std::basic_ios<wchar_t, std::char_traits<wchar_t>>::init(std::basic_streambuf<wchar_t, std::char_traits<wchar_t>>*)
    ios.o(i._ZNSt8ios_base4InitC1Ev) refers to ios.o(t._ZNSt13basic_ostreamIwSt11char_traitsIwEEC1EPSt15basic_streambufIwS1_E) for std::basic_ostream<wchar_t, std::char_traits<wchar_t>>::basic_ostream(std::basic_streambuf<wchar_t, std::char_traits<wchar_t>>*)
    ios.o(i._ZNSt8ios_base4InitC1Ev) refers to ios.o(.data) for .data
    ios.o(i._ZNSt8ios_base4InitC1Ev) refers to ios.o(.bss) for .bss
    ios.o(i._ZNSt8ios_base4InitC1Ev) refers to uartbsp.o(.data) for __stdin
    ios.o(i._ZNSt8ios_base4InitC1Ev) refers to ios.o(.constdata__ZTVSi) for VTT for std::basic_istream<char, std::char_traits<char>>
    ios.o(i._ZNSt8ios_base4InitC1Ev) refers to ios.o(.constdata__ZTVSt13basic_istreamIwSt11char_traitsIwEE) for VTT for std::basic_istream<wchar_t, std::char_traits<wchar_t>>
    ios.o(i._ZNSt8ios_base4InitC1Ev.clean) refers to ios.o(i._ZNSt9basic_iosIcSt11char_traitsIcEED1Ev) for std::basic_ios<char, std::char_traits<char>>::~basic_ios()
    ios.o(i._ZNSt8ios_base4InitC1Ev.clean) refers to ios.o(i._ZNSt9basic_iosIwSt11char_traitsIwEED1Ev) for std::basic_ios<wchar_t, std::char_traits<wchar_t>>::~basic_ios()
    ios.o(i._ZNSt8ios_base4InitC1Ev.clean) refers to arm_exceptions_cleanup.o(.emb_text) for __cxa_end_cleanup
    ios.o(i._ZNSt8ios_base4InitD1Ev) refers to ios.o(t._ZNSt15basic_streambufIcSt11char_traitsIcEE9pubsetbufEPcl) for std::basic_streambuf<char, std::char_traits<char>>::pubsetbuf(char*, long)
    ios.o(i._ZNSt8ios_base4InitD1Ev) refers to ios.o(t._ZNSt15basic_streambufIwSt11char_traitsIwEE9pubsetbufEPwl) for std::basic_streambuf<wchar_t, std::char_traits<wchar_t>>::pubsetbuf(wchar_t*, long)
    ios.o(i._ZNSt8ios_base4InitD1Ev) refers to ios.o(.data) for .data
    ios.o(i._ZNSt8ios_base4InitD1Ev) refers to ios.o(.bss) for .bss
    ios.o(i._ZNSt8ios_base5iwordEi) refers to ios.o(t._ZN4__rw17__rw_resize_arrayIljEEPT_S2_RT0_i) for T1* __rw::__rw_resize_array<long, unsigned>(T1*, T2&, int)
    ios.o(i._ZNSt8ios_base5iwordEi) refers to ios.o(i._ZNSt8ios_base15_C_unsafe_clearEii) for std::ios_base::_C_unsafe_clear(int, int)
    ios.o(i._ZNSt8ios_base5iwordEi) refers to ios.o(.data) for .data
    ios.o(i._ZNSt8ios_base5pwordEi) refers to ios.o(t._ZN4__rw17__rw_resize_arrayIPvjEEPT_S3_RT0_i) for T1* __rw::__rw_resize_array<void*, unsigned>(T1*, T2&, int)
    ios.o(i._ZNSt8ios_base5pwordEi) refers to ios.o(i._ZNSt8ios_base15_C_unsafe_clearEii) for std::ios_base::_C_unsafe_clear(int, int)
    ios.o(i._ZNSt8ios_base5pwordEi) refers to ios.o(.data) for .data
    ios.o(.ARM.exidx) refers to ios.o(i._ZNSt8ios_base15_C_unsafe_clearEii) for i._ZNSt8ios_base15_C_unsafe_clearEii
    ios.o(.ARM.exidx) refers to unwind_pr0.o(.text) for __aeabi_unwind_cpp_pr0
    ios.o(.ARM.exidx) refers to ios.o(i._ZNSt8ios_base5iwordEi) for i._ZNSt8ios_base5iwordEi
    ios.o(.ARM.exidx) refers to unwind_pr0.o(.text) for __aeabi_unwind_cpp_pr0
    ios.o(.ARM.exidx) refers to ios.o(i._ZNSt8ios_base5pwordEi) for i._ZNSt8ios_base5pwordEi
    ios.o(.ARM.exidx) refers to unwind_pr0.o(.text) for __aeabi_unwind_cpp_pr0
    ios.o(.ARM.exidx) refers to ios.o(i._ZNSt8ios_base17register_callbackEPFvNS_5eventERS_iEi) for i._ZNSt8ios_base17register_callbackEPFvNS_5eventERS_iEi
    ios.o(.ARM.exidx) refers to unwind_pr0.o(.text) for __aeabi_unwind_cpp_pr0
    ios.o(.ARM.exidx) refers to ios.o(i._ZNSt8ios_base13_C_fire_eventENS_5eventEb) for i._ZNSt8ios_base13_C_fire_eventENS_5eventEb
    ios.o(.ARM.exidx) refers to unwind_pr0.o(.text) for __aeabi_unwind_cpp_pr0
    ios.o(.ARM.exidx) refers to ios.o(.ARM.extab) for .extab._ZNSt8ios_base13_C_fire_eventENS_5eventEb
    ios.o(.ARM.exidx) refers to ios.o(i._ZNSt8ios_base13_C_fire_eventENS_5eventEb.clean) for i._ZNSt8ios_base13_C_fire_eventENS_5eventEb.clean
    ios.o(.ARM.exidx) refers to ios.o(i._ZNSt8ios_base10_C_copyfmtERKS_) for i._ZNSt8ios_base10_C_copyfmtERKS_
    ios.o(.ARM.exidx) refers to unwind_pr0.o(.text) for __aeabi_unwind_cpp_pr0
    ios.o(.ARM.exidx) refers to ios.o(.ARM.extab) for .extab._ZNSt8ios_base10_C_copyfmtERKS_
    ios.o(.ARM.exidx) refers to ios.o(i._ZNSt8ios_base10_C_copyfmtERKS_.clean) for i._ZNSt8ios_base10_C_copyfmtERKS_.clean
    ios.o(.ARM.exidx) refers to ios.o(i._ZNSt8ios_base4InitC1Ev) for i._ZNSt8ios_base4InitC1Ev
    ios.o(.ARM.exidx) refers to unwind_pr1.o(.text) for __aeabi_unwind_cpp_pr1
    ios.o(.ARM.exidx) refers to ios.o(.ARM.extab) for .extab._ZNSt8ios_base4InitC1Ev
    ios.o(.ARM.exidx) refers to ios.o(i._ZNSt8ios_base4InitC1Ev.clean) for i._ZNSt8ios_base4InitC1Ev.clean
    ios.o(.ARM.exidx) refers to ios.o(i._ZNSt8ios_base4InitD1Ev) for i._ZNSt8ios_base4InitD1Ev
    ios.o(.ARM.exidx) refers to unwind_pr0.o(.text) for __aeabi_unwind_cpp_pr0
    ios.o(.ARM.exidx) refers to ios.o(.ARM.extab) for .extab._ZNSt8ios_base4InitD1Ev
    ios.o(.ARM.extab) refers to ios.o(i._ZNSt8ios_base13_C_fire_eventENS_5eventEb) for i._ZNSt8ios_base13_C_fire_eventENS_5eventEb
    ios.o(.ARM.extab) refers to ios.o(i._ZNSt8ios_base13_C_fire_eventENS_5eventEb.clean) for i._ZNSt8ios_base13_C_fire_eventENS_5eventEb.clean
    ios.o(.ARM.extab) refers to ios.o(i._ZNSt8ios_base10_C_copyfmtERKS_) for i._ZNSt8ios_base10_C_copyfmtERKS_
    ios.o(.ARM.extab) refers to ios.o(i._ZNSt8ios_base10_C_copyfmtERKS_.clean) for i._ZNSt8ios_base10_C_copyfmtERKS_.clean
    ios.o(.ARM.extab) refers to ios.o(i._ZNSt8ios_base4InitC1Ev.clean) for i._ZNSt8ios_base4InitC1Ev.clean
    ios.o(.ARM.extab) refers to arm_callunex_noexceptions.o(.text) for __cxa_call_unexpected
    ios.o(.ARM.extab) refers to arm_exceptions_callterm.o(.text) for __cxa_call_terminate
    ios.o(.ARM.extab) refers to char.o(i.__ARM_common_noexcept_landing) for __ARM_common_noexcept_landing
    ios.o(.data) refers to ios.o(.bss) for std::__rw_indestructible_cin
    ios.o(.data) refers to ios.o(.bss) for std::__rw_indestructible_cout
    ios.o(.data) refers to ios.o(.bss) for std::__rw_indestructible_cerr
    ios.o(.data) refers to ios.o(.bss) for std::__rw_indestructible_clog
    ios.o(.data) refers to ios.o(.bss) for std::__rw_indestructible_wcin
    ios.o(.data) refers to ios.o(.bss) for std::__rw_indestructible_wcout
    ios.o(.data) refers to ios.o(.bss) for std::__rw_indestructible_wcerr
    ios.o(.data) refers to ios.o(.bss) for std::__rw_indestructible_wclog
    locale.o(i.<Func5>) refers to locale.o(t._ZNSsC1ERKSaIcE) for std::basic_string<char, std::char_traits<char>, std::allocator<char>>::basic_string(const std::allocator<char>&)
    locale.o(i._ZN4__rw21__rw_use_c_lib_localeC1EPKci) refers to locale.o(.text) for setlocale
    locale.o(i._ZN4__rw21__rw_use_c_lib_localeC1EPKci) refers to strlen.o(.text) for strlen
    locale.o(i._ZN4__rw21__rw_use_c_lib_localeC1EPKci) refers to array_new.o(i._Znaj) for operator new[] (unsigned)
    locale.o(i._ZN4__rw21__rw_use_c_lib_localeC1EPKci) refers to strcpy.o(.text) for strcpy
    locale.o(i._ZN4__rw23__rw_numpunct_impl_base18_C_get_named_init_EPKc) refers to locale.o(i._ZN4__rw21__rw_use_c_lib_localeC1EPKci) for __rw::__rw_use_c_lib_locale::__rw_use_c_lib_locale(const char*, int)
    locale.o(i._ZN4__rw23__rw_numpunct_impl_base18_C_get_named_init_EPKc) refers to rwstdexcept.o(i._ZN4__rw10__rw_throwEiz) for __rw::__rw_throw(int, ...)
    locale.o(i._ZN4__rw23__rw_numpunct_impl_base18_C_get_named_init_EPKc) refers to localeconv.o(.text) for localeconv
    locale.o(i._ZN4__rw23__rw_numpunct_impl_base18_C_get_named_init_EPKc) refers to strlen.o(.text) for strlen
    locale.o(i._ZN4__rw23__rw_numpunct_impl_base18_C_get_named_init_EPKc) refers to array_new.o(i._Znaj) for operator new[] (unsigned)
    locale.o(i._ZN4__rw23__rw_numpunct_impl_base18_C_get_named_init_EPKc) refers to strcpy.o(.text) for strcpy
    locale.o(i._ZN4__rw23__rw_numpunct_impl_base18_C_get_named_init_EPKc) refers to char.o(i._ZN4__rw21__rw_use_c_lib_localeD1Ev) for __rw::__rw_use_c_lib_locale::~__rw_use_c_lib_locale()
    locale.o(i._ZN4__rw23__rw_numpunct_impl_base18_C_get_named_init_EPKc.clean) refers to char.o(i._ZN4__rw21__rw_use_c_lib_localeD1Ev) for __rw::__rw_use_c_lib_locale::~__rw_use_c_lib_locale()
    locale.o(i._ZN4__rw23__rw_numpunct_impl_base18_C_get_named_init_EPKc.clean) refers to arm_exceptions_cleanup.o(.emb_text) for __cxa_end_cleanup
    locale.o(i._ZNKSt14codecvt_bynameIwcSt11__mbstate_tE5do_inERS0_PKcS4_RS4_PwS6_RS6_) refers to mbrtowc.o(.text) for mbrtowc
    locale.o(i._ZNKSt14codecvt_bynameIwcSt11__mbstate_tE6do_outERS0_PKwS4_RS4_PcS6_RS6_) refers to _mbcurmax.o(.text) for __aeabi_MB_CUR_MAX
    locale.o(i._ZNKSt14codecvt_bynameIwcSt11__mbstate_tE6do_outERS0_PKwS4_RS4_PcS6_RS6_) refers to wcrtomb.o(.text) for wcrtomb
    locale.o(i._ZNKSt6locale13_C_make_facetERKNS_2idEbiPFPN4__rw15__rw_facet_baseEiPKcjE) refers to locale.o(t._ZN4__rw18__rw_locale_vectorIPNS_15__rw_facet_baseEE6resizeEjRKS2_) for __rw::__rw_locale_vector<__rw::__rw_facet_base*>::resize(unsigned, __rw::__rw_facet_base*const &)
    locale.o(i._ZNKSt6locale13_C_make_facetERKNS_2idEbiPFPN4__rw15__rw_facet_baseEiPKcjE) refers to rwstdexcept.o(i._ZN4__rw10__rw_throwEiz) for __rw::__rw_throw(int, ...)
    locale.o(i._ZNKSt6locale13_C_make_facetERKNS_2idEbiPFPN4__rw15__rw_facet_baseEiPKcjE) refers to locale.o(i._ZNSt6localeC1EPN4__rw15__rw_locale_impE) for std::locale::locale(__rw::__rw_locale_imp*)
    locale.o(i._ZNKSt6locale13_C_make_facetERKNS_2idEbiPFPN4__rw15__rw_facet_baseEiPKcjE) refers to locale.o(i._ZNKSt6locale16_C_install_facetEPN4__rw15__rw_facet_baseERKNS_2idE) for std::locale::_C_install_facet(__rw::__rw_facet_base*, const std::locale::id&) const
    locale.o(i._ZNKSt6locale13_C_make_facetERKNS_2idEbiPFPN4__rw15__rw_facet_baseEiPKcjE) refers to ios.o(i._ZNSt6localeD1Ev) for std::locale::~locale()
    locale.o(i._ZNKSt6locale13_C_make_facetERKNS_2idEbiPFPN4__rw15__rw_facet_baseEiPKcjE) refers to locale.o(.data) for .data
    locale.o(i._ZNKSt6locale13_C_make_facetERKNS_2idEbiPFPN4__rw15__rw_facet_baseEiPKcjE) refers to locale.o(.constdata__ZZNK4__rw15__rw_locale_imp16_C_category_nameEiEs) for __rw::__rw_locale_imp::_C_category_name(int) const::string
    locale.o(i._ZNKSt6locale13_C_make_facetERKNS_2idEbiPFPN4__rw15__rw_facet_baseEiPKcjE.clean) refers to ios.o(i._ZNSt6localeD1Ev) for std::locale::~locale()
    locale.o(i._ZNKSt6locale13_C_make_facetERKNS_2idEbiPFPN4__rw15__rw_facet_baseEiPKcjE.clean) refers to arm_exceptions_cleanup.o(.emb_text) for __cxa_end_cleanup
    locale.o(i._ZNKSt6locale16_C_install_facetEPN4__rw15__rw_facet_baseERKNS_2idE) refers to locale.o(t._ZN4__rw18__rw_locale_vectorIPNS_15__rw_facet_baseEE6resizeEjRKS2_) for __rw::__rw_locale_vector<__rw::__rw_facet_base*>::resize(unsigned, __rw::__rw_facet_base*const &)
    locale.o(i._ZNKSt6locale16_C_install_facetEPN4__rw15__rw_facet_baseERKNS_2idE) refers to locale.o(.data__ZZNKSt6locale2id7_C_initEvE9_C_id_gen) for std::locale::id::_C_init() const::_C_id_gen
    locale.o(i._ZNKSt6locale4nameEv) refers to locale.o(t._ZNSsC1EPKcRKSaIcE) for std::basic_string<char, std::char_traits<char>, std::allocator<char>>::basic_string(const char*, const std::allocator<char>&)
    locale.o(i._ZNSt6locale6globalERKS_) refers to locale.o(i._ZNKSt6locale4nameEv) for std::locale::name() const
    locale.o(i._ZNSt6locale6globalERKS_) refers to locale.o(.text) for setlocale
    locale.o(i._ZNSt6locale6globalERKS_) refers to char.o(t._ZNSsD1Ev) for std::basic_string<char, std::char_traits<char>, std::allocator<char>>::~basic_string()
    locale.o(i._ZNSt6locale6globalERKS_) refers to rwstdexcept.o(i._ZN4__rw10__rw_throwEiz) for __rw::__rw_throw(int, ...)
    locale.o(i._ZNSt6locale6globalERKS_) refers to locale.o(i._ZNSt6localeC1EPN4__rw15__rw_locale_impE) for std::locale::locale(__rw::__rw_locale_imp*)
    locale.o(i._ZNSt6locale6globalERKS_) refers to locale.o(.data) for .data
    locale.o(i._ZNSt6locale6globalERKS_.clean) refers to char.o(t._ZNSsD1Ev) for std::basic_string<char, std::char_traits<char>, std::allocator<char>>::~basic_string()
    locale.o(i._ZNSt6locale6globalERKS_.clean) refers to arm_exceptions_cleanup.o(.emb_text) for __cxa_end_cleanup
    locale.o(i._ZNSt6locale7_C_initEv) refers to new.o(i._Znwj) for operator new(unsigned)
    locale.o(i._ZNSt6locale7_C_initEv) refers to locale.o(i._ZN4__rw15__rw_locale_impC1EPKcjj) for __rw::__rw_locale_imp::__rw_locale_imp(const char*, unsigned, unsigned)
    locale.o(i._ZNSt6locale7_C_initEv) refers to locale.o(t._ZNSsaSEPKc) for std::basic_string<char, std::char_traits<char>, std::allocator<char>>::operator =(const char*)
    locale.o(i._ZNSt6locale7_C_initEv) refers to ios.o(i._ZN4__rw15__rw_locale_impD1Ev) for __rw::__rw_locale_imp::~__rw_locale_imp()
    locale.o(i._ZNSt6locale7_C_initEv) refers to delete.o(i._ZdlPv) for operator delete (void*)
    locale.o(i._ZNSt6locale7_C_initEv) refers to locale.o(.data) for .data
    locale.o(i._ZNSt6locale7_C_initEv.clean) refers to delete.o(i._ZdlPv) for operator delete (void*)
    locale.o(i._ZNSt6locale7_C_initEv.clean) refers to arm_exceptions_cleanup.o(.emb_text) for __cxa_end_cleanup
    locale.o(i._ZNSt6locale7classicEv) refers to locale.o(i._ZNSt6locale7_C_initEv) for std::locale::_C_init()
    locale.o(i._ZNSt6locale7classicEv) refers to cxa_guard_acquire.o(i.__cxa_guard_acquire) for __cxa_guard_acquire
    locale.o(i._ZNSt6locale7classicEv) refers to locale.o(i._ZNSt6localeC1EPN4__rw15__rw_locale_impE) for std::locale::locale(__rw::__rw_locale_imp*)
    locale.o(i._ZNSt6locale7classicEv) refers to aeabi_atexit.o(.text) for __aeabi_atexit
    locale.o(i._ZNSt6locale7classicEv) refers to locale.o(.data) for .data
    locale.o(i._ZNSt6locale7classicEv) refers to ios.o(i._ZNSt6localeD1Ev) for std::locale::~locale()
    locale.o(i._ZNSt6locale7classicEv.clean) refers to arm_exceptions_cleanup.o(.emb_text) for __cxa_end_cleanup
    locale.o(i._ZNSt6locale7classicEv.clean) refers to locale.o(.data) for .data
    locale.o(i._ZNSt6localeC1EPKc) refers to rwstdexcept.o(i._ZN4__rw10__rw_throwEiz) for __rw::__rw_throw(int, ...)
    locale.o(i._ZNSt6localeC1EPKc) refers to locale.o(i._ZNSt6locale7_C_initEv) for std::locale::_C_init()
    locale.o(i._ZNSt6localeC1EPKc) refers to strcmpv7m.o(.text) for strcmp
    locale.o(i._ZNSt6localeC1EPKc) refers to new.o(i._Znwj) for operator new(unsigned)
    locale.o(i._ZNSt6localeC1EPKc) refers to locale.o(i._ZN4__rw15__rw_locale_impC1EPKcjj) for __rw::__rw_locale_imp::__rw_locale_imp(const char*, unsigned, unsigned)
    locale.o(i._ZNSt6localeC1EPKc) refers to vendor.o(i._ZN4__rw15__rw_locale_imp13_C_parse_nameERNS_18__rw_locale_vectorISsEEPKc) for __rw::__rw_locale_imp::_C_parse_name(__rw::__rw_locale_vector<std::basic_string<char, std::char_traits<char>, std::allocator<char>>>&, const char*)
    locale.o(i._ZNSt6localeC1EPKc) refers to ios.o(i._ZN4__rw15__rw_locale_impD1Ev) for __rw::__rw_locale_imp::~__rw_locale_imp()
    locale.o(i._ZNSt6localeC1EPKc) refers to delete.o(i._ZdlPv) for operator delete (void*)
    locale.o(i._ZNSt6localeC1EPKc) refers to locale.o(.data) for .data
    locale.o(i._ZNSt6localeC1EPKc.clean) refers to delete.o(i._ZdlPv) for operator delete (void*)
    locale.o(i._ZNSt6localeC1EPKc.clean) refers to arm_exceptions_cleanup.o(.emb_text) for __cxa_end_cleanup
    locale.o(i._ZNSt6localeC1ERKS_PKci) refers to rwstdexcept.o(i._ZN4__rw10__rw_throwEiz) for __rw::__rw_throw(int, ...)
    locale.o(i._ZNSt6localeC1ERKS_PKci) refers to new.o(i._Znwj) for operator new(unsigned)
    locale.o(i._ZNSt6localeC1ERKS_PKci) refers to locale.o(i._ZN4__rw15__rw_locale_impC1ERKS0_PKcj) for __rw::__rw_locale_imp::__rw_locale_imp(const __rw::__rw_locale_imp&, const char*, unsigned)
    locale.o(i._ZNSt6localeC1ERKS_PKci) refers to vendor.o(i._ZN4__rw15__rw_locale_imp15_C_map_categoryEi) for __rw::__rw_locale_imp::_C_map_category(int)
    locale.o(i._ZNSt6localeC1ERKS_PKci) refers to locale.o(i._ZNSt6locale16_C_remove_facetsEi) for std::locale::_C_remove_facets(int)
    locale.o(i._ZNSt6localeC1ERKS_PKci) refers to aeabi_vec_new_cookie.o(i.__aeabi_vec_new_cookie) for __aeabi_vec_new_cookie
    locale.o(i._ZNSt6localeC1ERKS_PKci) refers to vendor.o(i._ZN4__rw15__rw_locale_imp13_C_parse_nameERNS_18__rw_locale_vectorISsEEPKc) for __rw::__rw_locale_imp::_C_parse_name(__rw::__rw_locale_vector<std::basic_string<char, std::char_traits<char>, std::allocator<char>>>&, const char*)
    locale.o(i._ZNSt6localeC1ERKS_PKci) refers to locale.o(t._ZNSsaSEPKc) for std::basic_string<char, std::char_traits<char>, std::allocator<char>>::operator =(const char*)
    locale.o(i._ZNSt6localeC1ERKS_PKci) refers to ios.o(t._ZN4__rw18__rw_locale_vectorISsED1Ev) for __rw::__rw_locale_vector<std::basic_string<char, std::char_traits<char>, std::allocator<char>>>::~__rw_locale_vector()
    locale.o(i._ZNSt6localeC1ERKS_PKci) refers to char.o(t._ZNSsD1Ev) for std::basic_string<char, std::char_traits<char>, std::allocator<char>>::~basic_string()
    locale.o(i._ZNSt6localeC1ERKS_PKci) refers to locale.o(i.<Func5>) for <Func5>
    locale.o(i._ZNSt6localeC1ERKS_PKci.clean) refers to delete.o(i._ZdlPv) for operator delete (void*)
    locale.o(i._ZNSt6localeC1ERKS_PKci.clean) refers to arm_exceptions_cleanup.o(.emb_text) for __cxa_end_cleanup
    locale.o(i._ZNSt6localeC1ERKS_PKci.clean) refers to ios.o(t._ZN4__rw18__rw_locale_vectorISsED1Ev) for __rw::__rw_locale_vector<std::basic_string<char, std::char_traits<char>, std::allocator<char>>>::~__rw_locale_vector()
    locale.o(i._ZNSt6localeC1ERKS_S1_i) refers to new.o(i._Znwj) for operator new(unsigned)
    locale.o(i._ZNSt6localeC1ERKS_S1_i) refers to locale.o(i._ZN4__rw15__rw_locale_impC1ERKS0_PKcj) for __rw::__rw_locale_imp::__rw_locale_imp(const __rw::__rw_locale_imp&, const char*, unsigned)
    locale.o(i._ZNSt6localeC1ERKS_S1_i) refers to vendor.o(i._ZN4__rw15__rw_locale_imp15_C_map_categoryEi) for __rw::__rw_locale_imp::_C_map_category(int)
    locale.o(i._ZNSt6localeC1ERKS_S1_i) refers to locale.o(t._ZNSsaSERKSs) for std::basic_string<char, std::char_traits<char>, std::allocator<char>>::operator =(const std::basic_string<char, std::char_traits<char>, std::allocator<char>>&)
    locale.o(i._ZNSt6localeC1ERKS_S1_i) refers to locale.o(i._ZNSt6locale16_C_remove_facetsEi) for std::locale::_C_remove_facets(int)
    locale.o(i._ZNSt6localeC1ERKS_S1_i.clean) refers to delete.o(i._ZdlPv) for operator delete (void*)
    locale.o(i._ZNSt6localeC1ERKS_S1_i.clean) refers to arm_exceptions_cleanup.o(.emb_text) for __cxa_end_cleanup
    locale.o(i._ZNSt6localeaSERKS_) refers to ios.o(i._ZN4__rw15__rw_locale_impD1Ev) for __rw::__rw_locale_imp::~__rw_locale_imp()
    locale.o(i._ZNSt6localeaSERKS_) refers to delete.o(i._ZdlPv) for operator delete (void*)
    locale.o(i.__sti___10_locale_cpp_ff99fc7b) refers to locale.o(.data) for .data
    locale.o(.ARM.exidx) refers to locale.o(i.<Func5>) for i.<Func5>
    locale.o(.ARM.exidx) refers to unwind_pr0.o(.text) for __aeabi_unwind_cpp_pr0
    locale.o(.ARM.exidx) refers to locale.o(i._ZNSt6locale7_C_initEv) for i._ZNSt6locale7_C_initEv
    locale.o(.ARM.exidx) refers to unwind_pr0.o(.text) for __aeabi_unwind_cpp_pr0
    locale.o(.ARM.exidx) refers to locale.o(.ARM.extab) for .extab._ZNSt6locale7_C_initEv
    locale.o(.ARM.exidx) refers to locale.o(i._ZNSt6locale7_C_initEv.clean) for i._ZNSt6locale7_C_initEv.clean
    locale.o(.ARM.exidx) refers to locale.o(i._ZNSt6localeC1EPKc) for i._ZNSt6localeC1EPKc
    locale.o(.ARM.exidx) refers to unwind_pr0.o(.text) for __aeabi_unwind_cpp_pr0
    locale.o(.ARM.exidx) refers to locale.o(.ARM.extab) for .extab._ZNSt6localeC1EPKc
    locale.o(.ARM.exidx) refers to locale.o(i._ZNSt6localeC1EPKc.clean) for i._ZNSt6localeC1EPKc.clean
    locale.o(.ARM.exidx) refers to locale.o(i._ZNSt6localeC1ERKS_PKci) for i._ZNSt6localeC1ERKS_PKci
    locale.o(.ARM.exidx) refers to unwind_pr0.o(.text) for __aeabi_unwind_cpp_pr0
    locale.o(.ARM.exidx) refers to locale.o(.ARM.extab) for .extab._ZNSt6localeC1ERKS_PKci
    locale.o(.ARM.exidx) refers to locale.o(i._ZNSt6localeC1ERKS_PKci.clean) for i._ZNSt6localeC1ERKS_PKci.clean
    locale.o(.ARM.exidx) refers to locale.o(i._ZNSt6localeC1ERKS_S1_i) for i._ZNSt6localeC1ERKS_S1_i
    locale.o(.ARM.exidx) refers to unwind_pr0.o(.text) for __aeabi_unwind_cpp_pr0
    locale.o(.ARM.exidx) refers to locale.o(.ARM.extab) for .extab._ZNSt6localeC1ERKS_S1_i
    locale.o(.ARM.exidx) refers to locale.o(i._ZNSt6localeC1ERKS_S1_i.clean) for i._ZNSt6localeC1ERKS_S1_i.clean
    locale.o(.ARM.exidx) refers to locale.o(i._ZNSt6localeaSERKS_) for i._ZNSt6localeaSERKS_
    locale.o(.ARM.exidx) refers to locale.o(i._ZNKSt6locale4nameEv) for i._ZNKSt6locale4nameEv
    locale.o(.ARM.exidx) refers to unwind_pr0.o(.text) for __aeabi_unwind_cpp_pr0
    locale.o(.ARM.exidx) refers to locale.o(i._ZNSt6locale6globalERKS_) for i._ZNSt6locale6globalERKS_
    locale.o(.ARM.exidx) refers to unwind_pr0.o(.text) for __aeabi_unwind_cpp_pr0
    locale.o(.ARM.exidx) refers to locale.o(.ARM.extab) for .extab._ZNSt6locale6globalERKS_
    locale.o(.ARM.exidx) refers to locale.o(i._ZNSt6locale6globalERKS_.clean) for i._ZNSt6locale6globalERKS_.clean
    locale.o(.ARM.exidx) refers to locale.o(i._ZNSt6locale7classicEv) for i._ZNSt6locale7classicEv
    locale.o(.ARM.exidx) refers to unwind_pr0.o(.text) for __aeabi_unwind_cpp_pr0
    locale.o(.ARM.exidx) refers to locale.o(.ARM.extab) for .extab._ZNSt6locale7classicEv
    locale.o(.ARM.exidx) refers to locale.o(i._ZNSt6locale7classicEv.clean) for i._ZNSt6locale7classicEv.clean
    locale.o(.ARM.exidx) refers to locale.o(i._ZNKSt6locale16_C_install_facetEPN4__rw15__rw_facet_baseERKNS_2idE) for i._ZNKSt6locale16_C_install_facetEPN4__rw15__rw_facet_baseERKNS_2idE
    locale.o(.ARM.exidx) refers to unwind_pr0.o(.text) for __aeabi_unwind_cpp_pr0
    locale.o(.ARM.exidx) refers to locale.o(i._ZNKSt6locale13_C_make_facetERKNS_2idEbiPFPN4__rw15__rw_facet_baseEiPKcjE) for i._ZNKSt6locale13_C_make_facetERKNS_2idEbiPFPN4__rw15__rw_facet_baseEiPKcjE
    locale.o(.ARM.exidx) refers to unwind_pr0.o(.text) for __aeabi_unwind_cpp_pr0
    locale.o(.ARM.exidx) refers to locale.o(.ARM.extab) for .extab._ZNKSt6locale13_C_make_facetERKNS_2idEbiPFPN4__rw15__rw_facet_baseEiPKcjE
    locale.o(.ARM.exidx) refers to locale.o(i._ZNKSt6locale13_C_make_facetERKNS_2idEbiPFPN4__rw15__rw_facet_baseEiPKcjE.clean) for i._ZNKSt6locale13_C_make_facetERKNS_2idEbiPFPN4__rw15__rw_facet_baseEiPKcjE.clean
    locale.o(.ARM.exidx) refers to locale.o(i._ZNKSt14codecvt_bynameIwcSt11__mbstate_tE6do_outERS0_PKwS4_RS4_PcS6_RS6_) for i._ZNKSt14codecvt_bynameIwcSt11__mbstate_tE6do_outERS0_PKwS4_RS4_PcS6_RS6_
    locale.o(.ARM.exidx) refers to unwind_pr0.o(.text) for __aeabi_unwind_cpp_pr0
    locale.o(.ARM.exidx) refers to locale.o(i._ZNKSt14codecvt_bynameIwcSt11__mbstate_tE5do_inERS0_PKcS4_RS4_PwS6_RS6_) for i._ZNKSt14codecvt_bynameIwcSt11__mbstate_tE5do_inERS0_PKcS4_RS4_PwS6_RS6_
    locale.o(.ARM.exidx) refers to unwind_pr0.o(.text) for __aeabi_unwind_cpp_pr0
    locale.o(.ARM.exidx) refers to locale.o(i._ZN4__rw21__rw_use_c_lib_localeC1EPKci) for i._ZN4__rw21__rw_use_c_lib_localeC1EPKci
    locale.o(.ARM.exidx) refers to unwind_pr0.o(.text) for __aeabi_unwind_cpp_pr0
    locale.o(.ARM.exidx) refers to locale.o(i._ZN4__rw23__rw_numpunct_impl_base18_C_get_named_init_EPKc) for i._ZN4__rw23__rw_numpunct_impl_base18_C_get_named_init_EPKc
    locale.o(.ARM.exidx) refers to unwind_pr0.o(.text) for __aeabi_unwind_cpp_pr0
    locale.o(.ARM.exidx) refers to locale.o(.ARM.extab) for .extab._ZN4__rw23__rw_numpunct_impl_base18_C_get_named_init_EPKc
    locale.o(.ARM.exidx) refers to locale.o(i._ZN4__rw23__rw_numpunct_impl_base18_C_get_named_init_EPKc.clean) for i._ZN4__rw23__rw_numpunct_impl_base18_C_get_named_init_EPKc.clean
    locale.o(.ARM.exidx) refers to locale.o(i.__sti___10_locale_cpp_ff99fc7b) for i.__sti___10_locale_cpp_ff99fc7b
    locale.o(.ARM.extab) refers to locale.o(i._ZNSt6locale7_C_initEv.clean) for i._ZNSt6locale7_C_initEv.clean
    locale.o(.ARM.extab) refers to locale.o(i._ZNSt6locale7_C_initEv) for i._ZNSt6locale7_C_initEv
    locale.o(.ARM.extab) refers to locale.o(i._ZNSt6localeC1EPKc.clean) for i._ZNSt6localeC1EPKc.clean
    locale.o(.ARM.extab) refers to locale.o(i._ZNSt6localeC1ERKS_PKci.clean) for i._ZNSt6localeC1ERKS_PKci.clean
    locale.o(.ARM.extab) refers to locale.o(i._ZNSt6localeC1ERKS_S1_i.clean) for i._ZNSt6localeC1ERKS_S1_i.clean
    locale.o(.ARM.extab) refers to locale.o(i._ZNSt6locale6globalERKS_.clean) for i._ZNSt6locale6globalERKS_.clean
    locale.o(.ARM.extab) refers to locale.o(i._ZNSt6locale7classicEv.clean) for i._ZNSt6locale7classicEv.clean
    locale.o(.ARM.extab) refers to locale.o(i._ZNKSt6locale13_C_make_facetERKNS_2idEbiPFPN4__rw15__rw_facet_baseEiPKcjE.clean) for i._ZNKSt6locale13_C_make_facetERKNS_2idEbiPFPN4__rw15__rw_facet_baseEiPKcjE.clean
    locale.o(.ARM.extab) refers to locale.o(i._ZN4__rw23__rw_numpunct_impl_base18_C_get_named_init_EPKc.clean) for i._ZN4__rw23__rw_numpunct_impl_base18_C_get_named_init_EPKc.clean
    locale.o(.init_array) refers to locale.o(i.__sti___10_locale_cpp_ff99fc7b) for __sti___10_locale_cpp_ff99fc7b
    locale.o(.init_array) refers to init_aeabi.o(.text) for __cpp_initialize__aeabi_
    rwalloc.o(i._ZN4__rw13__rw_allocateEji) refers to new.o(i._Znwj) for operator new(unsigned)
    rwalloc.o(i._ZN4__rw13__rw_allocateEji) refers to rwstdexcept.o(i._ZN4__rw10__rw_throwEiz) for __rw::__rw_throw(int, ...)
    rwalloc.o(i._ZN4__rw15__rw_deallocateEPvji) refers to delete.o(i._ZdlPv) for operator delete (void*)
    rwalloc.o(.ARM.exidx) refers to rwalloc.o(i._ZN4__rw13__rw_allocateEji) for i._ZN4__rw13__rw_allocateEji
    rwalloc.o(.ARM.exidx) refers to unwind_pr0.o(.text) for __aeabi_unwind_cpp_pr0
    rwalloc.o(.ARM.exidx) refers to rwalloc.o(.ARM.extab) for .extab._ZN4__rw13__rw_allocateEji
    rwalloc.o(.ARM.exidx) refers to rwalloc.o(i._ZN4__rw15__rw_deallocateEPvji) for i._ZN4__rw15__rw_deallocateEPvji
    rwalloc.o(.ARM.extab) refers to rwalloc.o(i._ZN4__rw13__rw_allocateEji) for i._ZN4__rw13__rw_allocateEji
    rwstdexcept.o(i._ZN37_INTERNAL_15_rwstdexcept_cpp_8697b68a4__rw13__rw_vfmatstrEPcjPKcSt9__va_list) refers to array_new.o(i._Znaj) for operator new[] (unsigned)
    rwstdexcept.o(i._ZN37_INTERNAL_15_rwstdexcept_cpp_8697b68a4__rw13__rw_vfmatstrEPcjPKcSt9__va_list) refers to vsnprintf.o(.text) for vsnprintf
    rwstdexcept.o(i._ZN37_INTERNAL_15_rwstdexcept_cpp_8697b68a4__rw13__rw_vfmatstrEPcjPKcSt9__va_list) refers to array_del.o(i._ZdaPv) for operator delete[] (void*)
    rwstdexcept.o(i._ZN37_INTERNAL_15_rwstdexcept_cpp_8697b68a4__rw13__rw_vfmatstrEPcjiSt9__va_list) refers to strrchr.o(.text) for strrchr
    rwstdexcept.o(i._ZN37_INTERNAL_15_rwstdexcept_cpp_8697b68a4__rw13__rw_vfmatstrEPcjiSt9__va_list) refers to sscanf.o(.text) for sscanf
    rwstdexcept.o(i._ZN37_INTERNAL_15_rwstdexcept_cpp_8697b68a4__rw13__rw_vfmatstrEPcjiSt9__va_list) refers to locale.o(t._ZNSsC1EPKcRKSaIcE) for std::basic_string<char, std::char_traits<char>, std::allocator<char>>::basic_string(const char*, const std::allocator<char>&)
    rwstdexcept.o(i._ZN37_INTERNAL_15_rwstdexcept_cpp_8697b68a4__rw13__rw_vfmatstrEPcjiSt9__va_list) refers to char.o(t._ZNSsC1ERKSs) for std::basic_string<char, std::char_traits<char>, std::allocator<char>>::basic_string(const std::basic_string<char, std::char_traits<char>, std::allocator<char>>&)
    rwstdexcept.o(i._ZN37_INTERNAL_15_rwstdexcept_cpp_8697b68a4__rw13__rw_vfmatstrEPcjiSt9__va_list) refers to char.o(t._ZNSsD1Ev) for std::basic_string<char, std::char_traits<char>, std::allocator<char>>::~basic_string()
    rwstdexcept.o(i._ZN37_INTERNAL_15_rwstdexcept_cpp_8697b68a4__rw13__rw_vfmatstrEPcjiSt9__va_list) refers to ios.o(i._ZNSt6localeC1Ev) for std::locale::locale()
    rwstdexcept.o(i._ZN37_INTERNAL_15_rwstdexcept_cpp_8697b68a4__rw13__rw_vfmatstrEPcjiSt9__va_list) refers to ios.o(i._ZNSt6localeD1Ev) for std::locale::~locale()
    rwstdexcept.o(i._ZN37_INTERNAL_15_rwstdexcept_cpp_8697b68a4__rw13__rw_vfmatstrEPcjiSt9__va_list) refers to rwstdexcept.o(i._ZN37_INTERNAL_15_rwstdexcept_cpp_8697b68a4__rw13__rw_vfmatstrEPcjPKcSt9__va_list) for [local to rwstdexcept_cpp]::__rw::__rw_vfmatstr(char*, unsigned, const char*, std::__va_list)
    rwstdexcept.o(i._ZN37_INTERNAL_15_rwstdexcept_cpp_8697b68a4__rw13__rw_vfmatstrEPcjiSt9__va_list) refers to rwstdexcept.o(.data) for .data
    rwstdexcept.o(i._ZN37_INTERNAL_15_rwstdexcept_cpp_8697b68a4__rw13__rw_vfmatstrEPcjiSt9__va_list) refers to rwstdexcept.o(.bss) for .bss
    rwstdexcept.o(i._ZN37_INTERNAL_15_rwstdexcept_cpp_8697b68a4__rw13__rw_vfmatstrEPcjiSt9__va_list) refers to main.o(.constdata__ZTVNSt6locale5facetE) for vtable for std::locale::facet
    rwstdexcept.o(i._ZN37_INTERNAL_15_rwstdexcept_cpp_8697b68a4__rw13__rw_vfmatstrEPcjiSt9__va_list) refers to rwstdexcept.o(.constdata__ZZNSt8messagesIcEC1EjEs) for std::messages<char>::messages(unsigned)::string
    rwstdexcept.o(i._ZN37_INTERNAL_15_rwstdexcept_cpp_8697b68a4__rw13__rw_vfmatstrEPcjiSt9__va_list) refers to rwstdexcept.o(.constdata__ZTVSt8messagesIcE) for vtable for std::messages<char>
    rwstdexcept.o(i._ZN37_INTERNAL_15_rwstdexcept_cpp_8697b68a4__rw13__rw_vfmatstrEPcjiSt9__va_list.clean) refers to char.o(t._ZNSsD1Ev) for std::basic_string<char, std::char_traits<char>, std::allocator<char>>::~basic_string()
    rwstdexcept.o(i._ZN37_INTERNAL_15_rwstdexcept_cpp_8697b68a4__rw13__rw_vfmatstrEPcjiSt9__va_list.clean) refers to ios.o(i._ZNSt6localeD1Ev) for std::locale::~locale()
    rwstdexcept.o(i._ZN37_INTERNAL_15_rwstdexcept_cpp_8697b68a4__rw13__rw_vfmatstrEPcjiSt9__va_list.clean) refers to arm_exceptions_cleanup.o(.emb_text) for __cxa_end_cleanup
    rwstdexcept.o(i._ZN4__rw10__rw_throwEiz) refers to rwstdexcept.o(i._ZNSt14__rw_exceptionC1Ev) for std::__rw_exception::__rw_exception()
    rwstdexcept.o(i._ZN4__rw10__rw_throwEiz) refers to rwstdexcept.o(i._ZNSt14__rw_exception10_C_vformatEiSt9__va_list) for std::__rw_exception::_C_vformat(int, std::__va_list)
    rwstdexcept.o(i._ZN4__rw10__rw_throwEiz) refers to rwthrowproc_noex.o(.data) for __rw_throw_proc
    rwstdexcept.o(i._ZN4__rw16__rw_assert_failEPKcS1_iS1_) refers to fprintf.o(.text) for fprintf
    rwstdexcept.o(i._ZN4__rw16__rw_assert_failEPKcS1_iS1_) refers to abort.o(.text) for abort
    rwstdexcept.o(i._ZN4__rw16__rw_assert_failEPKcS1_iS1_) refers to uartbsp.o(.data) for __stderr
    rwstdexcept.o(i._ZNSt14__rw_exception10_C_vformatEPKcSt9__va_list) refers to rwstdexcept.o(i._ZN37_INTERNAL_15_rwstdexcept_cpp_8697b68a4__rw13__rw_vfmatstrEPcjPKcSt9__va_list) for [local to rwstdexcept_cpp]::__rw::__rw_vfmatstr(char*, unsigned, const char*, std::__va_list)
    rwstdexcept.o(i._ZNSt14__rw_exception10_C_vformatEPKcSt9__va_list) refers to strlen.o(.text) for strlen
    rwstdexcept.o(i._ZNSt14__rw_exception10_C_vformatEPKcSt9__va_list) refers to array_new.o(i._Znaj) for operator new[] (unsigned)
    rwstdexcept.o(i._ZNSt14__rw_exception10_C_vformatEPKcSt9__va_list) refers to strcpy.o(.text) for strcpy
    rwstdexcept.o(i._ZNSt14__rw_exception10_C_vformatEPKcSt9__va_list) refers to strcat.o(.text) for strcat
    rwstdexcept.o(i._ZNSt14__rw_exception10_C_vformatEPKcSt9__va_list) refers to array_del.o(i._ZdaPv) for operator delete[] (void*)
    rwstdexcept.o(i._ZNSt14__rw_exception10_C_vformatEiSt9__va_list) refers to rwstdexcept.o(i._ZN37_INTERNAL_15_rwstdexcept_cpp_8697b68a4__rw13__rw_vfmatstrEPcjiSt9__va_list) for [local to rwstdexcept_cpp]::__rw::__rw_vfmatstr(char*, unsigned, int, std::__va_list)
    rwstdexcept.o(i._ZNSt14__rw_exception10_C_vformatEiSt9__va_list) refers to rwstdexcept.o(i._ZN37_INTERNAL_15_rwstdexcept_cpp_8697b68a4__rw13__rw_vfmatstrEPcjPKcSt9__va_list) for [local to rwstdexcept_cpp]::__rw::__rw_vfmatstr(char*, unsigned, const char*, std::__va_list)
    rwstdexcept.o(i._ZNSt14__rw_exception10_C_vformatEiSt9__va_list) refers to strlen.o(.text) for strlen
    rwstdexcept.o(i._ZNSt14__rw_exception10_C_vformatEiSt9__va_list) refers to array_new.o(i._Znaj) for operator new[] (unsigned)
    rwstdexcept.o(i._ZNSt14__rw_exception10_C_vformatEiSt9__va_list) refers to strcpy.o(.text) for strcpy
    rwstdexcept.o(i._ZNSt14__rw_exception10_C_vformatEiSt9__va_list) refers to strcat.o(.text) for strcat
    rwstdexcept.o(i._ZNSt14__rw_exception10_C_vformatEiSt9__va_list) refers to array_del.o(i._ZdaPv) for operator delete[] (void*)
    rwstdexcept.o(i._ZNSt14__rw_exception10_C_vformatEiSt9__va_list) refers to rwstdexcept.o(.constdata) for .constdata
    rwstdexcept.o(i._ZNSt14__rw_exception9_C_assignEPKcj) refers to strlen.o(.text) for strlen
    rwstdexcept.o(i._ZNSt14__rw_exception9_C_assignEPKcj) refers to array_new.o(i._Znaj) for operator new[] (unsigned)
    rwstdexcept.o(i._ZNSt14__rw_exception9_C_assignEPKcj) refers to strcpy.o(.text) for strcpy
    rwstdexcept.o(i._ZNSt14__rw_exception9_C_assignEPKcj) refers to array_del.o(i._ZdaPv) for operator delete[] (void*)
    rwstdexcept.o(i._ZNSt14__rw_exceptionC1ERKSs) refers to exception_ctor.o(i._ZNSt9exceptionC1Ev) for std::exception::exception()
    rwstdexcept.o(i._ZNSt14__rw_exceptionC1ERKSs) refers to rwstdexcept.o(i._ZNSt14__rw_exception9_C_assignEPKcj) for std::__rw_exception::_C_assign(const char*, unsigned)
    rwstdexcept.o(i._ZNSt14__rw_exceptionC1ERKSs) refers to rwstdexcept.o(.constdata__ZTVSt14__rw_exception) for vtable for std::__rw_exception
    rwstdexcept.o(.ARM.exidx) refers to rwstdexcept.o(i._ZN37_INTERNAL_15_rwstdexcept_cpp_8697b68a4__rw13__rw_vfmatstrEPcjPKcSt9__va_list) for i._ZN37_INTERNAL_15_rwstdexcept_cpp_8697b68a4__rw13__rw_vfmatstrEPcjPKcSt9__va_list
    rwstdexcept.o(.ARM.exidx) refers to unwind_pr0.o(.text) for __aeabi_unwind_cpp_pr0
    rwstdexcept.o(.ARM.exidx) refers to rwstdexcept.o(i._ZN37_INTERNAL_15_rwstdexcept_cpp_8697b68a4__rw13__rw_vfmatstrEPcjiSt9__va_list) for i._ZN37_INTERNAL_15_rwstdexcept_cpp_8697b68a4__rw13__rw_vfmatstrEPcjiSt9__va_list
    rwstdexcept.o(.ARM.exidx) refers to unwind_pr0.o(.text) for __aeabi_unwind_cpp_pr0
    rwstdexcept.o(.ARM.exidx) refers to rwstdexcept.o(.ARM.extab) for .extab._ZN37_INTERNAL_15_rwstdexcept_cpp_8697b68a4__rw13__rw_vfmatstrEPcjiSt9__va_list
    rwstdexcept.o(.ARM.exidx) refers to rwstdexcept.o(i._ZN37_INTERNAL_15_rwstdexcept_cpp_8697b68a4__rw13__rw_vfmatstrEPcjiSt9__va_list.clean) for i._ZN37_INTERNAL_15_rwstdexcept_cpp_8697b68a4__rw13__rw_vfmatstrEPcjiSt9__va_list.clean
    rwstdexcept.o(.ARM.exidx) refers to rwstdexcept.o(i._ZNSt14__rw_exception10_C_vformatEiSt9__va_list) for i._ZNSt14__rw_exception10_C_vformatEiSt9__va_list
    rwstdexcept.o(.ARM.exidx) refers to unwind_pr0.o(.text) for __aeabi_unwind_cpp_pr0
    rwstdexcept.o(.ARM.exidx) refers to rwstdexcept.o(.ARM.extab) for .extab._ZNSt14__rw_exception10_C_vformatEiSt9__va_list
    rwstdexcept.o(.ARM.exidx) refers to rwstdexcept.o(i._ZN4__rw10__rw_throwEiz) for i._ZN4__rw10__rw_throwEiz
    rwstdexcept.o(.ARM.exidx) refers to unwind_pr0.o(.text) for __aeabi_unwind_cpp_pr0
    rwstdexcept.o(.ARM.exidx) refers to rwstdexcept.o(i._ZNSt14__rw_exception9_C_assignEPKcj) for i._ZNSt14__rw_exception9_C_assignEPKcj
    rwstdexcept.o(.ARM.exidx) refers to unwind_pr0.o(.text) for __aeabi_unwind_cpp_pr0
    rwstdexcept.o(.ARM.exidx) refers to rwstdexcept.o(.ARM.extab) for .extab._ZNSt14__rw_exception9_C_assignEPKcj
    rwstdexcept.o(.ARM.exidx) refers to rwstdexcept.o(i._ZNSt14__rw_exception10_C_vformatEPKcSt9__va_list) for i._ZNSt14__rw_exception10_C_vformatEPKcSt9__va_list
    rwstdexcept.o(.ARM.exidx) refers to unwind_pr0.o(.text) for __aeabi_unwind_cpp_pr0
    rwstdexcept.o(.ARM.exidx) refers to rwstdexcept.o(.ARM.extab) for .extab._ZNSt14__rw_exception10_C_vformatEPKcSt9__va_list
    rwstdexcept.o(.ARM.exidx) refers to rwstdexcept.o(i._ZNSt14__rw_exceptionC1ERKSs) for i._ZNSt14__rw_exceptionC1ERKSs
    rwstdexcept.o(.ARM.exidx) refers to rwstdexcept.o(i._ZN4__rw16__rw_assert_failEPKcS1_iS1_) for i._ZN4__rw16__rw_assert_failEPKcS1_iS1_
    rwstdexcept.o(.ARM.extab) refers to rwstdexcept.o(i._ZN37_INTERNAL_15_rwstdexcept_cpp_8697b68a4__rw13__rw_vfmatstrEPcjiSt9__va_list.clean) for i._ZN37_INTERNAL_15_rwstdexcept_cpp_8697b68a4__rw13__rw_vfmatstrEPcjiSt9__va_list.clean
    rwstdexcept.o(.ARM.extab) refers to arm_callunex_noexceptions.o(.text) for __cxa_call_unexpected
    rwstdexcept.o(.ARM.extab) refers to rwstdexcept.o(i._ZNSt14__rw_exception10_C_vformatEiSt9__va_list) for i._ZNSt14__rw_exception10_C_vformatEiSt9__va_list
    rwstdexcept.o(.ARM.extab) refers to arm_callunex_noexceptions.o(.text) for __cxa_call_unexpected
    rwstdexcept.o(.ARM.extab) refers to rwstdexcept.o(i._ZNSt14__rw_exception9_C_assignEPKcj) for i._ZNSt14__rw_exception9_C_assignEPKcj
    rwstdexcept.o(.ARM.extab) refers to arm_callunex_noexceptions.o(.text) for __cxa_call_unexpected
    rwstdexcept.o(.ARM.extab) refers to rwstdexcept.o(i._ZNSt14__rw_exception10_C_vformatEPKcSt9__va_list) for i._ZNSt14__rw_exception10_C_vformatEPKcSt9__va_list
    rwstdexcept.o(.constdata) refers to rwstdexcept.o(.conststring) for .conststring
    vendor.o(i._ZN4__rw15__rw_locale_imp13_C_parse_nameERNS_18__rw_locale_vectorISsEEPKc) refers to locale.o(.text) for setlocale
    vendor.o(i._ZN4__rw15__rw_locale_imp13_C_parse_nameERNS_18__rw_locale_vectorISsEEPKc) refers to strlen.o(.text) for strlen
    vendor.o(i._ZN4__rw15__rw_locale_imp13_C_parse_nameERNS_18__rw_locale_vectorISsEEPKc) refers to locale.o(t._ZNSs11_C_allocateEjjj) for std::basic_string<char, std::char_traits<char>, std::allocator<char>>::_C_allocate(unsigned, unsigned, unsigned)
    vendor.o(i._ZN4__rw15__rw_locale_imp13_C_parse_nameERNS_18__rw_locale_vectorISsEEPKc) refers to char.o(i._ZNSt11char_traitsIcE4copyEPcPKcj) for std::char_traits<char>::copy(char*, const char*, unsigned)
    vendor.o(i._ZN4__rw15__rw_locale_imp13_C_parse_nameERNS_18__rw_locale_vectorISsEEPKc) refers to locale.o(t._ZNSsaSEPKc) for std::basic_string<char, std::char_traits<char>, std::allocator<char>>::operator =(const char*)
    vendor.o(i._ZN4__rw15__rw_locale_imp13_C_parse_nameERNS_18__rw_locale_vectorISsEEPKc) refers to char.o(t._ZNSsD1Ev) for std::basic_string<char, std::char_traits<char>, std::allocator<char>>::~basic_string()
    vendor.o(i._ZN4__rw15__rw_locale_imp13_C_parse_nameERNS_18__rw_locale_vectorISsEEPKc) refers to messages.o(.bss__ZNSs9__nullrefE) for std::basic_string<char, std::char_traits<char>, std::allocator<char>>::__nullref
    vendor.o(i._ZN4__rw15__rw_locale_imp13_C_parse_nameERNS_18__rw_locale_vectorISsEEPKc.clean) refers to char.o(t._ZNSsD1Ev) for std::basic_string<char, std::char_traits<char>, std::allocator<char>>::~basic_string()
    vendor.o(i._ZN4__rw15__rw_locale_imp13_C_parse_nameERNS_18__rw_locale_vectorISsEEPKc.clean) refers to arm_exceptions_cleanup.o(.emb_text) for __cxa_end_cleanup
    vendor.o(i._ZN4__rw22__rw_digit_reader_base10_C_reallocERPcS1_Rj) refers to array_new.o(i._Znaj) for operator new[] (unsigned)
    vendor.o(i._ZN4__rw22__rw_digit_reader_base10_C_reallocERPcS1_Rj) refers to array_del.o(i._ZdaPv) for operator delete[] (void*)
    vendor.o(i._ZN4__rw22__rw_digit_reader_base10_C_reallocERPcS1_Rj) refers to arm_rethrow_noexceptions.o(.text) for __cxa_rethrow
    vendor.o(i._ZN4__rw22__rw_digit_reader_base10_C_reallocERPcS1_Rj.clean) refers to arm_exceptions_cleanup.o(.emb_text) for __cxa_end_cleanup
    vendor.o(i._ZN4__rw22__rw_digit_reader_base14_C_parse_floatEPKcS2_Pv) refers to vendor.o(i._ZN4__rw22__rw_digit_reader_base10_C_reallocERPcS1_Rj) for __rw::__rw_digit_reader_base::_C_realloc(char*&, char*, unsigned&)
    vendor.o(i._ZN4__rw22__rw_digit_reader_base14_C_parse_floatEPKcS2_Pv) refers to locale.o(i._ZN4__rw21__rw_use_c_lib_localeC1EPKci) for __rw::__rw_use_c_lib_locale::__rw_use_c_lib_locale(const char*, int)
    vendor.o(i._ZN4__rw22__rw_digit_reader_base14_C_parse_floatEPKcS2_Pv) refers to char.o(i._ZN4__rw21__rw_use_c_lib_localeD1Ev) for __rw::__rw_use_c_lib_locale::~__rw_use_c_lib_locale()
    vendor.o(i._ZN4__rw22__rw_digit_reader_base14_C_parse_floatEPKcS2_Pv) refers to sscanf.o(.text) for sscanf
    vendor.o(i._ZN4__rw22__rw_digit_reader_base14_C_parse_floatEPKcS2_Pv) refers to array_del.o(i._ZdaPv) for operator delete[] (void*)
    vendor.o(i._ZN4__rw22__rw_digit_reader_base14_C_parse_floatEPKcS2_Pv) refers to locale.o(.constdata) for __rw::__rw_digit_map_base::_C_digit_chars
    vendor.o(i._ZN4__rw22__rw_digit_reader_base8_C_parseEPKcPv) refers to vendor.o(i._ZN4__rw22__rw_digit_reader_base10_C_reallocERPcS1_Rj) for __rw::__rw_digit_reader_base::_C_realloc(char*&, char*, unsigned&)
    vendor.o(i._ZN4__rw22__rw_digit_reader_base8_C_parseEPKcPv) refers to sscanf.o(.text) for sscanf
    vendor.o(i._ZN4__rw22__rw_digit_reader_base8_C_parseEPKcPv) refers to array_del.o(i._ZdaPv) for operator delete[] (void*)
    vendor.o(i._ZN4__rw22__rw_digit_reader_base8_C_parseEPKcPv) refers to locale.o(.constdata) for __rw::__rw_digit_map_base::_C_digit_chars
    vendor.o(i._ZN4__rw22__rw_digit_reader_base8_C_parseEPKcm) refers to vendor.o(i._ZN4__rw22__rw_digit_reader_base16_C_parse_decimalEPKcS2_) for __rw::__rw_digit_reader_base::_C_parse_decimal(const char*, const char*)
    vendor.o(i._ZN4__rw22__rw_digit_reader_base8_C_parseEPKcy) refers to vendor.o(i._ZN4__rw22__rw_digit_reader_base10_C_reallocERPcS1_Rj) for __rw::__rw_digit_reader_base::_C_realloc(char*&, char*, unsigned&)
    vendor.o(i._ZN4__rw22__rw_digit_reader_base8_C_parseEPKcy) refers to strtoull.o(.text) for strtoull
    vendor.o(i._ZN4__rw22__rw_digit_reader_base8_C_parseEPKcy) refers to array_del.o(i._ZdaPv) for operator delete[] (void*)
    vendor.o(i._ZN4__rw22__rw_digit_writer_base11_C_digitizeEPKv) refers to sprintf.o(.text) for sprintf
    vendor.o(i._ZN4__rw22__rw_digit_writer_base11_C_digitizeEPKv) refers to rt_memmove_v6.o(.text) for __aeabi_memmove
    vendor.o(i._ZN4__rw22__rw_digit_writer_base11_C_digitizeEd) refers to _printf_pad.o(.text) for _printf_pre_padding
    vendor.o(i._ZN4__rw22__rw_digit_writer_base11_C_digitizeEd) refers to _printf_truncate.o(.text) for _printf_truncate_unsigned
    vendor.o(i._ZN4__rw22__rw_digit_writer_base11_C_digitizeEd) refers to _printf_percent.o(.ARM.Collect$$_printf_percent$$00000000) for _printf_percent
    vendor.o(i._ZN4__rw22__rw_digit_writer_base11_C_digitizeEd) refers to _printf_d.o(.ARM.Collect$$_printf_percent$$00000009) for _printf_d
    vendor.o(i._ZN4__rw22__rw_digit_writer_base11_C_digitizeEd) refers to _printf_i.o(.ARM.Collect$$_printf_percent$$00000008) for _printf_i
    vendor.o(i._ZN4__rw22__rw_digit_writer_base11_C_digitizeEd) refers to _printf_u.o(.ARM.Collect$$_printf_percent$$0000000A) for _printf_u
    vendor.o(i._ZN4__rw22__rw_digit_writer_base11_C_digitizeEd) refers to _printf_o.o(.ARM.Collect$$_printf_percent$$0000000B) for _printf_o
    vendor.o(i._ZN4__rw22__rw_digit_writer_base11_C_digitizeEd) refers to _printf_x.o(.ARM.Collect$$_printf_percent$$0000000C) for _printf_x
    vendor.o(i._ZN4__rw22__rw_digit_writer_base11_C_digitizeEd) refers to _printf_f.o(.ARM.Collect$$_printf_percent$$00000003) for _printf_f
    vendor.o(i._ZN4__rw22__rw_digit_writer_base11_C_digitizeEd) refers to _printf_e.o(.ARM.Collect$$_printf_percent$$00000004) for _printf_e
    vendor.o(i._ZN4__rw22__rw_digit_writer_base11_C_digitizeEd) refers to _printf_g.o(.ARM.Collect$$_printf_percent$$00000005) for _printf_g
    vendor.o(i._ZN4__rw22__rw_digit_writer_base11_C_digitizeEd) refers to _printf_c.o(.ARM.Collect$$_printf_percent$$00000013) for _printf_c
    vendor.o(i._ZN4__rw22__rw_digit_writer_base11_C_digitizeEd) refers to _printf_lc.o(.ARM.Collect$$_printf_percent$$00000015) for _printf_lc
    vendor.o(i._ZN4__rw22__rw_digit_writer_base11_C_digitizeEd) refers to _printf_a.o(.ARM.Collect$$_printf_percent$$00000006) for _printf_a
    vendor.o(i._ZN4__rw22__rw_digit_writer_base11_C_digitizeEd) refers to printf2.o(x$fpl$printf2) for _printf_fp_hex
    vendor.o(i._ZN4__rw22__rw_digit_writer_base11_C_digitizeEd) refers to _printf_dec.o(.text) for _printf_int_dec
    vendor.o(i._ZN4__rw22__rw_digit_writer_base11_C_digitizeEd) refers to _printf_oct_int_ll.o(.text) for _printf_longlong_oct
    vendor.o(i._ZN4__rw22__rw_digit_writer_base11_C_digitizeEd) refers to _printf_hex_int_ll_ptr.o(.text) for _printf_longlong_hex
    vendor.o(i._ZN4__rw22__rw_digit_writer_base11_C_digitizeEd) refers to printf1.o(x$fpl$printf1) for _printf_fp_dec
    vendor.o(i._ZN4__rw22__rw_digit_writer_base11_C_digitizeEd) refers to _printf_str.o(.text) for _printf_str
    vendor.o(i._ZN4__rw22__rw_digit_writer_base11_C_digitizeEd) refers to _printf_wctomb.o(.text) for _printf_wctomb
    vendor.o(i._ZN4__rw22__rw_digit_writer_base11_C_digitizeEd) refers to vendor.o(i._ZN4__rw22__rw_digit_writer_base16_C_get_f_patternEPcc) for __rw::__rw_digit_writer_base::_C_get_f_pattern(char*, char)
    vendor.o(i._ZN4__rw22__rw_digit_writer_base11_C_digitizeEd) refers to deqf.o(x$fpl$deqf) for __aeabi_cdcmpeq
    vendor.o(i._ZN4__rw22__rw_digit_writer_base11_C_digitizeEd) refers to dleqf.o(x$fpl$dleqf) for __aeabi_cdcmple
    vendor.o(i._ZN4__rw22__rw_digit_writer_base11_C_digitizeEd) refers to array_new.o(i._Znaj) for operator new[] (unsigned)
    vendor.o(i._ZN4__rw22__rw_digit_writer_base11_C_digitizeEd) refers to __2sprintf.o(.text) for __2sprintf
    vendor.o(i._ZN4__rw22__rw_digit_writer_base11_C_digitizeEe) refers to _printf_pad.o(.text) for _printf_pre_padding
    vendor.o(i._ZN4__rw22__rw_digit_writer_base11_C_digitizeEe) refers to _printf_truncate.o(.text) for _printf_truncate_unsigned
    vendor.o(i._ZN4__rw22__rw_digit_writer_base11_C_digitizeEe) refers to _printf_percent.o(.ARM.Collect$$_printf_percent$$00000000) for _printf_percent
    vendor.o(i._ZN4__rw22__rw_digit_writer_base11_C_digitizeEe) refers to _printf_d.o(.ARM.Collect$$_printf_percent$$00000009) for _printf_d
    vendor.o(i._ZN4__rw22__rw_digit_writer_base11_C_digitizeEe) refers to _printf_i.o(.ARM.Collect$$_printf_percent$$00000008) for _printf_i
    vendor.o(i._ZN4__rw22__rw_digit_writer_base11_C_digitizeEe) refers to _printf_u.o(.ARM.Collect$$_printf_percent$$0000000A) for _printf_u
    vendor.o(i._ZN4__rw22__rw_digit_writer_base11_C_digitizeEe) refers to _printf_o.o(.ARM.Collect$$_printf_percent$$0000000B) for _printf_o
    vendor.o(i._ZN4__rw22__rw_digit_writer_base11_C_digitizeEe) refers to _printf_x.o(.ARM.Collect$$_printf_percent$$0000000C) for _printf_x
    vendor.o(i._ZN4__rw22__rw_digit_writer_base11_C_digitizeEe) refers to _printf_f.o(.ARM.Collect$$_printf_percent$$00000003) for _printf_f
    vendor.o(i._ZN4__rw22__rw_digit_writer_base11_C_digitizeEe) refers to _printf_e.o(.ARM.Collect$$_printf_percent$$00000004) for _printf_e
    vendor.o(i._ZN4__rw22__rw_digit_writer_base11_C_digitizeEe) refers to _printf_g.o(.ARM.Collect$$_printf_percent$$00000005) for _printf_g
    vendor.o(i._ZN4__rw22__rw_digit_writer_base11_C_digitizeEe) refers to _printf_c.o(.ARM.Collect$$_printf_percent$$00000013) for _printf_c
    vendor.o(i._ZN4__rw22__rw_digit_writer_base11_C_digitizeEe) refers to _printf_lc.o(.ARM.Collect$$_printf_percent$$00000015) for _printf_lc
    vendor.o(i._ZN4__rw22__rw_digit_writer_base11_C_digitizeEe) refers to _printf_a.o(.ARM.Collect$$_printf_percent$$00000006) for _printf_a
    vendor.o(i._ZN4__rw22__rw_digit_writer_base11_C_digitizeEe) refers to printf2.o(x$fpl$printf2) for _printf_fp_hex
    vendor.o(i._ZN4__rw22__rw_digit_writer_base11_C_digitizeEe) refers to _printf_dec.o(.text) for _printf_int_dec
    vendor.o(i._ZN4__rw22__rw_digit_writer_base11_C_digitizeEe) refers to _printf_oct_int_ll.o(.text) for _printf_longlong_oct
    vendor.o(i._ZN4__rw22__rw_digit_writer_base11_C_digitizeEe) refers to _printf_hex_int_ll_ptr.o(.text) for _printf_longlong_hex
    vendor.o(i._ZN4__rw22__rw_digit_writer_base11_C_digitizeEe) refers to printf1.o(x$fpl$printf1) for _printf_fp_dec
    vendor.o(i._ZN4__rw22__rw_digit_writer_base11_C_digitizeEe) refers to _printf_str.o(.text) for _printf_str
    vendor.o(i._ZN4__rw22__rw_digit_writer_base11_C_digitizeEe) refers to _printf_wctomb.o(.text) for _printf_wctomb
    vendor.o(i._ZN4__rw22__rw_digit_writer_base11_C_digitizeEe) refers to vendor.o(i._ZN4__rw22__rw_digit_writer_base16_C_get_f_patternEPcc) for __rw::__rw_digit_writer_base::_C_get_f_pattern(char*, char)
    vendor.o(i._ZN4__rw22__rw_digit_writer_base11_C_digitizeEe) refers to deqf.o(x$fpl$deqf) for __aeabi_cdcmpeq
    vendor.o(i._ZN4__rw22__rw_digit_writer_base11_C_digitizeEe) refers to dleqf.o(x$fpl$dleqf) for __aeabi_cdcmple
    vendor.o(i._ZN4__rw22__rw_digit_writer_base11_C_digitizeEe) refers to array_new.o(i._Znaj) for operator new[] (unsigned)
    vendor.o(i._ZN4__rw22__rw_digit_writer_base11_C_digitizeEe) refers to __2sprintf.o(.text) for __2sprintf
    vendor.o(i._ZN4__rw22__rw_digit_writer_base11_C_digitizeEmbPKc) refers to _printf_pad.o(.text) for _printf_pre_padding
    vendor.o(i._ZN4__rw22__rw_digit_writer_base11_C_digitizeEmbPKc) refers to _printf_truncate.o(.text) for _printf_truncate_unsigned
    vendor.o(i._ZN4__rw22__rw_digit_writer_base11_C_digitizeEmbPKc) refers to _printf_percent.o(.ARM.Collect$$_printf_percent$$00000000) for _printf_percent
    vendor.o(i._ZN4__rw22__rw_digit_writer_base11_C_digitizeEmbPKc) refers to _printf_d.o(.ARM.Collect$$_printf_percent$$00000009) for _printf_d
    vendor.o(i._ZN4__rw22__rw_digit_writer_base11_C_digitizeEmbPKc) refers to _printf_i.o(.ARM.Collect$$_printf_percent$$00000008) for _printf_i
    vendor.o(i._ZN4__rw22__rw_digit_writer_base11_C_digitizeEmbPKc) refers to _printf_u.o(.ARM.Collect$$_printf_percent$$0000000A) for _printf_u
    vendor.o(i._ZN4__rw22__rw_digit_writer_base11_C_digitizeEmbPKc) refers to _printf_o.o(.ARM.Collect$$_printf_percent$$0000000B) for _printf_o
    vendor.o(i._ZN4__rw22__rw_digit_writer_base11_C_digitizeEmbPKc) refers to _printf_x.o(.ARM.Collect$$_printf_percent$$0000000C) for _printf_x
    vendor.o(i._ZN4__rw22__rw_digit_writer_base11_C_digitizeEmbPKc) refers to _printf_c.o(.ARM.Collect$$_printf_percent$$00000013) for _printf_c
    vendor.o(i._ZN4__rw22__rw_digit_writer_base11_C_digitizeEmbPKc) refers to _printf_lc.o(.ARM.Collect$$_printf_percent$$00000015) for _printf_lc
    vendor.o(i._ZN4__rw22__rw_digit_writer_base11_C_digitizeEmbPKc) refers to _printf_dec.o(.text) for _printf_int_dec
    vendor.o(i._ZN4__rw22__rw_digit_writer_base11_C_digitizeEmbPKc) refers to _printf_oct_int_ll.o(.text) for _printf_longlong_oct
    vendor.o(i._ZN4__rw22__rw_digit_writer_base11_C_digitizeEmbPKc) refers to _printf_hex_int_ll_ptr.o(.text) for _printf_longlong_hex
    vendor.o(i._ZN4__rw22__rw_digit_writer_base11_C_digitizeEmbPKc) refers to _printf_str.o(.text) for _printf_str
    vendor.o(i._ZN4__rw22__rw_digit_writer_base11_C_digitizeEmbPKc) refers to _printf_wctomb.o(.text) for _printf_wctomb
    vendor.o(i._ZN4__rw22__rw_digit_writer_base11_C_digitizeEmbPKc) refers to vendor.o(i._ZN4__rw22__rw_digit_writer_base14_C_get_patternEPcPKcb) for __rw::__rw_digit_writer_base::_C_get_pattern(char*, const char*, bool)
    vendor.o(i._ZN4__rw22__rw_digit_writer_base11_C_digitizeEmbPKc) refers to __2sprintf.o(.text) for __2sprintf
    vendor.o(i._ZN4__rw22__rw_digit_writer_base11_C_digitizeEmbPKc) refers to vendor.o(i._ZN4__rw22__rw_digit_writer_base12_C_to_binaryEm) for __rw::__rw_digit_writer_base::_C_to_binary(unsigned long)
    vendor.o(i._ZN4__rw22__rw_digit_writer_base11_C_digitizeEyb) refers to _printf_pad.o(.text) for _printf_pre_padding
    vendor.o(i._ZN4__rw22__rw_digit_writer_base11_C_digitizeEyb) refers to _printf_truncate.o(.text) for _printf_truncate_unsigned
    vendor.o(i._ZN4__rw22__rw_digit_writer_base11_C_digitizeEyb) refers to _printf_percent.o(.ARM.Collect$$_printf_percent$$00000000) for _printf_percent
    vendor.o(i._ZN4__rw22__rw_digit_writer_base11_C_digitizeEyb) refers to _printf_d.o(.ARM.Collect$$_printf_percent$$00000009) for _printf_d
    vendor.o(i._ZN4__rw22__rw_digit_writer_base11_C_digitizeEyb) refers to _printf_i.o(.ARM.Collect$$_printf_percent$$00000008) for _printf_i
    vendor.o(i._ZN4__rw22__rw_digit_writer_base11_C_digitizeEyb) refers to _printf_u.o(.ARM.Collect$$_printf_percent$$0000000A) for _printf_u
    vendor.o(i._ZN4__rw22__rw_digit_writer_base11_C_digitizeEyb) refers to _printf_lld.o(.ARM.Collect$$_printf_percent$$0000000E) for _printf_lld
    vendor.o(i._ZN4__rw22__rw_digit_writer_base11_C_digitizeEyb) refers to _printf_lli.o(.ARM.Collect$$_printf_percent$$0000000D) for _printf_lli
    vendor.o(i._ZN4__rw22__rw_digit_writer_base11_C_digitizeEyb) refers to _printf_llu.o(.ARM.Collect$$_printf_percent$$0000000F) for _printf_llu
    vendor.o(i._ZN4__rw22__rw_digit_writer_base11_C_digitizeEyb) refers to _printf_o.o(.ARM.Collect$$_printf_percent$$0000000B) for _printf_o
    vendor.o(i._ZN4__rw22__rw_digit_writer_base11_C_digitizeEyb) refers to _printf_llo.o(.ARM.Collect$$_printf_percent$$00000010) for _printf_llo
    vendor.o(i._ZN4__rw22__rw_digit_writer_base11_C_digitizeEyb) refers to _printf_x.o(.ARM.Collect$$_printf_percent$$0000000C) for _printf_x
    vendor.o(i._ZN4__rw22__rw_digit_writer_base11_C_digitizeEyb) refers to _printf_llx.o(.ARM.Collect$$_printf_percent$$00000011) for _printf_llx
    vendor.o(i._ZN4__rw22__rw_digit_writer_base11_C_digitizeEyb) refers to _printf_c.o(.ARM.Collect$$_printf_percent$$00000013) for _printf_c
    vendor.o(i._ZN4__rw22__rw_digit_writer_base11_C_digitizeEyb) refers to _printf_lc.o(.ARM.Collect$$_printf_percent$$00000015) for _printf_lc
    vendor.o(i._ZN4__rw22__rw_digit_writer_base11_C_digitizeEyb) refers to _printf_dec.o(.text) for _printf_int_dec
    vendor.o(i._ZN4__rw22__rw_digit_writer_base11_C_digitizeEyb) refers to _printf_longlong_dec.o(.text) for _printf_longlong_dec
    vendor.o(i._ZN4__rw22__rw_digit_writer_base11_C_digitizeEyb) refers to _printf_oct_int_ll.o(.text) for _printf_longlong_oct
    vendor.o(i._ZN4__rw22__rw_digit_writer_base11_C_digitizeEyb) refers to _printf_hex_int_ll_ptr.o(.text) for _printf_longlong_hex
    vendor.o(i._ZN4__rw22__rw_digit_writer_base11_C_digitizeEyb) refers to _printf_str.o(.text) for _printf_str
    vendor.o(i._ZN4__rw22__rw_digit_writer_base11_C_digitizeEyb) refers to _printf_wctomb.o(.text) for _printf_wctomb
    vendor.o(i._ZN4__rw22__rw_digit_writer_base11_C_digitizeEyb) refers to vendor.o(i._ZN4__rw22__rw_digit_writer_base14_C_get_patternEPcPKcb) for __rw::__rw_digit_writer_base::_C_get_pattern(char*, const char*, bool)
    vendor.o(i._ZN4__rw22__rw_digit_writer_base11_C_digitizeEyb) refers to __2sprintf.o(.text) for __2sprintf
    vendor.o(i._ZN4__rw22__rw_digit_writer_base11_C_digitizeEyb) refers to vendor.o(i._ZN4__rw22__rw_digit_writer_base12_C_to_binaryEy) for __rw::__rw_digit_writer_base::_C_to_binary(unsigned long long)
    vendor.o(i._ZN4__rw22__rw_digit_writer_base12_C_to_binaryEy) refers to vendor.o(.data) for .data
    vendor.o(i._ZN4__rw22__rw_digit_writer_base12_C_to_binaryEy) refers to locale.o(.constdata) for __rw::__rw_digit_map_base::_C_digit_chars
    vendor.o(.ARM.exidx) refers to vendor.o(i._ZN4__rw15__rw_locale_imp15_C_map_categoryEi) for i._ZN4__rw15__rw_locale_imp15_C_map_categoryEi
    vendor.o(.ARM.exidx) refers to vendor.o(i._ZN4__rw15__rw_locale_imp13_C_parse_nameERNS_18__rw_locale_vectorISsEEPKc) for i._ZN4__rw15__rw_locale_imp13_C_parse_nameERNS_18__rw_locale_vectorISsEEPKc
    vendor.o(.ARM.exidx) refers to unwind_pr0.o(.text) for __aeabi_unwind_cpp_pr0
    vendor.o(.ARM.exidx) refers to vendor.o(.ARM.extab) for .extab._ZN4__rw15__rw_locale_imp13_C_parse_nameERNS_18__rw_locale_vectorISsEEPKc
    vendor.o(.ARM.exidx) refers to vendor.o(i._ZN4__rw15__rw_locale_imp13_C_parse_nameERNS_18__rw_locale_vectorISsEEPKc.clean) for i._ZN4__rw15__rw_locale_imp13_C_parse_nameERNS_18__rw_locale_vectorISsEEPKc.clean
    vendor.o(.ARM.exidx) refers to vendor.o(i._ZN4__rw22__rw_digit_reader_base16_C_parse_decimalEPKcS2_) for i._ZN4__rw22__rw_digit_reader_base16_C_parse_decimalEPKcS2_
    vendor.o(.ARM.exidx) refers to vendor.o(i._ZN4__rw22__rw_digit_reader_base8_C_parseEPKcm) for i._ZN4__rw22__rw_digit_reader_base8_C_parseEPKcm
    vendor.o(.ARM.exidx) refers to unwind_pr0.o(.text) for __aeabi_unwind_cpp_pr0
    vendor.o(.ARM.exidx) refers to vendor.o(i._ZN4__rw22__rw_digit_reader_base10_C_reallocERPcS1_Rj) for i._ZN4__rw22__rw_digit_reader_base10_C_reallocERPcS1_Rj
    vendor.o(.ARM.exidx) refers to unwind_pr0.o(.text) for __aeabi_unwind_cpp_pr0
    vendor.o(.ARM.exidx) refers to vendor.o(.ARM.extab) for .extab._ZN4__rw22__rw_digit_reader_base10_C_reallocERPcS1_Rj
    vendor.o(.ARM.exidx) refers to vendor.o(i._ZN4__rw22__rw_digit_reader_base10_C_reallocERPcS1_Rj.clean) for i._ZN4__rw22__rw_digit_reader_base10_C_reallocERPcS1_Rj.clean
    vendor.o(.ARM.exidx) refers to vendor.o(i._ZN4__rw22__rw_digit_reader_base8_C_parseEPKcy) for i._ZN4__rw22__rw_digit_reader_base8_C_parseEPKcy
    vendor.o(.ARM.exidx) refers to unwind_pr0.o(.text) for __aeabi_unwind_cpp_pr0
    vendor.o(.ARM.exidx) refers to vendor.o(i._ZN4__rw22__rw_digit_reader_base8_C_parseEPKcPv) for i._ZN4__rw22__rw_digit_reader_base8_C_parseEPKcPv
    vendor.o(.ARM.exidx) refers to unwind_pr0.o(.text) for __aeabi_unwind_cpp_pr0
    vendor.o(.ARM.exidx) refers to vendor.o(i._ZN4__rw22__rw_digit_reader_base14_C_parse_floatEPKcS2_Pv) for i._ZN4__rw22__rw_digit_reader_base14_C_parse_floatEPKcS2_Pv
    vendor.o(.ARM.exidx) refers to unwind_pr0.o(.text) for __aeabi_unwind_cpp_pr0
    vendor.o(.ARM.exidx) refers to vendor.o(i._ZN4__rw22__rw_digit_writer_base14_C_get_patternEPcPKcb) for i._ZN4__rw22__rw_digit_writer_base14_C_get_patternEPcPKcb
    vendor.o(.ARM.exidx) refers to vendor.o(i._ZN4__rw22__rw_digit_writer_base16_C_get_f_patternEPcc) for i._ZN4__rw22__rw_digit_writer_base16_C_get_f_patternEPcc
    vendor.o(.ARM.exidx) refers to vendor.o(i._ZN4__rw22__rw_digit_writer_base12_C_to_binaryEm) for i._ZN4__rw22__rw_digit_writer_base12_C_to_binaryEm
    vendor.o(.ARM.exidx) refers to vendor.o(i._ZN4__rw22__rw_digit_writer_base11_C_digitizeEmbPKc) for i._ZN4__rw22__rw_digit_writer_base11_C_digitizeEmbPKc
    vendor.o(.ARM.exidx) refers to unwind_pr0.o(.text) for __aeabi_unwind_cpp_pr0
    vendor.o(.ARM.exidx) refers to vendor.o(i._ZN4__rw22__rw_digit_writer_base11_C_digitizeEPKv) for i._ZN4__rw22__rw_digit_writer_base11_C_digitizeEPKv
    vendor.o(.ARM.exidx) refers to vendor.o(i._ZN4__rw22__rw_digit_writer_base12_C_to_binaryEy) for i._ZN4__rw22__rw_digit_writer_base12_C_to_binaryEy
    vendor.o(.ARM.exidx) refers to vendor.o(i._ZN4__rw22__rw_digit_writer_base11_C_digitizeEyb) for i._ZN4__rw22__rw_digit_writer_base11_C_digitizeEyb
    vendor.o(.ARM.exidx) refers to unwind_pr0.o(.text) for __aeabi_unwind_cpp_pr0
    vendor.o(.ARM.exidx) refers to vendor.o(i._ZN4__rw22__rw_digit_writer_base11_C_digitizeEd) for i._ZN4__rw22__rw_digit_writer_base11_C_digitizeEd
    vendor.o(.ARM.exidx) refers to unwind_pr0.o(.text) for __aeabi_unwind_cpp_pr0
    vendor.o(.ARM.exidx) refers to vendor.o(i._ZN4__rw22__rw_digit_writer_base11_C_digitizeEe) for i._ZN4__rw22__rw_digit_writer_base11_C_digitizeEe
    vendor.o(.ARM.exidx) refers to unwind_pr0.o(.text) for __aeabi_unwind_cpp_pr0
    vendor.o(.ARM.exidx) refers to vendor.o(i._ZN4__rw22__rw_digit_writer_base14_C_calc_groupsEiPKc) for i._ZN4__rw22__rw_digit_writer_base14_C_calc_groupsEiPKc
    vendor.o(.ARM.extab) refers to vendor.o(i._ZN4__rw15__rw_locale_imp13_C_parse_nameERNS_18__rw_locale_vectorISsEEPKc.clean) for i._ZN4__rw15__rw_locale_imp13_C_parse_nameERNS_18__rw_locale_vectorISsEEPKc.clean
    vendor.o(.ARM.extab) refers to vendor.o(i._ZN4__rw22__rw_digit_reader_base10_C_reallocERPcS1_Rj) for i._ZN4__rw22__rw_digit_reader_base10_C_reallocERPcS1_Rj
    vendor.o(.ARM.extab) refers to vendor.o(i._ZN4__rw22__rw_digit_reader_base10_C_reallocERPcS1_Rj.clean) for i._ZN4__rw22__rw_digit_reader_base10_C_reallocERPcS1_Rj.clean
    array_del.o(i._ZdaPv) refers to delete.o(i._ZdlPv) for operator delete (void*)
    array_del.o(.ARM.exidx) refers to array_del.o(i._ZdaPv) for i._ZdaPv
    array_new.o(i._Znaj) refers to new.o(i._Znwj) for operator new(unsigned)
    array_new.o(.ARM.exidx) refers to array_new.o(i._Znaj) for i._Znaj
    array_new.o(.ARM.exidx) refers to unwind_pr0.o(.text) for __aeabi_unwind_cpp_pr0
    array_new.o(.ARM.exidx) refers to array_new.o(.ARM.extab) for .extab._Znaj
    array_new.o(.ARM.extab) refers to arm_callunex_noexceptions.o(.text) for __cxa_call_unexpected
    array_new.o(.ARM.extab) refers to bad_alloc_dtor.o(.constdata__ZTISt9bad_alloc) for typeinfo for std::bad_alloc
    delete.o(i._ZdlPv) refers to h1_free.o(.text) for free
    delete.o(.ARM.exidx) refers to delete.o(i._ZdlPv) for i._ZdlPv
    new.o(i._Znwj) refers to rt_new_handler_addr_intlibspace.o(.text) for __rt_new_handler_addr
    new.o(i._Znwj) refers to h1_alloc.o(.text) for malloc
    new.o(i._Znwj) refers to arm_newhandler_noexceptions.o(.text) for __default_new_handler()
    new.o(.ARM.exidx) refers to new.o(i._Znwj) for i._Znwj
    new.o(.ARM.exidx) refers to unwind_pr0.o(.text) for __aeabi_unwind_cpp_pr0
    new.o(.ARM.exidx) refers to new.o(.ARM.extab) for .extab._Znwj
    new.o(.ARM.extab) refers to arm_callunex_noexceptions.o(.text) for __cxa_call_unexpected
    new.o(.ARM.extab) refers to bad_alloc_dtor.o(.constdata__ZTISt9bad_alloc) for typeinfo for std::bad_alloc
    cxa_guard_acquire.o(.ARM.exidx) refers to cxa_guard_acquire.o(i.__cxa_guard_acquire) for i.__cxa_guard_acquire
    cxa_guard_release.o(.ARM.exidx) refers to cxa_guard_release.o(i.__cxa_guard_release) for i.__cxa_guard_release
    lib_rtti_impl.o(i._ZN10__cxxabiv116__enum_type_infoD0Ev) refers to lib_rtti_impl.o(i._ZN10__cxxabiv116__enum_type_infoD1Ev) for __cxxabiv1::__enum_type_info::~__enum_type_info()
    lib_rtti_impl.o(i._ZN10__cxxabiv117__array_type_infoD0Ev) refers to lib_rtti_impl.o(i._ZN10__cxxabiv117__array_type_infoD1Ev) for __cxxabiv1::__array_type_info::~__array_type_info()
    lib_rtti_impl.o(i._ZN10__cxxabiv117__class_type_infoD0Ev) refers to lib_rtti_impl.o(i._ZN10__cxxabiv117__class_type_infoD1Ev) for __cxxabiv1::__class_type_info::~__class_type_info()
    lib_rtti_impl.o(i._ZN10__cxxabiv117__pbase_type_infoD0Ev) refers to lib_rtti_impl.o(i._ZN10__cxxabiv117__pbase_type_infoD1Ev) for __cxxabiv1::__pbase_type_info::~__pbase_type_info()
    lib_rtti_impl.o(i._ZN10__cxxabiv119__pointer_type_infoD0Ev) refers to lib_rtti_impl.o(i._ZN10__cxxabiv119__pointer_type_infoD1Ev) for __cxxabiv1::__pointer_type_info::~__pointer_type_info()
    lib_rtti_impl.o(i._ZN10__cxxabiv119__pointer_type_infoD1Ev) refers to lib_rtti_impl.o(i._ZN10__cxxabiv117__pbase_type_infoD1Ev) for __cxxabiv1::__pbase_type_info::~__pbase_type_info()
    lib_rtti_impl.o(i._ZN10__cxxabiv120__function_type_infoD0Ev) refers to lib_rtti_impl.o(i._ZN10__cxxabiv120__function_type_infoD1Ev) for __cxxabiv1::__function_type_info::~__function_type_info()
    lib_rtti_impl.o(i._ZN10__cxxabiv120__si_class_type_infoD0Ev) refers to lib_rtti_impl.o(i._ZN10__cxxabiv120__si_class_type_infoD1Ev) for __cxxabiv1::__si_class_type_info::~__si_class_type_info()
    lib_rtti_impl.o(i._ZN10__cxxabiv120__si_class_type_infoD1Ev) refers to lib_rtti_impl.o(i._ZN10__cxxabiv117__class_type_infoD1Ev) for __cxxabiv1::__class_type_info::~__class_type_info()
    lib_rtti_impl.o(i._ZN10__cxxabiv121__vmi_class_type_infoD0Ev) refers to lib_rtti_impl.o(i._ZN10__cxxabiv121__vmi_class_type_infoD1Ev) for __cxxabiv1::__vmi_class_type_info::~__vmi_class_type_info()
    lib_rtti_impl.o(i._ZN10__cxxabiv121__vmi_class_type_infoD1Ev) refers to lib_rtti_impl.o(i._ZN10__cxxabiv117__class_type_infoD1Ev) for __cxxabiv1::__class_type_info::~__class_type_info()
    lib_rtti_impl.o(i._ZN10__cxxabiv123__fundamental_type_infoD0Ev) refers to lib_rtti_impl.o(i._ZN10__cxxabiv123__fundamental_type_infoD1Ev) for __cxxabiv1::__fundamental_type_info::~__fundamental_type_info()
    lib_rtti_impl.o(i._ZN10__cxxabiv129__pointer_to_member_type_infoD0Ev) refers to lib_rtti_impl.o(i._ZN10__cxxabiv129__pointer_to_member_type_infoD1Ev) for __cxxabiv1::__pointer_to_member_type_info::~__pointer_to_member_type_info()
    lib_rtti_impl.o(i._ZN10__cxxabiv129__pointer_to_member_type_infoD1Ev) refers to lib_rtti_impl.o(i._ZN10__cxxabiv117__pbase_type_infoD1Ev) for __cxxabiv1::__pbase_type_info::~__pbase_type_info()
    lib_rtti_impl.o(.ARM.exidx) refers to lib_rtti_impl.o(i._ZN10__cxxabiv123__fundamental_type_infoD1Ev) for i._ZN10__cxxabiv123__fundamental_type_infoD1Ev
    lib_rtti_impl.o(.ARM.exidx) refers to lib_rtti_impl.o(i._ZN10__cxxabiv123__fundamental_type_infoD0Ev) for i._ZN10__cxxabiv123__fundamental_type_infoD0Ev
    lib_rtti_impl.o(.ARM.exidx) refers to lib_rtti_impl.o(i._ZN10__cxxabiv117__array_type_infoD1Ev) for i._ZN10__cxxabiv117__array_type_infoD1Ev
    lib_rtti_impl.o(.ARM.exidx) refers to lib_rtti_impl.o(i._ZN10__cxxabiv117__array_type_infoD0Ev) for i._ZN10__cxxabiv117__array_type_infoD0Ev
    lib_rtti_impl.o(.ARM.exidx) refers to lib_rtti_impl.o(i._ZN10__cxxabiv120__function_type_infoD1Ev) for i._ZN10__cxxabiv120__function_type_infoD1Ev
    lib_rtti_impl.o(.ARM.exidx) refers to lib_rtti_impl.o(i._ZN10__cxxabiv120__function_type_infoD0Ev) for i._ZN10__cxxabiv120__function_type_infoD0Ev
    lib_rtti_impl.o(.ARM.exidx) refers to lib_rtti_impl.o(i._ZN10__cxxabiv116__enum_type_infoD1Ev) for i._ZN10__cxxabiv116__enum_type_infoD1Ev
    lib_rtti_impl.o(.ARM.exidx) refers to lib_rtti_impl.o(i._ZN10__cxxabiv116__enum_type_infoD0Ev) for i._ZN10__cxxabiv116__enum_type_infoD0Ev
    lib_rtti_impl.o(.ARM.exidx) refers to lib_rtti_impl.o(i._ZN10__cxxabiv117__class_type_infoD1Ev) for i._ZN10__cxxabiv117__class_type_infoD1Ev
    lib_rtti_impl.o(.ARM.exidx) refers to lib_rtti_impl.o(i._ZN10__cxxabiv117__class_type_infoD0Ev) for i._ZN10__cxxabiv117__class_type_infoD0Ev
    lib_rtti_impl.o(.ARM.exidx) refers to lib_rtti_impl.o(i._ZN10__cxxabiv120__si_class_type_infoD1Ev) for i._ZN10__cxxabiv120__si_class_type_infoD1Ev
    lib_rtti_impl.o(.ARM.exidx) refers to lib_rtti_impl.o(i._ZN10__cxxabiv120__si_class_type_infoD0Ev) for i._ZN10__cxxabiv120__si_class_type_infoD0Ev
    lib_rtti_impl.o(.ARM.exidx) refers to lib_rtti_impl.o(i._ZN10__cxxabiv121__vmi_class_type_infoD1Ev) for i._ZN10__cxxabiv121__vmi_class_type_infoD1Ev
    lib_rtti_impl.o(.ARM.exidx) refers to lib_rtti_impl.o(i._ZN10__cxxabiv121__vmi_class_type_infoD0Ev) for i._ZN10__cxxabiv121__vmi_class_type_infoD0Ev
    lib_rtti_impl.o(.ARM.exidx) refers to lib_rtti_impl.o(i._ZN10__cxxabiv117__pbase_type_infoD1Ev) for i._ZN10__cxxabiv117__pbase_type_infoD1Ev
    lib_rtti_impl.o(.ARM.exidx) refers to lib_rtti_impl.o(i._ZN10__cxxabiv117__pbase_type_infoD0Ev) for i._ZN10__cxxabiv117__pbase_type_infoD0Ev
    lib_rtti_impl.o(.ARM.exidx) refers to lib_rtti_impl.o(i._ZN10__cxxabiv119__pointer_type_infoD1Ev) for i._ZN10__cxxabiv119__pointer_type_infoD1Ev
    lib_rtti_impl.o(.ARM.exidx) refers to lib_rtti_impl.o(i._ZN10__cxxabiv119__pointer_type_infoD0Ev) for i._ZN10__cxxabiv119__pointer_type_infoD0Ev
    lib_rtti_impl.o(.ARM.exidx) refers to lib_rtti_impl.o(i._ZN10__cxxabiv129__pointer_to_member_type_infoD1Ev) for i._ZN10__cxxabiv129__pointer_to_member_type_infoD1Ev
    lib_rtti_impl.o(.ARM.exidx) refers to lib_rtti_impl.o(i._ZN10__cxxabiv129__pointer_to_member_type_infoD0Ev) for i._ZN10__cxxabiv129__pointer_to_member_type_infoD0Ev
    __rtentry.o(.ARM.Collect$$rtentry$$00000000) refers (Special) to __rtentry2.o(.ARM.Collect$$rtentry$$0000000A) for __rt_entry_li
    __rtentry.o(.ARM.Collect$$rtentry$$00000000) refers (Special) to __rtentry2.o(.ARM.Collect$$rtentry$$0000000D) for __rt_entry_main
    __rtentry.o(.ARM.Collect$$rtentry$$00000000) refers (Special) to __rtentry2.o(.ARM.Collect$$rtentry$$0000000C) for __rt_entry_postli_1
    __rtentry.o(.ARM.Collect$$rtentry$$00000000) refers (Special) to __rtentry2.o(.ARM.Collect$$rtentry$$00000009) for __rt_entry_postsh_1
    __rtentry.o(.ARM.Collect$$rtentry$$00000000) refers (Special) to __rtentry2.o(.ARM.Collect$$rtentry$$00000002) for __rt_entry_presh_1
    __rtentry.o(.ARM.Collect$$rtentry$$00000000) refers (Special) to __rtentry4.o(.ARM.Collect$$rtentry$$00000004) for __rt_entry_sh
    rt_ctype_table.o(.text) refers to rt_locale_intlibspace.o(.text) for __rt_locale
    rt_ctype_table.o(.text) refers to lc_ctype_c.o(locale$$code) for _get_lc_ctype
    rt_new_handler_addr.o(.text) refers to rt_new_handler_addr.o(.bss) for __rt_new_handler_addr_data
    rt_new_handler_addr_intlibspace.o(.text) refers to libspace.o(.bss) for __libspace_start
    rt_ddtor_pointer_addr.o(.text) refers to rt_ddtor_pointer_addr.o(.bss) for __rt_ddtor_pointer_addr_data
    rt_ddtor_pointer_addr_intlibspace.o(.text) refers to libspace.o(.bss) for __libspace_start
    malloc.o(.text) refers (Special) to hguard.o(.text) for __heap$guard
    malloc.o(.text) refers (Special) to init_alloc.o(.text) for _init_alloc
    malloc.o(.text) refers to rt_heap_descriptor_intlibspace.o(.text) for __rt_heap_descriptor
    malloc.o(.text) refers to heapstubs.o(.text) for __Heap_Alloc
    free.o(.text) refers (Special) to hguard.o(.text) for __heap$guard
    free.o(.text) refers to rt_heap_descriptor_intlibspace.o(.text) for __rt_heap_descriptor
    free.o(.text) refers to heapstubs.o(.text) for __Heap_Free
    h1_alloc.o(.text) refers (Special) to h1_init.o(.text) for __Heap_Initialize
    h1_alloc.o(.text) refers to rt_heap_descriptor_intlibspace.o(.text) for __rt_heap_descriptor
    h1_alloc.o(.text) refers to init_alloc.o(.text) for __Heap_Full
    h1_free.o(.text) refers to rt_heap_descriptor_intlibspace.o(.text) for __rt_heap_descriptor
    h1_alloc_mt.o(.text) refers (Special) to h1_init.o(.text) for __Heap_Initialize
    h1_alloc_mt.o(.text) refers to init_alloc.o(.text) for __Heap_Full
    h1_alloc_mt.o(.text) refers to rt_heap_descriptor_intlibspace.o(.text) for __rt_heap_descriptor
    h1_free_mt.o(.text) refers to rt_heap_descriptor_intlibspace.o(.text) for __rt_heap_descriptor
    heap2.o(i._FDIterate) refers to heap2.o(.conststring) for .conststring
    heap2.o(i.___Heap_ProvideMemory$realtime) refers to fdtree.o(i._FDTree_Delete) for _FDTree_Delete
    heap2.o(i.___Heap_ProvideMemory$realtime) refers to fdtree.o(i._FDTree_Insert) for _FDTree_Insert
    heap2.o(i.___Heap_Stats$realtime) refers to heap2.o(i._Heap2_StatsIterate) for _Heap2_StatsIterate
    heap2.o(i.___Heap_Valid$realtime) refers to heap2.o(i._FDIterate) for _FDIterate
    heap2.o(i.___Heap_Valid$realtime) refers to heap2.o(.conststring) for .conststring
    heap2.o(i._free$realtime) refers to rt_heap_descriptor_intlibspace.o(.text) for __rt_heap_descriptor
    heap2.o(i._free$realtime) refers to fdtree.o(i._FDTree_Delete) for _FDTree_Delete
    heap2.o(i._free$realtime) refers to fdtree.o(i._FDTree_Insert) for _FDTree_Insert
    heap2.o(i._malloc$realtime) refers to rt_heap_descriptor_intlibspace.o(.text) for __rt_heap_descriptor
    heap2.o(i._malloc$realtime) refers to fdtree.o(i._FDTree_FindFirst) for _FDTree_FindFirst
    heap2.o(i._malloc$realtime) refers to init_alloc.o(.text) for __Heap_Full
    heap2.o(i._malloc$realtime) refers to fdtree.o(i._FDTree_RemoveNode) for _FDTree_RemoveNode
    heap2.o(i._malloc$realtime) refers to fdtree.o(i._FDTree_Insert) for _FDTree_Insert
    heap2.o(i._posix_memalign$realtime) refers to rt_heap_descriptor_intlibspace.o(.text) for __rt_heap_descriptor
    heap2.o(i._posix_memalign$realtime) refers to fdtree.o(i._FDTree_FindFirst) for _FDTree_FindFirst
    heap2.o(i._posix_memalign$realtime) refers to init_alloc.o(.text) for __Heap_Full
    heap2.o(i._posix_memalign$realtime) refers to fdtree.o(i._FDTree_RemoveNode) for _FDTree_RemoveNode
    heap2.o(i._posix_memalign$realtime) refers to fdtree.o(i._FDTree_Insert) for _FDTree_Insert
    heap2.o(i._realloc$realtime) refers to rt_heap_descriptor_intlibspace.o(.text) for __rt_heap_descriptor
    heap2.o(i._realloc$realtime) refers to fdtree.o(i._FDTree_Insert) for _FDTree_Insert
    heap2.o(i._realloc$realtime) refers to h1_free.o(.text) for free
    heap2.o(i._realloc$realtime) refers to h1_alloc.o(.text) for malloc
    heap2.o(i._realloc$realtime) refers to fdtree.o(i._FDTree_Delete) for _FDTree_Delete
    heap2.o(i._realloc$realtime) refers to rt_memcpy_w.o(.text) for __aeabi_memcpy4
    heap2mt.o(i._FDIterate) refers to heap2mt.o(.conststring) for .conststring
    heap2mt.o(i.___Heap_Initialize$realtime$concurrent) refers to mutex_dummy.o(.text) for _mutex_initialize
    heap2mt.o(i.___Heap_ProvideMemory$realtime$concurrent) refers to fdtree.o(i._FDTree_Delete) for _FDTree_Delete
    heap2mt.o(i.___Heap_ProvideMemory$realtime$concurrent) refers to fdtree.o(i._FDTree_Insert) for _FDTree_Insert
    heap2mt.o(i.___Heap_Stats$realtime$concurrent) refers to heap2mt.o(i._Heap2_StatsIterate) for _Heap2_StatsIterate
    heap2mt.o(i.___Heap_Valid$realtime$concurrent) refers to heap2mt.o(i._FDIterate) for _FDIterate
    heap2mt.o(i.___Heap_Valid$realtime$concurrent) refers to heap2mt.o(.conststring) for .conststring
    heap2mt.o(i._free$realtime$concurrent) refers to rt_heap_descriptor_intlibspace.o(.text) for __rt_heap_descriptor
    heap2mt.o(i._free$realtime$concurrent) refers to fdtree.o(i._FDTree_Delete) for _FDTree_Delete
    heap2mt.o(i._free$realtime$concurrent) refers to fdtree.o(i._FDTree_Insert) for _FDTree_Insert
    heap2mt.o(i._malloc$realtime$concurrent) refers to rt_heap_descriptor_intlibspace.o(.text) for __rt_heap_descriptor
    heap2mt.o(i._malloc$realtime$concurrent) refers to fdtree.o(i._FDTree_FindFirst) for _FDTree_FindFirst
    heap2mt.o(i._malloc$realtime$concurrent) refers to init_alloc.o(.text) for __Heap_Full
    heap2mt.o(i._malloc$realtime$concurrent) refers to fdtree.o(i._FDTree_RemoveNode) for _FDTree_RemoveNode
    heap2mt.o(i._malloc$realtime$concurrent) refers to fdtree.o(i._FDTree_Insert) for _FDTree_Insert
    heap2mt.o(i._posix_memalign$realtime$concurrent) refers to rt_heap_descriptor_intlibspace.o(.text) for __rt_heap_descriptor
    heap2mt.o(i._posix_memalign$realtime$concurrent) refers to fdtree.o(i._FDTree_FindFirst) for _FDTree_FindFirst
    heap2mt.o(i._posix_memalign$realtime$concurrent) refers to init_alloc.o(.text) for __Heap_Full
    heap2mt.o(i._posix_memalign$realtime$concurrent) refers to fdtree.o(i._FDTree_RemoveNode) for _FDTree_RemoveNode
    heap2mt.o(i._posix_memalign$realtime$concurrent) refers to fdtree.o(i._FDTree_Insert) for _FDTree_Insert
    heap2mt.o(i._realloc$realtime$concurrent) refers to rt_heap_descriptor_intlibspace.o(.text) for __rt_heap_descriptor
    heap2mt.o(i._realloc$realtime$concurrent) refers to fdtree.o(i._FDTree_Insert) for _FDTree_Insert
    heap2mt.o(i._realloc$realtime$concurrent) refers to h1_free.o(.text) for free
    heap2mt.o(i._realloc$realtime$concurrent) refers to h1_alloc.o(.text) for malloc
    heap2mt.o(i._realloc$realtime$concurrent) refers to fdtree.o(i._FDTree_Delete) for _FDTree_Delete
    heap2mt.o(i._realloc$realtime$concurrent) refers to rt_memcpy_w.o(.text) for __aeabi_memcpy4
    fprintf.o(.text) refers (Special) to _printf_a.o(.ARM.Collect$$_printf_percent$$00000006) for _printf_a
    fprintf.o(.text) refers (Special) to _printf_c.o(.ARM.Collect$$_printf_percent$$00000013) for _printf_c
    fprintf.o(.text) refers (Special) to _printf_charcount.o(.text) for _printf_charcount
    fprintf.o(.text) refers (Special) to _printf_d.o(.ARM.Collect$$_printf_percent$$00000009) for _printf_d
    fprintf.o(.text) refers (Special) to _printf_e.o(.ARM.Collect$$_printf_percent$$00000004) for _printf_e
    fprintf.o(.text) refers (Special) to _printf_f.o(.ARM.Collect$$_printf_percent$$00000003) for _printf_f
    fprintf.o(.text) refers (Special) to printf1.o(x$fpl$printf1) for _printf_fp_dec
    fprintf.o(.text) refers (Special) to printf2.o(x$fpl$printf2) for _printf_fp_hex
    fprintf.o(.text) refers (Special) to _printf_g.o(.ARM.Collect$$_printf_percent$$00000005) for _printf_g
    fprintf.o(.text) refers (Special) to _printf_i.o(.ARM.Collect$$_printf_percent$$00000008) for _printf_i
    fprintf.o(.text) refers (Special) to _printf_dec.o(.text) for _printf_int_dec
    fprintf.o(.text) refers (Special) to _printf_l.o(.ARM.Collect$$_printf_percent$$00000012) for _printf_l
    fprintf.o(.text) refers (Special) to _printf_lc.o(.ARM.Collect$$_printf_percent$$00000015) for _printf_lc
    fprintf.o(.text) refers (Special) to _printf_ll.o(.ARM.Collect$$_printf_percent$$00000007) for _printf_ll
    fprintf.o(.text) refers (Special) to _printf_lld.o(.ARM.Collect$$_printf_percent$$0000000E) for _printf_lld
    fprintf.o(.text) refers (Special) to _printf_lli.o(.ARM.Collect$$_printf_percent$$0000000D) for _printf_lli
    fprintf.o(.text) refers (Special) to _printf_llo.o(.ARM.Collect$$_printf_percent$$00000010) for _printf_llo
    fprintf.o(.text) refers (Special) to _printf_llu.o(.ARM.Collect$$_printf_percent$$0000000F) for _printf_llu
    fprintf.o(.text) refers (Special) to _printf_llx.o(.ARM.Collect$$_printf_percent$$00000011) for _printf_llx
    fprintf.o(.text) refers (Special) to _printf_longlong_dec.o(.text) for _printf_longlong_dec
    fprintf.o(.text) refers (Special) to _printf_hex_int_ll_ptr.o(.text) for _printf_longlong_hex
    fprintf.o(.text) refers (Special) to _printf_oct_int_ll.o(.text) for _printf_longlong_oct
    fprintf.o(.text) refers (Special) to _printf_ls.o(.ARM.Collect$$_printf_percent$$00000016) for _printf_ls
    fprintf.o(.text) refers (Special) to _printf_n.o(.ARM.Collect$$_printf_percent$$00000001) for _printf_n
    fprintf.o(.text) refers (Special) to _printf_o.o(.ARM.Collect$$_printf_percent$$0000000B) for _printf_o
    fprintf.o(.text) refers (Special) to _printf_p.o(.ARM.Collect$$_printf_percent$$00000002) for _printf_p
    fprintf.o(.text) refers (Special) to _printf_percent.o(.ARM.Collect$$_printf_percent$$00000000) for _printf_percent
    fprintf.o(.text) refers (Special) to _printf_pad.o(.text) for _printf_post_padding
    fprintf.o(.text) refers (Special) to _printf_s.o(.ARM.Collect$$_printf_percent$$00000014) for _printf_s
    fprintf.o(.text) refers (Special) to _printf_str.o(.text) for _printf_str
    fprintf.o(.text) refers (Special) to _printf_truncate.o(.text) for _printf_truncate_signed
    fprintf.o(.text) refers (Special) to _printf_u.o(.ARM.Collect$$_printf_percent$$0000000A) for _printf_u
    fprintf.o(.text) refers (Special) to _printf_wctomb.o(.text) for _printf_wctomb
    fprintf.o(.text) refers (Special) to _printf_x.o(.ARM.Collect$$_printf_percent$$0000000C) for _printf_x
    fprintf.o(.text) refers to _printf_char_file.o(.text) for _printf_char_file
    sprintf.o(.text) refers (Special) to _printf_a.o(.ARM.Collect$$_printf_percent$$00000006) for _printf_a
    sprintf.o(.text) refers (Special) to _printf_c.o(.ARM.Collect$$_printf_percent$$00000013) for _printf_c
    sprintf.o(.text) refers (Special) to _printf_charcount.o(.text) for _printf_charcount
    sprintf.o(.text) refers (Special) to _printf_d.o(.ARM.Collect$$_printf_percent$$00000009) for _printf_d
    sprintf.o(.text) refers (Special) to _printf_e.o(.ARM.Collect$$_printf_percent$$00000004) for _printf_e
    sprintf.o(.text) refers (Special) to _printf_f.o(.ARM.Collect$$_printf_percent$$00000003) for _printf_f
    sprintf.o(.text) refers (Special) to printf1.o(x$fpl$printf1) for _printf_fp_dec
    sprintf.o(.text) refers (Special) to printf2.o(x$fpl$printf2) for _printf_fp_hex
    sprintf.o(.text) refers (Special) to _printf_g.o(.ARM.Collect$$_printf_percent$$00000005) for _printf_g
    sprintf.o(.text) refers (Special) to _printf_i.o(.ARM.Collect$$_printf_percent$$00000008) for _printf_i
    sprintf.o(.text) refers (Special) to _printf_dec.o(.text) for _printf_int_dec
    sprintf.o(.text) refers (Special) to _printf_l.o(.ARM.Collect$$_printf_percent$$00000012) for _printf_l
    sprintf.o(.text) refers (Special) to _printf_lc.o(.ARM.Collect$$_printf_percent$$00000015) for _printf_lc
    sprintf.o(.text) refers (Special) to _printf_ll.o(.ARM.Collect$$_printf_percent$$00000007) for _printf_ll
    sprintf.o(.text) refers (Special) to _printf_lld.o(.ARM.Collect$$_printf_percent$$0000000E) for _printf_lld
    sprintf.o(.text) refers (Special) to _printf_lli.o(.ARM.Collect$$_printf_percent$$0000000D) for _printf_lli
    sprintf.o(.text) refers (Special) to _printf_llo.o(.ARM.Collect$$_printf_percent$$00000010) for _printf_llo
    sprintf.o(.text) refers (Special) to _printf_llu.o(.ARM.Collect$$_printf_percent$$0000000F) for _printf_llu
    sprintf.o(.text) refers (Special) to _printf_llx.o(.ARM.Collect$$_printf_percent$$00000011) for _printf_llx
    sprintf.o(.text) refers (Special) to _printf_longlong_dec.o(.text) for _printf_longlong_dec
    sprintf.o(.text) refers (Special) to _printf_hex_int_ll_ptr.o(.text) for _printf_longlong_hex
    sprintf.o(.text) refers (Special) to _printf_oct_int_ll.o(.text) for _printf_longlong_oct
    sprintf.o(.text) refers (Special) to _printf_ls.o(.ARM.Collect$$_printf_percent$$00000016) for _printf_ls
    sprintf.o(.text) refers (Special) to _printf_n.o(.ARM.Collect$$_printf_percent$$00000001) for _printf_n
    sprintf.o(.text) refers (Special) to _printf_o.o(.ARM.Collect$$_printf_percent$$0000000B) for _printf_o
    sprintf.o(.text) refers (Special) to _printf_p.o(.ARM.Collect$$_printf_percent$$00000002) for _printf_p
    sprintf.o(.text) refers (Special) to _printf_percent.o(.ARM.Collect$$_printf_percent$$00000000) for _printf_percent
    sprintf.o(.text) refers (Special) to _printf_pad.o(.text) for _printf_post_padding
    sprintf.o(.text) refers (Special) to _printf_s.o(.ARM.Collect$$_printf_percent$$00000014) for _printf_s
    sprintf.o(.text) refers (Special) to _printf_str.o(.text) for _printf_str
    sprintf.o(.text) refers (Special) to _printf_truncate.o(.text) for _printf_truncate_signed
    sprintf.o(.text) refers (Special) to _printf_u.o(.ARM.Collect$$_printf_percent$$0000000A) for _printf_u
    sprintf.o(.text) refers (Special) to _printf_wctomb.o(.text) for _printf_wctomb
    sprintf.o(.text) refers (Special) to _printf_x.o(.ARM.Collect$$_printf_percent$$0000000C) for _printf_x
    sprintf.o(.text) refers to _printf_char_common.o(.text) for _printf_char_common
    sprintf.o(.text) refers to _sputc.o(.text) for _sputc
    vsnprintf.o(.text) refers (Special) to _printf_a.o(.ARM.Collect$$_printf_percent$$00000006) for _printf_a
    vsnprintf.o(.text) refers (Special) to _printf_c.o(.ARM.Collect$$_printf_percent$$00000013) for _printf_c
    vsnprintf.o(.text) refers (Special) to _printf_charcount.o(.text) for _printf_charcount
    vsnprintf.o(.text) refers (Special) to _printf_d.o(.ARM.Collect$$_printf_percent$$00000009) for _printf_d
    vsnprintf.o(.text) refers (Special) to _printf_e.o(.ARM.Collect$$_printf_percent$$00000004) for _printf_e
    vsnprintf.o(.text) refers (Special) to _printf_f.o(.ARM.Collect$$_printf_percent$$00000003) for _printf_f
    vsnprintf.o(.text) refers (Special) to printf1.o(x$fpl$printf1) for _printf_fp_dec
    vsnprintf.o(.text) refers (Special) to printf2.o(x$fpl$printf2) for _printf_fp_hex
    vsnprintf.o(.text) refers (Special) to _printf_g.o(.ARM.Collect$$_printf_percent$$00000005) for _printf_g
    vsnprintf.o(.text) refers (Special) to _printf_i.o(.ARM.Collect$$_printf_percent$$00000008) for _printf_i
    vsnprintf.o(.text) refers (Special) to _printf_dec.o(.text) for _printf_int_dec
    vsnprintf.o(.text) refers (Special) to _printf_l.o(.ARM.Collect$$_printf_percent$$00000012) for _printf_l
    vsnprintf.o(.text) refers (Special) to _printf_lc.o(.ARM.Collect$$_printf_percent$$00000015) for _printf_lc
    vsnprintf.o(.text) refers (Special) to _printf_ll.o(.ARM.Collect$$_printf_percent$$00000007) for _printf_ll
    vsnprintf.o(.text) refers (Special) to _printf_lld.o(.ARM.Collect$$_printf_percent$$0000000E) for _printf_lld
    vsnprintf.o(.text) refers (Special) to _printf_lli.o(.ARM.Collect$$_printf_percent$$0000000D) for _printf_lli
    vsnprintf.o(.text) refers (Special) to _printf_llo.o(.ARM.Collect$$_printf_percent$$00000010) for _printf_llo
    vsnprintf.o(.text) refers (Special) to _printf_llu.o(.ARM.Collect$$_printf_percent$$0000000F) for _printf_llu
    vsnprintf.o(.text) refers (Special) to _printf_llx.o(.ARM.Collect$$_printf_percent$$00000011) for _printf_llx
    vsnprintf.o(.text) refers (Special) to _printf_longlong_dec.o(.text) for _printf_longlong_dec
    vsnprintf.o(.text) refers (Special) to _printf_hex_int_ll_ptr.o(.text) for _printf_longlong_hex
    vsnprintf.o(.text) refers (Special) to _printf_oct_int_ll.o(.text) for _printf_longlong_oct
    vsnprintf.o(.text) refers (Special) to _printf_ls.o(.ARM.Collect$$_printf_percent$$00000016) for _printf_ls
    vsnprintf.o(.text) refers (Special) to _printf_n.o(.ARM.Collect$$_printf_percent$$00000001) for _printf_n
    vsnprintf.o(.text) refers (Special) to _printf_o.o(.ARM.Collect$$_printf_percent$$0000000B) for _printf_o
    vsnprintf.o(.text) refers (Special) to _printf_p.o(.ARM.Collect$$_printf_percent$$00000002) for _printf_p
    vsnprintf.o(.text) refers (Special) to _printf_percent.o(.ARM.Collect$$_printf_percent$$00000000) for _printf_percent
    vsnprintf.o(.text) refers (Special) to _printf_pad.o(.text) for _printf_post_padding
    vsnprintf.o(.text) refers (Special) to _printf_s.o(.ARM.Collect$$_printf_percent$$00000014) for _printf_s
    vsnprintf.o(.text) refers (Special) to _printf_str.o(.text) for _printf_str
    vsnprintf.o(.text) refers (Special) to _printf_truncate.o(.text) for _printf_truncate_signed
    vsnprintf.o(.text) refers (Special) to _printf_u.o(.ARM.Collect$$_printf_percent$$0000000A) for _printf_u
    vsnprintf.o(.text) refers (Special) to _printf_wctomb.o(.text) for _printf_wctomb
    vsnprintf.o(.text) refers (Special) to _printf_x.o(.ARM.Collect$$_printf_percent$$0000000C) for _printf_x
    vsnprintf.o(.text) refers to _printf_char_common.o(.text) for _printf_char_common
    vsnprintf.o(.text) refers to _sputc.o(.text) for _sputc
    vsnprintf.o(.text) refers to _snputc.o(.text) for _snputc
    __2sprintf.o(.text) refers to _printf_char_common.o(.text) for _printf_char_common
    __2sprintf.o(.text) refers to _sputc.o(.text) for _sputc
    noretval__2sprintf.o(.text) refers to _printf_char_common.o(.text) for _printf_char_common
    noretval__2sprintf.o(.text) refers to _sputc.o(.text) for _sputc
    __printf.o(.text) refers to _printf_percent.o(.ARM.Collect$$_printf_percent$$00000000) for _printf_percent
    _printf_str.o(.text) refers (Special) to _printf_char.o(.text) for _printf_cs_common
    _printf_str.o(.text) refers (Weak) to _printf_pad.o(.text) for _printf_pre_padding
    _printf_str.o(.text) refers (Weak) to _printf_pad.o(.text) for _printf_post_padding
    _printf_dec.o(.text) refers (Weak) to _printf_truncate.o(.text) for _printf_truncate_signed
    _printf_dec.o(.text) refers (Weak) to _printf_truncate.o(.text) for _printf_truncate_unsigned
    _printf_dec.o(.text) refers to _printf_intcommon.o(.text) for _printf_int_common
    _printf_wctomb.o(.text) refers (Special) to _printf_wchar.o(.text) for _printf_lcs_common
    _printf_wctomb.o(.text) refers to _wcrtomb.o(.text) for _wcrtomb
    _printf_wctomb.o(.text) refers (Weak) to _printf_pad.o(.text) for _printf_pre_padding
    _printf_wctomb.o(.text) refers (Weak) to _printf_pad.o(.text) for _printf_post_padding
    _printf_wctomb.o(.text) refers to _printf_wctomb.o(.constdata) for .constdata
    _printf_wctomb.o(.constdata) refers (Special) to _printf_wchar.o(.text) for _printf_lcs_common
    _printf_longlong_dec.o(.text) refers to lludiv10.o(.text) for _ll_udiv10
    _printf_longlong_dec.o(.text) refers to _printf_intcommon.o(.text) for _printf_int_common
    _printf_oct_ll.o(.text) refers to _printf_intcommon.o(.text) for _printf_int_common
    _printf_oct_int.o(.text) refers (Weak) to _printf_truncate.o(.text) for _printf_truncate_unsigned
    _printf_oct_int.o(.text) refers to _printf_intcommon.o(.text) for _printf_int_common
    _printf_oct_int_ll.o(.text) refers to _printf_intcommon.o(.text) for _printf_int_common
    _printf_oct_int_ll.o(.text) refers (Weak) to _printf_truncate.o(.text) for _printf_truncate_unsigned
    _printf_hex_ll.o(.text) refers to _printf_intcommon.o(.text) for _printf_int_common
    _printf_hex_ll.o(.text) refers to _printf_hex_ll.o(.constdata) for .constdata
    _printf_hex_int.o(.text) refers (Weak) to _printf_truncate.o(.text) for _printf_truncate_unsigned
    _printf_hex_int.o(.text) refers to _printf_intcommon.o(.text) for _printf_int_common
    _printf_hex_int.o(.text) refers to _printf_hex_int.o(.constdata) for .constdata
    _printf_hex_int_ll.o(.text) refers to _printf_intcommon.o(.text) for _printf_int_common
    _printf_hex_int_ll.o(.text) refers (Weak) to _printf_truncate.o(.text) for _printf_truncate_unsigned
    _printf_hex_int_ll.o(.text) refers to _printf_hex_int_ll.o(.constdata) for .constdata
    _printf_hex_ptr.o(.text) refers to _printf_intcommon.o(.text) for _printf_int_common
    _printf_hex_ptr.o(.text) refers to _printf_hex_ptr.o(.constdata) for .constdata
    _printf_hex_int_ptr.o(.text) refers to _printf_intcommon.o(.text) for _printf_int_common
    _printf_hex_int_ptr.o(.text) refers (Weak) to _printf_truncate.o(.text) for _printf_truncate_unsigned
    _printf_hex_int_ptr.o(.text) refers to _printf_hex_int_ptr.o(.constdata) for .constdata
    _printf_hex_ll_ptr.o(.text) refers to _printf_intcommon.o(.text) for _printf_int_common
    _printf_hex_ll_ptr.o(.text) refers to _printf_hex_ll_ptr.o(.constdata) for .constdata
    _printf_hex_int_ll_ptr.o(.text) refers to _printf_intcommon.o(.text) for _printf_int_common
    _printf_hex_int_ll_ptr.o(.text) refers (Weak) to _printf_truncate.o(.text) for _printf_truncate_unsigned
    _printf_hex_int_ll_ptr.o(.text) refers to _printf_hex_int_ll_ptr.o(.constdata) for .constdata
    __printf_flags.o(.text) refers to _printf_percent.o(.ARM.Collect$$_printf_percent$$00000000) for _printf_percent
    __printf_flags.o(.text) refers to __printf_flags.o(.constdata) for .constdata
    __printf_ss.o(.text) refers to _printf_percent.o(.ARM.Collect$$_printf_percent$$00000000) for _printf_percent
    __printf_flags_ss.o(.text) refers to _printf_percent.o(.ARM.Collect$$_printf_percent$$00000000) for _printf_percent
    __printf_flags_ss.o(.text) refers to __printf_flags_ss.o(.constdata) for .constdata
    __printf_wp.o(.text) refers to __printf_wp.o(i._is_digit) for _is_digit
    __printf_wp.o(.text) refers to _printf_percent.o(.ARM.Collect$$_printf_percent$$00000000) for _printf_percent
    __printf_flags_wp.o(.text) refers to __printf_wp.o(i._is_digit) for _is_digit
    __printf_flags_wp.o(.text) refers to _printf_percent.o(.ARM.Collect$$_printf_percent$$00000000) for _printf_percent
    __printf_flags_wp.o(.text) refers to __printf_flags_wp.o(.constdata) for .constdata
    __printf_ss_wp.o(.text) refers to __printf_wp.o(i._is_digit) for _is_digit
    __printf_ss_wp.o(.text) refers to _printf_percent.o(.ARM.Collect$$_printf_percent$$00000000) for _printf_percent
    __printf_flags_ss_wp.o(.text) refers to __printf_wp.o(i._is_digit) for _is_digit
    __printf_flags_ss_wp.o(.text) refers to _printf_percent.o(.ARM.Collect$$_printf_percent$$00000000) for _printf_percent
    __printf_flags_ss_wp.o(.text) refers to __printf_flags_ss_wp.o(.constdata) for .constdata
    _printf_c.o(.ARM.Collect$$_printf_percent$$00000013) refers (Weak) to _printf_char.o(.text) for _printf_char
    _printf_x.o(.ARM.Collect$$_printf_percent$$0000000C) refers (Weak) to _printf_hex_int_ll_ptr.o(.text) for _printf_int_hex
    _printf_o.o(.ARM.Collect$$_printf_percent$$0000000B) refers (Weak) to _printf_oct_int_ll.o(.text) for _printf_int_oct
    _printf_i.o(.ARM.Collect$$_printf_percent$$00000008) refers (Weak) to _printf_dec.o(.text) for _printf_int_dec
    _printf_d.o(.ARM.Collect$$_printf_percent$$00000009) refers (Weak) to _printf_dec.o(.text) for _printf_int_dec
    _printf_u.o(.ARM.Collect$$_printf_percent$$0000000A) refers (Weak) to _printf_dec.o(.text) for _printf_int_dec
    _printf_f.o(.ARM.Collect$$_printf_percent$$00000003) refers (Weak) to printf1.o(x$fpl$printf1) for _printf_fp_dec
    _printf_e.o(.ARM.Collect$$_printf_percent$$00000004) refers (Weak) to printf1.o(x$fpl$printf1) for _printf_fp_dec
    _printf_g.o(.ARM.Collect$$_printf_percent$$00000005) refers (Weak) to printf1.o(x$fpl$printf1) for _printf_fp_dec
    _printf_a.o(.ARM.Collect$$_printf_percent$$00000006) refers (Weak) to printf2.o(x$fpl$printf2) for _printf_fp_hex
    _printf_percent.o(.ARM.Collect$$_printf_percent$$00000000) refers (Special) to _printf_percent_end.o(.ARM.Collect$$_printf_percent$$00000017) for _printf_percent_end
    _printf_lli.o(.ARM.Collect$$_printf_percent$$0000000D) refers (Special) to _printf_ll.o(.ARM.Collect$$_printf_percent$$00000007) for _printf_ll
    _printf_lli.o(.ARM.Collect$$_printf_percent$$0000000D) refers (Weak) to _printf_longlong_dec.o(.text) for _printf_longlong_dec
    _printf_lld.o(.ARM.Collect$$_printf_percent$$0000000E) refers (Special) to _printf_ll.o(.ARM.Collect$$_printf_percent$$00000007) for _printf_ll
    _printf_lld.o(.ARM.Collect$$_printf_percent$$0000000E) refers (Weak) to _printf_longlong_dec.o(.text) for _printf_longlong_dec
    _printf_llu.o(.ARM.Collect$$_printf_percent$$0000000F) refers (Special) to _printf_ll.o(.ARM.Collect$$_printf_percent$$00000007) for _printf_ll
    _printf_llu.o(.ARM.Collect$$_printf_percent$$0000000F) refers (Weak) to _printf_longlong_dec.o(.text) for _printf_longlong_dec
    _printf_lc.o(.ARM.Collect$$_printf_percent$$00000015) refers (Special) to _printf_l.o(.ARM.Collect$$_printf_percent$$00000012) for _printf_l
    _printf_lc.o(.ARM.Collect$$_printf_percent$$00000015) refers (Weak) to _printf_wchar.o(.text) for _printf_wchar
    _printf_llo.o(.ARM.Collect$$_printf_percent$$00000010) refers (Special) to _printf_ll.o(.ARM.Collect$$_printf_percent$$00000007) for _printf_ll
    _printf_llo.o(.ARM.Collect$$_printf_percent$$00000010) refers (Weak) to _printf_oct_int_ll.o(.text) for _printf_ll_oct
    _printf_llx.o(.ARM.Collect$$_printf_percent$$00000011) refers (Special) to _printf_ll.o(.ARM.Collect$$_printf_percent$$00000007) for _printf_ll
    _printf_llx.o(.ARM.Collect$$_printf_percent$$00000011) refers (Weak) to _printf_hex_int_ll_ptr.o(.text) for _printf_ll_hex
    sscanf.o(.text) refers (Special) to _scanf_int.o(.text) for _scanf_int
    sscanf.o(.text) refers (Special) to _scanf_longlong.o(.text) for _scanf_longlong
    sscanf.o(.text) refers (Special) to _scanf_mbtowc.o(.text) for _scanf_mbtowc
    sscanf.o(.text) refers (Special) to scanf1.o(x$fpl$scanf1) for _scanf_real
    sscanf.o(.text) refers (Special) to _scanf_str.o(.text) for _scanf_string
    sscanf.o(.text) refers (Special) to _scanf_wctomb.o(.text) for _scanf_wctomb
    sscanf.o(.text) refers (Special) to _scanf_wstr.o(.text) for _scanf_wstring
    sscanf.o(.text) refers to scanf_char.o(.text) for __vfscanf_char
    sscanf.o(.text) refers to _sgetc.o(.text) for _sgetc
    strtoull.o(.text) refers to __strtoull.o(.text) for __strtoull
    fwrite.o(.text) refers to uartbsp.o(i.fputc) for fputc
    fread_bytes_avail_replaced.o(.text) refers to uartbsp.o(i.fgetc) for fgetc
    locale.o(.text) refers to locale_r.o(.text) for _setlocale_r
    locale.o(.text) refers to locale.o(.bss) for .bss
    localeconv.o(.text) refers to _lconv.o(.text) for _get_lconv
    localeconv.o(.text) refers to localeconv.o(.bss) for .bss
    mbrtowc.o(.text) refers to _mbrtowc.o(.text) for _mbrtowc
    mbrtowc.o(.text) refers to rt_errno_addr_intlibspace.o(.text) for __aeabi_errno_addr
    wcrtomb.o(.text) refers to _wcrtomb.o(.text) for _wcrtomb
    wcrtomb.o(.text) refers to rt_memcpy_v6.o(.text) for __aeabi_memcpy
    wcrtomb.o(.text) refers to rt_errno_addr_intlibspace.o(.text) for __aeabi_errno_addr
    _mbcurmax.o(.text) refers to rt_ctype_table.o(.text) for __rt_ctype_table
    abort.o(.text) refers to defsig_abrt_outer.o(.text) for __rt_SIGABRT
    abort.o(.text) refers (Weak) to libshutdown.o(.ARM.Collect$$libshutdown$$00000000) for __rt_lib_shutdown
    abort.o(.text) refers to sys_exit.o(.text) for _sys_exit
    cxa_finalize.o(.text) refers (Special) to libshutdown2.o(.ARM.Collect$$libshutdown$$00000001) for __rt_lib_shutdown_cpp_2
    cxa_finalize.o(.text) refers to rt_ddtor_pointer_addr_intlibspace.o(.text) for __rt_ddtor_pointer_addr
    cxa_finalize.o(.text) refers to h1_free.o(.text) for free
    cxa_finalize.o(.ARM.exidx) refers (Special) to libshutdown2.o(.ARM.Collect$$libshutdown$$00000001) for __rt_lib_shutdown_cpp_2
    cxa_finalize.o(.ARM.exidx) refers to cxa_finalize.o(.text) for .text
    strcoll.o(.text) refers (Special) to lc_collate_c.o(locale$$code) for _get_lc_collate
    strcoll.o(.text) refers to rt_locale_intlibspace.o(.text) for __rt_locale
    strcoll.o(.text) refers to strcmpv7m.o(.text) for strcmp
    strxfrm.o(.text) refers (Special) to lc_collate_c.o(locale$$code) for _get_lc_collate
    strxfrm.o(.text) refers to strlen.o(.text) for strlen
    strxfrm.o(.text) refers to rt_locale_intlibspace.o(.text) for __rt_locale
    wmemmove.o(.text) refers to memmove.o(.text) for memmove
    memcpy.o(.text) refers to rt_memcpy_v6.o(.text) for __aeabi_memcpy
    rt_memmove_w.o(.text) refers to rt_memcpy_w.o(.text) for __aeabi_memcpy4
    libinit2.o(.ARM.Collect$$libinit$$00000001) refers to fpinit.o(x$fpl$fpinit) for _fp_init
    libinit2.o(.ARM.Collect$$libinit$$00000005) refers (Weak) to init_alloc.o(.text) for _init_alloc
    libinit2.o(.ARM.Collect$$libinit$$0000000F) refers (Weak) to rt_locale_intlibspace.o(.text) for __rt_locale
    libinit2.o(.ARM.Collect$$libinit$$00000010) refers to libinit2.o(.ARM.Collect$$libinit$$0000000F) for .ARM.Collect$$libinit$$0000000F
    libinit2.o(.ARM.Collect$$libinit$$00000010) refers (Weak) to lc_collate_c.o(locale$$code) for _get_lc_collate
    libinit2.o(.ARM.Collect$$libinit$$00000012) refers to libinit2.o(.ARM.Collect$$libinit$$0000000F) for .ARM.Collect$$libinit$$0000000F
    libinit2.o(.ARM.Collect$$libinit$$00000012) refers (Weak) to lc_ctype_c.o(locale$$code) for _get_lc_ctype
    libinit2.o(.ARM.Collect$$libinit$$00000014) refers to libinit2.o(.ARM.Collect$$libinit$$0000000F) for .ARM.Collect$$libinit$$0000000F
    libinit2.o(.ARM.Collect$$libinit$$00000014) refers (Weak) to lc_monetary_c.o(locale$$code) for _get_lc_monetary
    libinit2.o(.ARM.Collect$$libinit$$00000016) refers to libinit2.o(.ARM.Collect$$libinit$$0000000F) for .ARM.Collect$$libinit$$0000000F
    libinit2.o(.ARM.Collect$$libinit$$00000016) refers (Weak) to lc_numeric_c.o(locale$$code) for _get_lc_numeric
    libinit2.o(.ARM.Collect$$libinit$$00000018) refers to libinit2.o(.ARM.Collect$$libinit$$0000000F) for .ARM.Collect$$libinit$$0000000F
    libinit2.o(.ARM.Collect$$libinit$$00000026) refers to argv_veneer.o(.emb_text) for __ARM_argv_veneer
    libinit2.o(.ARM.Collect$$libinit$$00000027) refers to argv_veneer.o(.emb_text) for __ARM_argv_veneer
    libinit2.o(.ARM.Collect$$libinit$$00000031) refers (Weak) to init_aeabi.o(.text) for __cpp_initialize__aeabi_
    messages.o(i._ZNKSt18__rw_messages_base11_C_cat_openERKSsRKSt6locale) refers to locale.o(i._ZN4__rw21__rw_use_c_lib_localeC1EPKci) for __rw::__rw_use_c_lib_locale::__rw_use_c_lib_locale(const char*, int)
    messages.o(i._ZNKSt18__rw_messages_base11_C_cat_openERKSsRKSt6locale) refers to rwcats.o(i._Z7catopenPKci) for catopen(const char*, int)
    messages.o(i._ZNKSt18__rw_messages_base11_C_cat_openERKSsRKSt6locale) refers to messages.o(i._ZSt13__rw_get_catsv) for std::__rw_get_cats()
    messages.o(i._ZNKSt18__rw_messages_base11_C_cat_openERKSsRKSt6locale) refers to messages.o(t._ZN4__rw18__rw_locale_vectorISt18__rw_open_cat_dataE6resizeEj) for __rw::__rw_locale_vector<std::__rw_open_cat_data>::resize(unsigned)
    messages.o(i._ZNKSt18__rw_messages_base11_C_cat_openERKSsRKSt6locale) refers to char.o(i._ZN4__rw21__rw_use_c_lib_localeD1Ev) for __rw::__rw_use_c_lib_locale::~__rw_use_c_lib_locale()
    messages.o(i._ZNKSt18__rw_messages_base11_C_cat_openERKSsRKSt6locale) refers to locale.o(i._ZNSt6localeaSERKS_) for std::locale::operator =(const std::locale&)
    messages.o(i._ZNKSt18__rw_messages_base11_C_cat_openERKSsRKSt6locale.clean) refers to char.o(i._ZN4__rw21__rw_use_c_lib_localeD1Ev) for __rw::__rw_use_c_lib_locale::~__rw_use_c_lib_locale()
    messages.o(i._ZNKSt18__rw_messages_base11_C_cat_openERKSsRKSt6locale.clean) refers to arm_exceptions_cleanup.o(.emb_text) for __cxa_end_cleanup
    messages.o(i._ZNKSt18__rw_messages_base12_C_cat_closeEi) refers to messages.o(i._ZSt13__rw_get_catsv) for std::__rw_get_cats()
    messages.o(i._ZNKSt18__rw_messages_base12_C_cat_closeEi) refers to rwcats.o(i._Z8catclosePN4__rw8__rw_catE) for catclose(__rw::__rw_cat*)
    messages.o(i._ZNKSt18__rw_messages_base12_C_cat_closeEi) refers to locale.o(i._ZNSt6locale7classicEv) for std::locale::classic()
    messages.o(i._ZNKSt18__rw_messages_base12_C_cat_closeEi) refers to locale.o(i._ZNSt6localeaSERKS_) for std::locale::operator =(const std::locale&)
    messages.o(i._ZNKSt18__rw_messages_base13_C_get_localeEi) refers to messages.o(i._ZSt13__rw_get_catsv) for std::__rw_get_cats()
    messages.o(i._ZNKSt18__rw_messages_base13_C_get_localeEi) refers to locale.o(i._ZNSt6locale7classicEv) for std::locale::classic()
    messages.o(i._ZNKSt18__rw_messages_base14_C_get_messageEiii) refers to messages.o(i._ZSt13__rw_get_catsv) for std::__rw_get_cats()
    messages.o(i._ZNKSt18__rw_messages_base14_C_get_messageEiii) refers to rwcats.o(i._Z7catgetsPN4__rw8__rw_catEiiPKc) for catgets(__rw::__rw_cat*, int, int, const char*)
    messages.o(i._ZNSt18__rw_messages_base18_C_get_locale_nameEPKc) refers to locale.o(i._ZN4__rw21__rw_use_c_lib_localeC1EPKci) for __rw::__rw_use_c_lib_locale::__rw_use_c_lib_locale(const char*, int)
    messages.o(i._ZNSt18__rw_messages_base18_C_get_locale_nameEPKc) refers to locale.o(.text) for setlocale
    messages.o(i._ZNSt18__rw_messages_base18_C_get_locale_nameEPKc) refers to strlen.o(.text) for strlen
    messages.o(i._ZNSt18__rw_messages_base18_C_get_locale_nameEPKc) refers to locale.o(t._ZNSs11_C_allocateEjjj) for std::basic_string<char, std::char_traits<char>, std::allocator<char>>::_C_allocate(unsigned, unsigned, unsigned)
    messages.o(i._ZNSt18__rw_messages_base18_C_get_locale_nameEPKc) refers to char.o(i._ZNSt11char_traitsIcE4copyEPcPKcj) for std::char_traits<char>::copy(char*, const char*, unsigned)
    messages.o(i._ZNSt18__rw_messages_base18_C_get_locale_nameEPKc) refers to char.o(i._ZN4__rw21__rw_use_c_lib_localeD1Ev) for __rw::__rw_use_c_lib_locale::~__rw_use_c_lib_locale()
    messages.o(i._ZNSt18__rw_messages_base18_C_get_locale_nameEPKc) refers to messages.o(.bss__ZNSs9__nullrefE) for std::basic_string<char, std::char_traits<char>, std::allocator<char>>::__nullref
    messages.o(i._ZNSt18__rw_messages_base18_C_get_locale_nameEPKc.clean) refers to char.o(i._ZN4__rw21__rw_use_c_lib_localeD1Ev) for __rw::__rw_use_c_lib_locale::~__rw_use_c_lib_locale()
    messages.o(i._ZNSt18__rw_messages_base18_C_get_locale_nameEPKc.clean) refers to arm_exceptions_cleanup.o(.emb_text) for __cxa_end_cleanup
    messages.o(.ARM.exidx) refers to messages.o(i._ZNKSt18__rw_messages_base11_C_cat_openERKSsRKSt6locale) for i._ZNKSt18__rw_messages_base11_C_cat_openERKSsRKSt6locale
    messages.o(.ARM.exidx) refers to unwind_pr0.o(.text) for __aeabi_unwind_cpp_pr0
    messages.o(.ARM.exidx) refers to messages.o(.ARM.extab) for .extab._ZNKSt18__rw_messages_base11_C_cat_openERKSsRKSt6locale
    messages.o(.ARM.exidx) refers to messages.o(i._ZNKSt18__rw_messages_base11_C_cat_openERKSsRKSt6locale.clean) for i._ZNKSt18__rw_messages_base11_C_cat_openERKSsRKSt6locale.clean
    messages.o(.ARM.exidx) refers to messages.o(i._ZNKSt18__rw_messages_base14_C_get_messageEiii) for i._ZNKSt18__rw_messages_base14_C_get_messageEiii
    messages.o(.ARM.exidx) refers to unwind_pr0.o(.text) for __aeabi_unwind_cpp_pr0
    messages.o(.ARM.exidx) refers to messages.o(i._ZNKSt18__rw_messages_base13_C_get_localeEi) for i._ZNKSt18__rw_messages_base13_C_get_localeEi
    messages.o(.ARM.exidx) refers to unwind_pr0.o(.text) for __aeabi_unwind_cpp_pr0
    messages.o(.ARM.exidx) refers to messages.o(i._ZNKSt18__rw_messages_base12_C_cat_closeEi) for i._ZNKSt18__rw_messages_base12_C_cat_closeEi
    messages.o(.ARM.exidx) refers to unwind_pr0.o(.text) for __aeabi_unwind_cpp_pr0
    messages.o(.ARM.exidx) refers to messages.o(i._ZNSt18__rw_messages_base18_C_get_locale_nameEPKc) for i._ZNSt18__rw_messages_base18_C_get_locale_nameEPKc
    messages.o(.ARM.exidx) refers to unwind_pr0.o(.text) for __aeabi_unwind_cpp_pr0
    messages.o(.ARM.exidx) refers to messages.o(.ARM.extab) for .extab._ZNSt18__rw_messages_base18_C_get_locale_nameEPKc
    messages.o(.ARM.exidx) refers to messages.o(i._ZNSt18__rw_messages_base18_C_get_locale_nameEPKc.clean) for i._ZNSt18__rw_messages_base18_C_get_locale_nameEPKc.clean
    messages.o(.ARM.extab) refers to messages.o(i._ZNKSt18__rw_messages_base11_C_cat_openERKSsRKSt6locale.clean) for i._ZNKSt18__rw_messages_base11_C_cat_openERKSsRKSt6locale.clean
    messages.o(.ARM.extab) refers to messages.o(i._ZNSt18__rw_messages_base18_C_get_locale_nameEPKc.clean) for i._ZNSt18__rw_messages_base18_C_get_locale_nameEPKc.clean
    rwthrowproc_noex.o(.data) refers to rwthrowproc_impl_noex.o(i._ZN4__rw25__rw_throw_exception_noexEiPc) for __rw::__rw_throw_exception_noex(int, char*)
    arm_begincatch_noexceptions.o(.ARM.exidx) refers to arm_begincatch_noexceptions.o(.text) for .text
    arm_callunex_noexceptions.o(.ARM.exidx) refers to arm_callunex_noexceptions.o(.text) for .text
    arm_endcatch_noexceptions.o(.ARM.exidx) refers to arm_endcatch_noexceptions.o(.text) for .text
    arm_newhandler_noexceptions.o(.text) refers to arm_exceptions_terminate.o(.text) for std::terminate()
    arm_newhandler_noexceptions.o(.ARM.exidx) refers to arm_newhandler_noexceptions.o(.text) for .text
    arm_rethrow_noexceptions.o(.ARM.exidx) refers to arm_rethrow_noexceptions.o(.text) for .text
    bad_alloc_dtor.o(i._ZNSt9bad_allocD0Ev) refers to bad_alloc_dtor.o(i._ZNSt9bad_allocD1Ev) for std::bad_alloc::~bad_alloc()
    bad_alloc_dtor.o(i._ZNSt9bad_allocD0Ev) refers to delete.o(i._ZdlPv) for operator delete (void*)
    bad_alloc_dtor.o(.ARM.exidx) refers to bad_alloc_dtor.o(i._ZNSt9bad_allocD1Ev) for i._ZNSt9bad_allocD1Ev
    bad_alloc_dtor.o(.ARM.exidx) refers to bad_alloc_dtor.o(i._ZNSt9bad_allocD0Ev) for i._ZNSt9bad_allocD0Ev
    cxa_guard_abort.o(.ARM.exidx) refers to cxa_guard_abort.o(i.__cxa_guard_abort) for i.__cxa_guard_abort
    cxa_throw_bad_array_new_length.o(.ARM.exidx) refers to cxa_throw_bad_array_new_length.o(i.__cxa_throw_bad_array_new_length) for i.__cxa_throw_bad_array_new_length
    exception_ctor.o(i._ZNSt9exceptionC1Ev) refers to exception_dtor.o(.constdata__ZTVSt9exception) for vtable for std::exception
    exception_ctor.o(.ARM.exidx) refers to exception_ctor.o(i._ZNSt9exceptionC1Ev) for i._ZNSt9exceptionC1Ev
    exception_dtor.o(i._ZNSt9exceptionD0Ev) refers to delete.o(i._ZdlPv) for operator delete (void*)
    exception_dtor.o(.ARM.exidx) refers to exception_dtor.o(i._ZNSt9exceptionD1Ev) for i._ZNSt9exceptionD1Ev
    exception_dtor.o(.ARM.exidx) refers to exception_dtor.o(i._ZNSt9exceptionD0Ev) for i._ZNSt9exceptionD0Ev
    type_info_dtor.o(.ARM.exidx) refers to type_info_dtor.o(i._ZNSt9type_infoD1Ev) for i._ZNSt9type_infoD1Ev
    type_info_dtor.o(.ARM.exidx) refers to type_info_dtor.o(i._ZNSt9type_infoD0Ev) for i._ZNSt9type_infoD0Ev
    aeabi_vec_delete_noexceptions.o(.text) refers to aeabi_vec_dtor_cookie.o(i.__aeabi_vec_dtor_cookie) for __aeabi_vec_dtor_cookie
    aeabi_vec_delete_noexceptions.o(.text) refers to array_del.o(i._ZdaPv) for operator delete[] (void*)
    aeabi_vec_delete_noexceptions.o(.ARM.exidx) refers to aeabi_vec_delete_noexceptions.o(.text) for .text
    aeabi_vec_new_cookie.o(i.__aeabi_vec_new_cookie) refers to cxa_vec_new.o(i.__cxa_vec_new) for __cxa_vec_new
    aeabi_vec_new_cookie.o(.ARM.exidx) refers to aeabi_vec_new_cookie.o(i.__aeabi_vec_new_cookie) for i.__aeabi_vec_new_cookie
    aeabi_vec_new_cookie.o(.ARM.exidx) refers to unwind_pr0.o(.text) for __aeabi_unwind_cpp_pr0
    arm_exceptions_callterm.o(.text) refers to arm_exceptions_globs.o(.text) for __cxa_get_globals
    arm_exceptions_callterm.o(.text) refers to arm_exceptions_support.o(.text) for __ARM::is_foreign_exception(_Unwind_Control_Block*)
    arm_exceptions_callterm.o(.text) refers to arm_exceptions_terminate.o(.text) for std::terminate()
    arm_exceptions_callterm.o(.ARM.exidx) refers to arm_exceptions_callterm.o(.text) for .text
    arm_exceptions_cleanup.o(.emb_text) refers to arm_exceptions_cleanup.o(.text) for __ARM_cxa_end_cleanup
    arm_exceptions_cleanup.o(.emb_text) refers (Weak) to unwinder.o(.emb_text) for _Unwind_Resume
    arm_exceptions_cleanup.o(.ARM.exidx) refers to arm_exceptions_cleanup.o(.emb_text) for __cxa_end_cleanup
    arm_exceptions_cleanup.o(.text) refers to arm_exceptions_globs.o(.text) for __cxa_get_globals
    arm_exceptions_cleanup.o(.text) refers to arm_exceptions_support.o(.text) for __ARM::is_foreign_exception(_Unwind_Control_Block*)
    arm_exceptions_cleanup.o(.text) refers to arm_exceptions_foreign.o(.text) for __ARM::get_foreign_intermediary(__cxa_exception*, _Unwind_Control_Block*)
    arm_exceptions_cleanup.o(.text) refers to arm_exceptions_terminate.o(.text) for std::terminate()
    arm_exceptions_cleanup.o(.text) refers to arm_exceptions_free.o(.text) for __cxa_free_exception
    arm_exceptions_cleanup.o(.ARM.exidx) refers to arm_exceptions_cleanup.o(.text) for .text
    unwind_pr0.o(.text) refers to unwind_prcommon.o(.text) for __ARM_unwind_cpp_prcommon
    unwind_pr0.o(.ARM.exidx) refers to unwind_pr0.o(.text) for .text
    unwind_pr1.o(.text) refers to unwind_prcommon.o(.text) for __ARM_unwind_cpp_prcommon
    unwind_pr1.o(.ARM.exidx) refers to unwind_pr1.o(.text) for .text
    deqf.o(x$fpl$deqf) refers (Special) to usenofp.o(x$fpl$usenofp) for __I$use$fp
    deqf.o(x$fpl$deqf) refers to dnaninf.o(x$fpl$dnaninf) for __fpl_dnaninf
    deqf.o(x$fpl$deqf) refers to dcmpi.o(x$fpl$dcmpinf) for __fpl_dcmp_Inf
    dleqf.o(x$fpl$dleqf) refers (Special) to usenofp.o(x$fpl$usenofp) for __I$use$fp
    dleqf.o(x$fpl$dleqf) refers to dnaninf.o(x$fpl$dnaninf) for __fpl_dnaninf
    dleqf.o(x$fpl$dleqf) refers to dcmpi.o(x$fpl$dcmpinf) for __fpl_dcmp_Inf
    printf1.o(x$fpl$printf1) refers to _printf_fp_dec.o(.text) for _printf_fp_dec_real
    printf2.o(x$fpl$printf2) refers to _printf_fp_hex.o(.text) for _printf_fp_hex_real
    printf2b.o(x$fpl$printf2) refers to _printf_fp_hex.o(.text) for _printf_fp_hex_real
    sys_exit.o(.text) refers (Special) to use_no_semi.o(.text) for __I$use$semihosting
    sys_exit.o(.text) refers (Special) to indicate_semi.o(.text) for __semihosting_library_function
    libspace.o(.text) refers to libspace.o(.bss) for __libspace_start
    __rtentry2.o(.ARM.Collect$$rtentry$$00000008) refers to boardinit2.o(.text) for _platform_post_stackheap_init
    __rtentry2.o(.ARM.Collect$$rtentry$$0000000A) refers to libinit.o(.ARM.Collect$$libinit$$00000000) for __rt_lib_init
    __rtentry2.o(.ARM.Collect$$rtentry$$0000000B) refers to boardinit3.o(.text) for _platform_post_lib_init
    __rtentry2.o(.ARM.Collect$$rtentry$$0000000D) refers to main.o(i.main) for main
    __rtentry2.o(.ARM.Collect$$rtentry$$0000000D) refers to exit.o(.text) for exit
    __rtentry2.o(.ARM.exidx) refers to __rtentry2.o(.ARM.Collect$$rtentry$$00000001) for .ARM.Collect$$rtentry$$00000001
    __rtentry2.o(.ARM.exidx) refers to __rtentry2.o(.ARM.Collect$$rtentry$$00000008) for .ARM.Collect$$rtentry$$00000008
    __rtentry2.o(.ARM.exidx) refers to __rtentry2.o(.ARM.Collect$$rtentry$$0000000A) for .ARM.Collect$$rtentry$$0000000A
    __rtentry2.o(.ARM.exidx) refers to __rtentry2.o(.ARM.Collect$$rtentry$$0000000B) for .ARM.Collect$$rtentry$$0000000B
    __rtentry2.o(.ARM.exidx) refers to __rtentry2.o(.ARM.Collect$$rtentry$$0000000D) for .ARM.Collect$$rtentry$$0000000D
    __rtentry4.o(.ARM.Collect$$rtentry$$00000004) refers to sys_stackheap_outer.o(.text) for __user_setup_stackheap
    __rtentry4.o(.ARM.exidx) refers to __rtentry4.o(.ARM.Collect$$rtentry$$00000004) for .ARM.Collect$$rtentry$$00000004
    rt_heap_descriptor.o(.text) refers to rt_heap_descriptor.o(.bss) for __rt_heap_descriptor_data
    rt_heap_descriptor_intlibspace.o(.text) refers to libspace.o(.bss) for __libspace_start
    rt_locale.o(.text) refers to rt_locale.o(.bss) for __rt_locale_data
    rt_locale_intlibspace.o(.text) refers to libspace.o(.bss) for __libspace_start
    rt_errno_addr.o(.text) refers to rt_errno_addr.o(.bss) for __aeabi_errno_addr_data
    rt_errno_addr_intlibspace.o(.text) refers to libspace.o(.bss) for __libspace_start
    init_alloc.o(.text) refers (Special) to hguard.o(.text) for __heap$guard
    init_alloc.o(.text) refers (Special) to libinit2.o(.ARM.Collect$$libinit$$00000005) for __rt_lib_init_heap_2
    init_alloc.o(.text) refers (Special) to maybetermalloc1.o(.emb_text) for _maybe_terminate_alloc
    init_alloc.o(.text) refers to h1_extend.o(.text) for __Heap_ProvideMemory
    init_alloc.o(.text) refers to defsig_rtmem_outer.o(.text) for __rt_SIGRTMEM
    init_alloc.o(.text) refers to rt_heap_descriptor_intlibspace.o(.text) for __rt_heap_descriptor
    init_alloc.o(.text) refers to h1_init.o(.text) for __Heap_Initialize
    h1_init_mt.o(.text) refers to mutex_dummy.o(.text) for _mutex_initialize
    _printf_intcommon.o(.text) refers (Weak) to _printf_pad.o(.text) for _printf_pre_padding
    _printf_intcommon.o(.text) refers (Weak) to _printf_pad.o(.text) for _printf_pre_padding
    _printf_intcommon.o(.text) refers (Weak) to _printf_pad.o(.text) for _printf_post_padding
    _printf_fp_dec.o(.text) refers (Special) to usenofp.o(x$fpl$usenofp) for __I$use$fp
    _printf_fp_dec.o(.text) refers (Special) to lc_numeric_c.o(locale$$code) for _get_lc_numeric
    _printf_fp_dec.o(.text) refers to bigflt0.o(.text) for _btod_etento
    _printf_fp_dec.o(.text) refers to btod.o(CL$$btod_d2e) for _btod_d2e
    _printf_fp_dec.o(.text) refers to btod.o(CL$$btod_ediv) for _btod_ediv
    _printf_fp_dec.o(.text) refers to btod.o(CL$$btod_emul) for _btod_emul
    _printf_fp_dec.o(.text) refers to lludiv10.o(.text) for _ll_udiv10
    _printf_fp_dec.o(.text) refers to fpclassify.o(i.__ARM_fpclassify) for __ARM_fpclassify
    _printf_fp_dec.o(.text) refers to _printf_fp_infnan.o(.text) for _printf_fp_infnan
    _printf_fp_dec.o(.text) refers (Weak) to _printf_pad.o(.text) for _printf_pre_padding
    _printf_fp_dec.o(.text) refers (Weak) to _printf_pad.o(.text) for _printf_pre_padding
    _printf_fp_dec.o(.text) refers to rt_locale_intlibspace.o(.text) for __rt_locale
    _printf_fp_dec.o(.text) refers (Weak) to _printf_pad.o(.text) for _printf_post_padding
    _printf_fp_hex.o(.text) refers (Special) to usenofp.o(x$fpl$usenofp) for __I$use$fp
    _printf_fp_hex.o(.text) refers to fpclassify.o(i.__ARM_fpclassify) for __ARM_fpclassify
    _printf_fp_hex.o(.text) refers to _printf_fp_infnan.o(.text) for _printf_fp_infnan
    _printf_fp_hex.o(.text) refers (Weak) to _printf_pad.o(.text) for _printf_pre_padding
    _printf_fp_hex.o(.text) refers (Weak) to _printf_pad.o(.text) for _printf_pre_padding
    _printf_fp_hex.o(.text) refers (Weak) to _printf_pad.o(.text) for _printf_post_padding
    _printf_fp_hex.o(.text) refers to _printf_fp_hex.o(.constdata) for .constdata
    _printf_fp_hex.o(.constdata) refers (Special) to usenofp.o(x$fpl$usenofp) for __I$use$fp
    _printf_char_common.o(.text) refers to __printf_flags_ss_wp.o(.text) for __printf
    _printf_char.o(.text) refers (Weak) to _printf_str.o(.text) for _printf_str
    _printf_char_file.o(.text) refers to _printf_char_common.o(.text) for _printf_char_common
    _printf_char_file.o(.text) refers to uartbsp.o(i.ferror) for ferror
    _printf_char_file.o(.text) refers to uartbsp.o(i.fputc) for fputc
    _printf_wchar.o(.text) refers (Weak) to _printf_wctomb.o(.text) for _printf_wctomb
    _printf_s.o(.ARM.Collect$$_printf_percent$$00000014) refers (Weak) to _printf_char.o(.text) for _printf_string
    _printf_n.o(.ARM.Collect$$_printf_percent$$00000001) refers (Weak) to _printf_charcount.o(.text) for _printf_charcount
    _printf_p.o(.ARM.Collect$$_printf_percent$$00000002) refers (Weak) to _printf_hex_int_ll_ptr.o(.text) for _printf_hex_ptr
    _printf_ls.o(.ARM.Collect$$_printf_percent$$00000016) refers (Special) to _printf_l.o(.ARM.Collect$$_printf_percent$$00000012) for _printf_l
    _printf_ls.o(.ARM.Collect$$_printf_percent$$00000016) refers (Weak) to _printf_wchar.o(.text) for _printf_wstring
    _scanf_longlong.o(.text) refers to _chval.o(.text) for _chval
    _scanf_int.o(.text) refers to _chval.o(.text) for _chval
    scanf_char.o(.text) refers to _scanf.o(.text) for __vfscanf
    scanf_char.o(.text) refers to isspace.o(.text) for isspace
    __strtoull.o(.text) refers to rt_errno_addr_intlibspace.o(.text) for __aeabi_errno_addr
    __strtoull.o(.text) refers to rt_ctype_table.o(.text) for __rt_ctype_table
    __strtoull.o(.text) refers to _strtoull.o(.text) for _strtoull
    _scanf_mbtowc.o(.text) refers to _mbrtowc.o(.text) for _mbrtowc
    _scanf_wctomb.o(.text) refers to _wcrtomb.o(.text) for _wcrtomb
    _scanf_wctomb.o(.text) refers to _scanf_wcharmap.o(.text) for _scanf_wcharmap
    _scanf_wstr.o(.text) refers to _scanf_wcharmap.o(.text) for _scanf_wcharmap
    _lconv.o(.text) refers (Special) to lc_monetary_c.o(locale$$code) for _get_lc_monetary
    _lconv.o(.text) refers (Special) to lc_numeric_c.o(locale$$code) for _get_lc_numeric
    _lconv.o(.text) refers to rt_locale_intlibspace.o(.text) for __rt_locale
    locale_r.o(.text) refers to rt_locale_intlibspace.o(.text) for __rt_locale
    locale_r.o(.text) refers (Weak) to lc_ctype_c.o(locale$$code) for _get_lc_ctype
    locale_r.o(.text) refers (Weak) to lc_collate_c.o(locale$$code) for _get_lc_collate
    locale_r.o(.text) refers (Weak) to lc_monetary_c.o(locale$$code) for _get_lc_monetary
    locale_r.o(.text) refers (Weak) to lc_numeric_c.o(locale$$code) for _get_lc_numeric
    locale_r.o(.text) refers to null_locale.o(locale$$data) for __lcnull_start
    _mbrtowc.o(.text) refers to rt_ctype_table.o(.text) for __rt_ctype_table
    _wcrtomb.o(.text) refers to rt_ctype_table.o(.text) for __rt_ctype_table
    lc_ctype_c.o(locale$$data) refers (Special) to libinit2.o(.ARM.Collect$$libinit$$00000012) for __rt_lib_init_lc_ctype_2
    lc_ctype_c.o(locale$$code) refers (Special) to libinit2.o(.ARM.Collect$$libinit$$00000012) for __rt_lib_init_lc_ctype_2
    lc_ctype_c.o(locale$$code) refers to strcmpv7m.o(.text) for strcmp
    lc_ctype_c.o(locale$$code) refers to lc_ctype_c.o(locale$$data) for __lcctype_c_name
    lc_collate_c.o(locale$$data) refers (Special) to libinit2.o(.ARM.Collect$$libinit$$00000010) for __rt_lib_init_lc_collate_2
    lc_collate_c.o(locale$$code) refers (Special) to libinit2.o(.ARM.Collect$$libinit$$00000010) for __rt_lib_init_lc_collate_2
    lc_collate_c.o(locale$$code) refers to strcmpv7m.o(.text) for strcmp
    lc_collate_c.o(locale$$code) refers to lc_collate_c.o(locale$$data) for __lccoll_c_name
    defsig_abrt_outer.o(.text) refers to defsig_abrt_inner.o(.text) for __rt_SIGABRT_inner
    defsig_abrt_outer.o(.text) refers to defsig_exit.o(.text) for __sig_exit
    defsig_abrt_formal.o(.text) refers to rt_raise.o(.text) for __rt_raise
    memmove.o(.text) refers to rt_memmove_v6.o(.text) for __aeabi_memmove
    _get_argv.o(.text) refers (Special) to hrguard.o(.text) for __heap_region$guard
    _get_argv.o(.text) refers to h1_alloc.o(.text) for malloc
    _get_argv.o(.text) refers to defsig_rtmem_outer.o(.text) for __rt_SIGRTMEM
    _get_argv.o(.text) refers to sys_command.o(.text) for _sys_command_string
    argv_veneer.o(.emb_text) refers to no_argv.o(.text) for __ARM_get_argv
    libshutdown2.o(.ARM.Collect$$libshutdown$$00000001) refers (Weak) to cxa_finalize.o(.text) for __cxa_finalize
    libshutdown2.o(.ARM.Collect$$libshutdown$$0000000D) refers (Weak) to term_alloc.o(.text) for _terminate_alloc
    rwcats.o(i._Z7catgetsPN4__rw8__rw_catEiiPKc) refers to rwcats.o(i._ZN4__rw9__catfindEPNS_8__rw_catE) for __rw::__catfind(__rw::__rw_cat*)
    rwcats.o(i._Z7catgetsPN4__rw8__rw_catEiiPKc) refers to rwcats.o(.data) for .data
    rwcats.o(i._Z7catopenPKci) refers to new.o(i._Znwj) for operator new(unsigned)
    rwcats.o(i._Z7catopenPKci) refers to delete.o(i._ZdlPv) for operator delete (void*)
    rwcats.o(i._Z7catopenPKci.clean) refers to arm_exceptions_cleanup.o(.emb_text) for __cxa_end_cleanup
    rwcats.o(i._Z8catclosePN4__rw8__rw_catE) refers to rwcats.o(i._ZN4__rw9__catfindEPNS_8__rw_catE) for __rw::__catfind(__rw::__rw_cat*)
    rwcats.o(i._Z8catclosePN4__rw8__rw_catE) refers to delete.o(i._ZdlPv) for operator delete (void*)
    rwcats.o(i._Z8catclosePN4__rw8__rw_catE) refers to rwcats.o(.data) for .data
    rwcats.o(i._ZN4__rw9__catfindEPNS_8__rw_catE) refers to rwcats.o(.data) for .data
    rwcats.o(i.__sti___10_rwcats_cpp_64e8068e) refers to array_new.o(i._Znaj) for operator new[] (unsigned)
    rwcats.o(i.__sti___10_rwcats_cpp_64e8068e) refers to aeabi_atexit.o(.text) for __aeabi_atexit
    rwcats.o(i.__sti___10_rwcats_cpp_64e8068e) refers to rwcats.o(.data) for .data
    rwcats.o(i.__sti___10_rwcats_cpp_64e8068e) refers to rwcats.o(t._ZN4__rw18__rw_locale_vectorIPNS_8__rw_catEED1Ev) for __rw::__rw_locale_vector<__rw::__rw_cat*>::~__rw_locale_vector()
    rwcats.o(.ARM.exidx) refers to rwcats.o(i._Z7catopenPKci) for i._Z7catopenPKci
    rwcats.o(.ARM.exidx) refers to unwind_pr0.o(.text) for __aeabi_unwind_cpp_pr0
    rwcats.o(.ARM.exidx) refers to rwcats.o(.ARM.extab) for .extab._Z7catopenPKci
    rwcats.o(.ARM.exidx) refers to rwcats.o(i._Z7catopenPKci.clean) for i._Z7catopenPKci.clean
    rwcats.o(.ARM.exidx) refers to rwcats.o(i._ZN4__rw9__catfindEPNS_8__rw_catE) for i._ZN4__rw9__catfindEPNS_8__rw_catE
    rwcats.o(.ARM.exidx) refers to rwcats.o(i._Z7catgetsPN4__rw8__rw_catEiiPKc) for i._Z7catgetsPN4__rw8__rw_catEiiPKc
    rwcats.o(.ARM.exidx) refers to unwind_pr0.o(.text) for __aeabi_unwind_cpp_pr0
    rwcats.o(.ARM.exidx) refers to rwcats.o(.ARM.extab) for .extab._Z7catgetsPN4__rw8__rw_catEiiPKc
    rwcats.o(.ARM.exidx) refers to rwcats.o(i._Z8catclosePN4__rw8__rw_catE) for i._Z8catclosePN4__rw8__rw_catE
    rwcats.o(.ARM.exidx) refers to unwind_pr0.o(.text) for __aeabi_unwind_cpp_pr0
    rwcats.o(.ARM.exidx) refers to rwcats.o(i.__sti___10_rwcats_cpp_64e8068e) for i.__sti___10_rwcats_cpp_64e8068e
    rwcats.o(.ARM.exidx) refers to unwind_pr0.o(.text) for __aeabi_unwind_cpp_pr0
    rwcats.o(.ARM.extab) refers to rwcats.o(i._Z7catopenPKci) for i._Z7catopenPKci
    rwcats.o(.ARM.extab) refers to rwcats.o(i._Z7catgetsPN4__rw8__rw_catEiiPKc) for i._Z7catgetsPN4__rw8__rw_catEiiPKc
    rwcats.o(.init_array) refers to rwcats.o(i.__sti___10_rwcats_cpp_64e8068e) for __sti___10_rwcats_cpp_64e8068e
    rwcats.o(.init_array) refers to init_aeabi.o(.text) for __cpp_initialize__aeabi_
    rwthrowproc_impl_noex.o(i._ZN4__rw25__rw_throw_exception_noexEiPc) refers to fprintf.o(.text) for fprintf
    rwthrowproc_impl_noex.o(i._ZN4__rw25__rw_throw_exception_noexEiPc) refers to array_del.o(i._ZdaPv) for operator delete[] (void*)
    rwthrowproc_impl_noex.o(i._ZN4__rw25__rw_throw_exception_noexEiPc) refers to abort.o(.text) for abort
    rwthrowproc_impl_noex.o(i._ZN4__rw25__rw_throw_exception_noexEiPc) refers to uartbsp.o(.data) for __stderr
    rwthrowproc_impl_noex.o(.ARM.exidx) refers to rwthrowproc_impl_noex.o(i._ZN4__rw25__rw_throw_exception_noexEiPc) for i._ZN4__rw25__rw_throw_exception_noexEiPc
    bad_alloc_what.o(.ARM.exidx) refers to bad_alloc_what.o(i._ZNKSt9bad_alloc4whatEv) for i._ZNKSt9bad_alloc4whatEv
    cxa_vec_new.o(i.__cxa_vec_new) refers to array_new_general.o(i.__ARM_array_new_general) for __ARM_array_new_general
    cxa_vec_new.o(i.__cxa_vec_new) refers to array_del.o(i._ZdaPv) for operator delete[] (void*)
    cxa_vec_new.o(.ARM.exidx) refers to cxa_vec_new.o(i.__cxa_vec_new) for i.__cxa_vec_new
    cxa_vec_new.o(.ARM.exidx) refers to unwind_pr0.o(.text) for __aeabi_unwind_cpp_pr0
    exception_what.o(.ARM.exidx) refers to exception_what.o(i._ZNKSt9exception4whatEv) for i._ZNKSt9exception4whatEv
    aeabi_vec_dtor_cookie.o(i.__aeabi_vec_dtor_cookie) refers to aeabi_vec_dtor_noexceptions.o(.text) for __aeabi_vec_dtor
    aeabi_vec_dtor_cookie.o(.ARM.exidx) refers to aeabi_vec_dtor_cookie.o(i.__aeabi_vec_dtor_cookie) for i.__aeabi_vec_dtor_cookie
    arm_exceptions_free.o(.text) refers to arm_exceptions_globs.o(.text) for __cxa_get_globals
    arm_exceptions_free.o(.text) refers to arm_exceptions_mem.o(.text) for __ARM_exceptions_buffer_free
    arm_exceptions_free.o(.text) refers to h1_free.o(.text) for free
    arm_exceptions_free.o(.ARM.exidx) refers to arm_exceptions_free.o(.text) for .text
    arm_exceptions_terminate.o(.text) refers to arm_exceptions_globs.o(.text) for __cxa_get_globals
    arm_exceptions_terminate.o(.text) refers to abort.o(.text) for abort
    arm_exceptions_terminate.o(.ARM.exidx) refers to arm_exceptions_terminate.o(.text) for .text
    arm_exceptions_support.o(.text) refers to arm_exceptions_support.o(.constdata) for .constdata
    arm_exceptions_support.o(.ARM.exidx) refers to arm_exceptions_support.o(.text) for .text
    arm_exceptions_foreign.o(.text) refers to arm_exceptions_support.o(.text) for __ARM::same_exceptions_class(const void*, const void*)
    arm_exceptions_foreign.o(.text) refers to arm_exceptions_alloc.o(.text) for __cxa_allocate_exception
    arm_exceptions_foreign.o(.ARM.exidx) refers to arm_exceptions_foreign.o(.text) for .text
    arm_exceptions_globs.o(.text) refers to abort.o(.text) for abort
    arm_exceptions_globs.o(.text) refers to rt_eh_globals_addr_intlibspace.o(.text) for __rt_eh_globals_addr
    arm_exceptions_globs.o(.text) refers to h1_alloc.o(.text) for malloc
    arm_exceptions_globs.o(.text) refers to arm_exceptions_mem.o(.text) for __ARM_exceptions_buffer_init
    arm_exceptions_globs.o(.ARM.exidx) refers to arm_exceptions_globs.o(.text) for .text
    unwind_prcommon.o(.text) refers to unwinder.o(.text) for _Unwind_VRS_Get
    unwind_prcommon.o(.text) refers (Weak) to arm_exceptions_cleanup.o(.text) for __cxa_begin_cleanup
    unwind_prcommon.o(.text) refers to unwind_activity.o(.emb_text) for _Unwind_Activity
    unwind_prcommon.o(.text) refers (Weak) to arm_callunex_noexceptions.o(.text) for __cxa_call_unexpected
    unwind_prcommon.o(.ARM.exidx) refers to unwind_prcommon.o(.text) for .text
    dcmpi.o(x$fpl$dcmpinf) refers (Special) to usenofp.o(x$fpl$usenofp) for __I$use$fp
    dnaninf.o(x$fpl$dnaninf) refers (Special) to usenofp.o(x$fpl$usenofp) for __I$use$fp
    scanf1.o(x$fpl$scanf1) refers to scanf_fp.o(.text) for _scanf_really_real
    sys_command.o(.text) refers (Special) to use_no_semi.o(.text) for __I$use$semihosting
    sys_command.o(.text) refers (Special) to indicate_semi.o(.text) for __semihosting_library_function
    sys_stackheap_outer.o(.text) refers to libspace.o(.text) for __user_perproc_libspace
    sys_stackheap_outer.o(.text) refers to startup_stm32f407xx.o(.text) for __user_initial_stackheap
    rt_raise.o(.text) refers to __raise.o(.text) for __raise
    rt_raise.o(.text) refers to sys_exit.o(.text) for _sys_exit
    rt_eh_globals_addr.o(.text) refers to rt_eh_globals_addr.o(.bss) for __rt_eh_globals_addr_data
    rt_eh_globals_addr_intlibspace.o(.text) refers to libspace.o(.bss) for __libspace_start
    maybetermalloc2.o(.emb_text) refers (Special) to term_alloc.o(.text) for _terminate_alloc
    h1_extend.o(.text) refers to h1_free.o(.text) for free
    h1_extend_mt.o(.text) refers to h1_free_mt.o(.text) for _free_internal
    isspace.o(.text) refers to rt_ctype_table.o(.text) for __rt_ctype_table
    _printf_fp_infnan.o(.text) refers (Weak) to _printf_pad.o(.text) for _printf_pre_padding
    _printf_fp_infnan.o(.text) refers (Weak) to _printf_pad.o(.text) for _printf_post_padding
    _scanf.o(.text) refers (Weak) to scanf1.o(x$fpl$scanf1) for _scanf_real
    _scanf.o(.text) refers (Weak) to _scanf_longlong.o(.text) for _scanf_longlong
    _scanf.o(.text) refers (Weak) to _scanf_int.o(.text) for _scanf_int
    _scanf.o(.text) refers (Weak) to _scanf_wstr.o(.text) for _scanf_wstring
    _scanf.o(.text) refers (Weak) to _scanf_mbtowc.o(.text) for _scanf_mbtowc
    _scanf.o(.text) refers (Weak) to _scanf_str.o(.text) for _scanf_string
    _scanf.o(.text) refers (Weak) to _scanf_wctomb.o(.text) for _scanf_wctomb
    scanf_fp.o(.text) refers (Special) to usenofp.o(x$fpl$usenofp) for __I$use$fp
    scanf_fp.o(.text) refers (Special) to lc_numeric_c.o(locale$$code) for _get_lc_numeric
    scanf_fp.o(.text) refers to rt_errno_addr_intlibspace.o(.text) for __aeabi_errno_addr
    scanf_fp.o(.text) refers to istatus.o(x$fpl$ieeestatus) for __ieee_status
    scanf_fp.o(.text) refers to bigflt0.o(.text) for _btod_etento
    scanf_fp.o(.text) refers to btod.o(CL$$btod_emuld) for _btod_emuld
    scanf_fp.o(.text) refers to btod.o(CL$$btod_edivd) for _btod_edivd
    scanf_fp.o(.text) refers to rt_locale_intlibspace.o(.text) for __rt_locale
    scanf_fp.o(.text) refers to scanf2.o(x$fpl$scanf2) for _scanf_infnan
    scanf_fp.o(.text) refers to __printf_wp.o(i._is_digit) for _is_digit
    scanf_fp.o(.text) refers to fpconst.o(c$$dmax) for __dbl_max
    scanf_fp.o(.text) refers to fpconst.o(c$$dinf) for __huge_val
    scanf_fp.o(.text) refers to narrow.o(i.__mathlib_narrow) for __mathlib_narrow
    _strtoull.o(.text) refers to _chval.o(.text) for _chval
    _strtoull.o(.text) refers to rt_errno_addr_intlibspace.o(.text) for __aeabi_errno_addr
    bigflt0.o(.text) refers (Special) to usenofp.o(x$fpl$usenofp) for __I$use$fp
    bigflt0.o(.text) refers to btod.o(CL$$btod_emul) for _btod_emul
    bigflt0.o(.text) refers to btod.o(CL$$btod_ediv) for _btod_ediv
    bigflt0.o(.text) refers to bigflt0.o(.constdata) for .constdata
    bigflt0.o(.constdata) refers (Special) to usenofp.o(x$fpl$usenofp) for __I$use$fp
    btod.o(CL$$btod_d2e) refers (Special) to usenofp.o(x$fpl$usenofp) for __I$use$fp
    btod.o(CL$$btod_d2e) refers to btod.o(CL$$btod_d2e_norm_op1) for _d2e_norm_op1
    btod.o(CL$$btod_d2e_norm_op1) refers (Special) to usenofp.o(x$fpl$usenofp) for __I$use$fp
    btod.o(CL$$btod_d2e_norm_op1) refers to btod.o(CL$$btod_d2e_denorm_low) for _d2e_denorm_low
    btod.o(CL$$btod_d2e_denorm_low) refers (Special) to usenofp.o(x$fpl$usenofp) for __I$use$fp
    btod.o(CL$$btod_emul) refers (Special) to usenofp.o(x$fpl$usenofp) for __I$use$fp
    btod.o(CL$$btod_emul) refers to btod.o(CL$$btod_mult_common) for __btod_mult_common
    btod.o(CL$$btod_emul) refers to btod.o(CL$$btod_e2e) for _e2e
    btod.o(CL$$btod_ediv) refers (Special) to usenofp.o(x$fpl$usenofp) for __I$use$fp
    btod.o(CL$$btod_ediv) refers to btod.o(CL$$btod_div_common) for __btod_div_common
    btod.o(CL$$btod_ediv) refers to btod.o(CL$$btod_e2e) for _e2e
    btod.o(CL$$btod_emuld) refers (Special) to usenofp.o(x$fpl$usenofp) for __I$use$fp
    btod.o(CL$$btod_emuld) refers to btod.o(CL$$btod_mult_common) for __btod_mult_common
    btod.o(CL$$btod_emuld) refers to btod.o(CL$$btod_e2d) for _e2d
    btod.o(CL$$btod_edivd) refers (Special) to usenofp.o(x$fpl$usenofp) for __I$use$fp
    btod.o(CL$$btod_edivd) refers to btod.o(CL$$btod_div_common) for __btod_div_common
    btod.o(CL$$btod_edivd) refers to btod.o(CL$$btod_e2d) for _e2d
    btod.o(CL$$btod_e2e) refers (Special) to usenofp.o(x$fpl$usenofp) for __I$use$fp
    btod.o(CL$$btod_e2d) refers (Special) to usenofp.o(x$fpl$usenofp) for __I$use$fp
    btod.o(CL$$btod_e2d) refers to btod.o(CL$$btod_e2e) for _e2e
    btod.o(CL$$btod_mult_common) refers (Special) to usenofp.o(x$fpl$usenofp) for __I$use$fp
    btod.o(CL$$btod_div_common) refers (Special) to usenofp.o(x$fpl$usenofp) for __I$use$fp
    lc_monetary_c.o(locale$$data) refers (Special) to libinit2.o(.ARM.Collect$$libinit$$00000014) for __rt_lib_init_lc_monetary_2
    lc_monetary_c.o(locale$$code) refers (Special) to libinit2.o(.ARM.Collect$$libinit$$00000014) for __rt_lib_init_lc_monetary_2
    lc_monetary_c.o(locale$$code) refers to strcmpv7m.o(.text) for strcmp
    lc_monetary_c.o(locale$$code) refers to lc_monetary_c.o(locale$$data) for __lcmon_c_name
    lc_numeric_c.o(locale$$data) refers (Special) to libinit2.o(.ARM.Collect$$libinit$$00000016) for __rt_lib_init_lc_numeric_2
    lc_numeric_c.o(locale$$code) refers (Special) to libinit2.o(.ARM.Collect$$libinit$$00000016) for __rt_lib_init_lc_numeric_2
    lc_numeric_c.o(locale$$code) refers to strcmpv7m.o(.text) for strcmp
    lc_numeric_c.o(locale$$code) refers to lc_numeric_c.o(locale$$data) for __lcnum_c_name
    exit.o(.text) refers to rtexit.o(.ARM.Collect$$rtexit$$00000000) for __rt_exit
    defsig_exit.o(.text) refers to sys_exit.o(.text) for _sys_exit
    defsig_abrt_inner.o(.text) refers to defsig_general.o(.text) for __default_signal_display
    defsig_rtmem_outer.o(.text) refers to defsig_rtmem_inner.o(.text) for __rt_SIGRTMEM_inner
    defsig_rtmem_outer.o(.text) refers to defsig_exit.o(.text) for __sig_exit
    defsig_rtmem_formal.o(.text) refers to rt_raise.o(.text) for __rt_raise
    heapauxa.o(.text) refers to heapauxa.o(.data) for .data
    _get_argv_nomalloc.o(.text) refers (Special) to hrguard.o(.text) for __heap_region$guard
    _get_argv_nomalloc.o(.text) refers to defsig_rtmem_outer.o(.text) for __rt_SIGRTMEM
    _get_argv_nomalloc.o(.text) refers to sys_command.o(.text) for _sys_command_string
    libinit.o(.ARM.Collect$$libinit$$00000000) refers (Special) to libinit2.o(.ARM.Collect$$libinit$$0000002E) for __rt_lib_init_alloca_1
    libinit.o(.ARM.Collect$$libinit$$00000000) refers (Special) to libinit2.o(.ARM.Collect$$libinit$$0000002C) for __rt_lib_init_argv_1
    libinit.o(.ARM.Collect$$libinit$$00000000) refers (Special) to libinit2.o(.ARM.Collect$$libinit$$0000001B) for __rt_lib_init_atexit_1
    libinit.o(.ARM.Collect$$libinit$$00000000) refers (Special) to libinit2.o(.ARM.Collect$$libinit$$00000021) for __rt_lib_init_clock_1
    libinit.o(.ARM.Collect$$libinit$$00000000) refers (Special) to libinit2.o(.ARM.Collect$$libinit$$00000032) for __rt_lib_init_cpp_1
    libinit.o(.ARM.Collect$$libinit$$00000000) refers (Special) to libinit2.o(.ARM.Collect$$libinit$$00000030) for __rt_lib_init_exceptions_1
    libinit.o(.ARM.Collect$$libinit$$00000000) refers (Special) to libinit2.o(.ARM.Collect$$libinit$$00000001) for __rt_lib_init_fp_1
    libinit.o(.ARM.Collect$$libinit$$00000000) refers (Special) to libinit2.o(.ARM.Collect$$libinit$$0000001F) for __rt_lib_init_fp_trap_1
    libinit.o(.ARM.Collect$$libinit$$00000000) refers (Special) to libinit2.o(.ARM.Collect$$libinit$$00000023) for __rt_lib_init_getenv_1
    libinit.o(.ARM.Collect$$libinit$$00000000) refers (Special) to libinit2.o(.ARM.Collect$$libinit$$0000000A) for __rt_lib_init_heap_1
    libinit.o(.ARM.Collect$$libinit$$00000000) refers (Special) to libinit2.o(.ARM.Collect$$libinit$$00000011) for __rt_lib_init_lc_collate_1
    libinit.o(.ARM.Collect$$libinit$$00000000) refers (Special) to libinit2.o(.ARM.Collect$$libinit$$00000013) for __rt_lib_init_lc_ctype_1
    libinit.o(.ARM.Collect$$libinit$$00000000) refers (Special) to libinit2.o(.ARM.Collect$$libinit$$00000015) for __rt_lib_init_lc_monetary_1
    libinit.o(.ARM.Collect$$libinit$$00000000) refers (Special) to libinit2.o(.ARM.Collect$$libinit$$00000017) for __rt_lib_init_lc_numeric_1
    libinit.o(.ARM.Collect$$libinit$$00000000) refers (Special) to libinit2.o(.ARM.Collect$$libinit$$00000019) for __rt_lib_init_lc_time_1
    libinit.o(.ARM.Collect$$libinit$$00000000) refers (Special) to libinit2.o(.ARM.Collect$$libinit$$00000004) for __rt_lib_init_preinit_1
    libinit.o(.ARM.Collect$$libinit$$00000000) refers (Special) to libinit2.o(.ARM.Collect$$libinit$$0000000E) for __rt_lib_init_rand_1
    libinit.o(.ARM.Collect$$libinit$$00000000) refers (Special) to libinit2.o(.ARM.Collect$$libinit$$00000033) for __rt_lib_init_return
    libinit.o(.ARM.Collect$$libinit$$00000000) refers (Special) to libinit2.o(.ARM.Collect$$libinit$$0000001D) for __rt_lib_init_signal_1
    libinit.o(.ARM.Collect$$libinit$$00000000) refers (Special) to libinit2.o(.ARM.Collect$$libinit$$00000025) for __rt_lib_init_stdio_1
    libinit.o(.ARM.Collect$$libinit$$00000000) refers (Special) to libinit2.o(.ARM.Collect$$libinit$$0000000C) for __rt_lib_init_user_alloc_1
    array_new_general.o(i.__ARM_array_new_general) refers to array_new.o(i._Znaj) for operator new[] (unsigned)
    array_new_general.o(i.__ARM_array_new_general) refers to ARM_vec_cleanup_noexceptions.o(.text) for __ARM_vec_cleanup
    array_new_general.o(i.__ARM_array_new_general) refers to arm_exceptions_terminate.o(.text) for std::terminate()
    array_new_general.o(i.__ARM_array_new_general) refers to arm_rethrow_noexceptions.o(.text) for __cxa_rethrow
    array_new_general.o(i.__ARM_array_new_general.clean) refers to arm_exceptions_cleanup.o(.emb_text) for __cxa_end_cleanup
    array_new_general.o(.ARM.exidx) refers to array_new_general.o(i.__ARM_array_new_general) for i.__ARM_array_new_general
    array_new_general.o(.ARM.exidx) refers to unwind_pr0.o(.text) for __aeabi_unwind_cpp_pr0
    array_new_general.o(.ARM.exidx) refers to array_new_general.o(.ARM.extab) for .extab.__ARM_array_new_general
    array_new_general.o(.ARM.exidx) refers to array_new_general.o(i.__ARM_array_new_general.clean) for i.__ARM_array_new_general.clean
    array_new_general.o(.ARM.extab) refers to array_new_general.o(i.__ARM_array_new_general) for i.__ARM_array_new_general
    array_new_general.o(.ARM.extab) refers to array_new_general.o(i.__ARM_array_new_general.clean) for i.__ARM_array_new_general.clean
    aeabi_vec_dtor_noexceptions.o(.ARM.exidx) refers to aeabi_vec_dtor_noexceptions.o(.text) for .text
    arm_exceptions_alloc.o(.text) refers to arm_exceptions_globs.o(.text) for __cxa_get_globals
    arm_exceptions_alloc.o(.text) refers to h1_alloc.o(.text) for malloc
    arm_exceptions_alloc.o(.text) refers to arm_exceptions_mem.o(.text) for __ARM_exceptions_buffer_allocate
    arm_exceptions_alloc.o(.text) refers to arm_exceptions_callterm.o(.text) for __ARM::call_terminate_handler(_Unwind_Control_Block*)
    arm_exceptions_alloc.o(.ARM.exidx) refers to arm_exceptions_alloc.o(.text) for .text
    arm_exceptions_mem.o(.text) refers to h1_alloc.o(.text) for malloc
    arm_exceptions_mem.o(.ARM.exidx) refers to arm_exceptions_mem.o(.text) for .text
    unwinder.o(.emb_text) refers to unwinder.o(.text) for __ARM_Unwind_RaiseException
    unwinder.o(.text) refers to bsearchnoex.o(.text) for bsearch
    unwinder.o(.text) refers to unwind_activity.o(.emb_text) for _Unwind_Activity
    unwinder.o(.text) refers to abort.o(.text) for abort
    unwinder.o(.text) refers to unwinder.o(.emb_text) for __ARM_Unwind_VRS_corerestore
    unwinder.o(.text) refers to h1_alloc.o(.text) for malloc
    unwinder.o(.text) refers to rt_memcpy_w.o(.text) for __aeabi_memcpy4
    unwinder.o(.text) refers to h1_free.o(.text) for free
    unwinder.o(.text) refers (Weak) to unwind_pr0.o(.text) for __aeabi_unwind_cpp_pr0
    unwinder.o(.text) refers (Weak) to unwind_pr1.o(.text) for __aeabi_unwind_cpp_pr1
    unwinder.o(.ARM.exidx) refers to unwinder.o(.text) for .text
    istatus.o(x$fpl$ieeestatus) refers (Special) to usenofp.o(x$fpl$usenofp) for __I$use$fp
    fpclassify.o(i.__ARM_fpclassify) refers (Special) to usenofp.o(x$fpl$usenofp) for __I$use$fp
    rtexit.o(.ARM.Collect$$rtexit$$00000000) refers (Special) to rtexit2.o(.ARM.Collect$$rtexit$$00000004) for __rt_exit_exit
    rtexit.o(.ARM.Collect$$rtexit$$00000000) refers (Special) to rtexit2.o(.ARM.Collect$$rtexit$$00000003) for __rt_exit_ls
    rtexit.o(.ARM.Collect$$rtexit$$00000000) refers (Special) to rtexit2.o(.ARM.Collect$$rtexit$$00000002) for __rt_exit_prels_1
    rtexit.o(.ARM.exidx) refers (Special) to rtexit2.o(.ARM.Collect$$rtexit$$00000004) for __rt_exit_exit
    rtexit.o(.ARM.exidx) refers (Special) to rtexit2.o(.ARM.Collect$$rtexit$$00000003) for __rt_exit_ls
    rtexit.o(.ARM.exidx) refers (Special) to rtexit2.o(.ARM.Collect$$rtexit$$00000002) for __rt_exit_prels_1
    rtexit.o(.ARM.exidx) refers to rtexit.o(.ARM.Collect$$rtexit$$00000000) for .ARM.Collect$$rtexit$$00000000
    term_alloc.o(.text) refers (Special) to libshutdown2.o(.ARM.Collect$$libshutdown$$0000000E) for __rt_lib_shutdown_heap_2
    term_alloc.o(.text) refers to rt_heap_descriptor_intlibspace.o(.text) for __rt_heap_descriptor
    term_alloc.o(.text) refers to h1_final.o(.text) for __Heap_Finalize
    __raise.o(.text) refers to defsig.o(CL$$defsig) for __default_signal_handler
    defsig_general.o(.text) refers to sys_wrch.o(.text) for _ttywrch
    defsig_rtmem_inner.o(.text) refers to defsig_general.o(.text) for __default_signal_display
    ARM_vec_cleanup_noexceptions.o(.ARM.exidx) refers to ARM_vec_cleanup_noexceptions.o(.text) for .text
    fpconst.o(c$$dinf) refers (Special) to usenofp.o(x$fpl$usenofp) for __I$use$fp
    fpconst.o(c$$dnan) refers (Special) to usenofp.o(x$fpl$usenofp) for __I$use$fp
    fpconst.o(c$$finf) refers (Special) to usenofp.o(x$fpl$usenofp) for __I$use$fp
    fpconst.o(c$$dmax) refers (Special) to usenofp.o(x$fpl$usenofp) for __I$use$fp
    scanf2.o(x$fpl$scanf2) refers to scanf_hexfp.o(.text) for _scanf_really_hex_real
    scanf2.o(x$fpl$scanf2) refers to scanf_infnan.o(.text) for _scanf_really_infnan
    scanf2b.o(x$fpl$scanf2) refers to scanf_hexfp.o(.text) for _scanf_really_hex_real
    scanf2b.o(x$fpl$scanf2) refers to scanf_infnan.o(.text) for _scanf_really_infnan
    narrow.o(i.__hardfp___mathlib_tofloat) refers (Special) to usenofp.o(x$fpl$usenofp) for __I$use$fp
    narrow.o(i.__hardfp___mathlib_tofloat) refers to frexp.o(i.frexp) for frexp
    narrow.o(i.__hardfp___mathlib_tofloat) refers to deqf.o(x$fpl$deqf) for __aeabi_cdcmpeq
    narrow.o(i.__hardfp___mathlib_tofloat) refers to d2f.o(x$fpl$d2f) for __aeabi_d2f
    narrow.o(i.__hardfp___mathlib_tofloat) refers to _rserrno.o(.text) for __set_errno
    narrow.o(i.__hardfp___mathlib_tofloat) refers to drleqf.o(x$fpl$drleqf) for __aeabi_cdrcmple
    narrow.o(i.__mathlib_narrow) refers (Special) to usenofp.o(x$fpl$usenofp) for __I$use$fp
    narrow.o(i.__mathlib_narrow) refers to narrow.o(i.__hardfp___mathlib_tofloat) for __hardfp___mathlib_tofloat
    narrow.o(i.__mathlib_tofloat) refers (Special) to usenofp.o(x$fpl$usenofp) for __I$use$fp
    narrow.o(i.__mathlib_tofloat) refers to narrow.o(i.__hardfp___mathlib_tofloat) for __hardfp___mathlib_tofloat
    narrow.o(i.__softfp___mathlib_tofloat) refers (Special) to usenofp.o(x$fpl$usenofp) for __I$use$fp
    narrow.o(i.__softfp___mathlib_tofloat) refers to narrow.o(i.__hardfp___mathlib_tofloat) for __hardfp___mathlib_tofloat
    sys_wrch.o(.text) refers (Special) to use_no_semi.o(.text) for __I$use$semihosting
    sys_wrch.o(.text) refers (Special) to indicate_semi.o(.text) for __semihosting_library_function
    rtexit2.o(.ARM.Collect$$rtexit$$00000003) refers to libshutdown.o(.ARM.Collect$$libshutdown$$00000000) for __rt_lib_shutdown
    rtexit2.o(.ARM.Collect$$rtexit$$00000004) refers to sys_exit.o(.text) for _sys_exit
    rtexit2.o(.ARM.exidx) refers to rtexit2.o(.ARM.Collect$$rtexit$$00000001) for .ARM.Collect$$rtexit$$00000001
    rtexit2.o(.ARM.exidx) refers to rtexit2.o(.ARM.Collect$$rtexit$$00000003) for .ARM.Collect$$rtexit$$00000003
    rtexit2.o(.ARM.exidx) refers to rtexit2.o(.ARM.Collect$$rtexit$$00000004) for .ARM.Collect$$rtexit$$00000004
    _rserrno.o(.text) refers to rt_errno_addr_intlibspace.o(.text) for __aeabi_errno_addr
    scanf_hexfp.o(.text) refers to _chval.o(.text) for _chval
    scanf_hexfp.o(.text) refers to llshl.o(.text) for __aeabi_llsl
    scanf_hexfp.o(.text) refers to ldexp.o(i.__support_ldexp) for __support_ldexp
    scanf_hexfp.o(.text) refers to narrow.o(i.__mathlib_narrow) for __mathlib_narrow
    defsig.o(CL$$defsig) refers to defsig_abrt_inner.o(.text) for __rt_SIGABRT_inner
    defsig.o(CL$$defsig) refers to defsig_rtmem_inner.o(.text) for __rt_SIGRTMEM_inner
    d2f.o(x$fpl$d2f) refers (Special) to usenofp.o(x$fpl$usenofp) for __I$use$fp
    d2f.o(x$fpl$d2f) refers to fretinf.o(x$fpl$fretinf) for __fpl_fretinf
    d2f.o(x$fpl$d2f) refers to dnaninf.o(x$fpl$dnaninf) for __fpl_dnaninf
    drleqf.o(x$fpl$drleqf) refers (Special) to usenofp.o(x$fpl$usenofp) for __I$use$fp
    drleqf.o(x$fpl$drleqf) refers to dleqf.o(x$fpl$dleqf) for __fpl_dcmple_InfNaN
    frexp.o(i.__hardfp_frexp) refers (Special) to usenofp.o(x$fpl$usenofp) for __I$use$fp
    frexp.o(i.__hardfp_frexp) refers to dmul.o(x$fpl$dmul) for __aeabi_dmul
    frexp.o(i.__softfp_frexp) refers (Special) to usenofp.o(x$fpl$usenofp) for __I$use$fp
    frexp.o(i.__softfp_frexp) refers to dmul.o(x$fpl$dmul) for __aeabi_dmul
    frexp.o(i.frexp) refers (Special) to usenofp.o(x$fpl$usenofp) for __I$use$fp
    frexp.o(i.frexp) refers to dmul.o(x$fpl$dmul) for __aeabi_dmul
    defsig_fpe_inner.o(.text) refers to defsig_general.o(.text) for __default_signal_display
    defsig_rtred_inner.o(.text) refers to defsig_general.o(.text) for __default_signal_display
    defsig_stak_inner.o(.text) refers to defsig_general.o(.text) for __default_signal_display
    defsig_pvfn_inner.o(.text) refers to defsig_general.o(.text) for __default_signal_display
    defsig_cppl_inner.o(.text) refers to defsig_general.o(.text) for __default_signal_display
    defsig_segv_inner.o(.text) refers to defsig_general.o(.text) for __default_signal_display
    defsig_other.o(.text) refers to defsig_general.o(.text) for __default_signal_display
    libshutdown.o(.ARM.Collect$$libshutdown$$00000000) refers (Special) to libshutdown2.o(.ARM.Collect$$libshutdown$$00000002) for __rt_lib_shutdown_cpp_1
    libshutdown.o(.ARM.Collect$$libshutdown$$00000000) refers (Special) to libshutdown2.o(.ARM.Collect$$libshutdown$$00000007) for __rt_lib_shutdown_fp_trap_1
    libshutdown.o(.ARM.Collect$$libshutdown$$00000000) refers (Special) to libshutdown2.o(.ARM.Collect$$libshutdown$$0000000F) for __rt_lib_shutdown_heap_1
    libshutdown.o(.ARM.Collect$$libshutdown$$00000000) refers (Special) to libshutdown2.o(.ARM.Collect$$libshutdown$$00000010) for __rt_lib_shutdown_return
    libshutdown.o(.ARM.Collect$$libshutdown$$00000000) refers (Special) to libshutdown2.o(.ARM.Collect$$libshutdown$$0000000A) for __rt_lib_shutdown_signal_1
    libshutdown.o(.ARM.Collect$$libshutdown$$00000000) refers (Special) to libshutdown2.o(.ARM.Collect$$libshutdown$$00000004) for __rt_lib_shutdown_stdio_1
    libshutdown.o(.ARM.Collect$$libshutdown$$00000000) refers (Special) to libshutdown2.o(.ARM.Collect$$libshutdown$$0000000C) for __rt_lib_shutdown_user_alloc_1
    dmul.o(x$fpl$dmul) refers (Special) to usenofp.o(x$fpl$usenofp) for __I$use$fp
    dmul.o(x$fpl$dmul) refers to dretinf.o(x$fpl$dretinf) for __fpl_dretinf
    dmul.o(x$fpl$dmul) refers to dnaninf.o(x$fpl$dnaninf) for __fpl_dnaninf
    fretinf.o(x$fpl$fretinf) refers (Special) to usenofp.o(x$fpl$usenofp) for __I$use$fp
    ldexp.o(i.__hardfp_ldexp) refers (Special) to usenofp.o(x$fpl$usenofp) for __I$use$fp
    ldexp.o(i.__hardfp_ldexp) refers to deqf.o(x$fpl$deqf) for __aeabi_cdcmpeq
    ldexp.o(i.__hardfp_ldexp) refers to scalbn.o(x$fpl$scalbn) for __ARM_scalbn
    ldexp.o(i.__hardfp_ldexp) refers to _rserrno.o(.text) for __set_errno
    ldexp.o(i.__hardfp_ldexp) refers to dunder.o(i.__mathlib_dbl_underflow) for __mathlib_dbl_underflow
    ldexp.o(i.__hardfp_ldexp) refers to dunder.o(i.__mathlib_dbl_overflow) for __mathlib_dbl_overflow
    ldexp.o(i.__softfp_ldexp) refers (Special) to usenofp.o(x$fpl$usenofp) for __I$use$fp
    ldexp.o(i.__softfp_ldexp) refers to ldexp.o(i.__hardfp_ldexp) for __hardfp_ldexp
    ldexp.o(i.__support_ldexp) refers (Special) to usenofp.o(x$fpl$usenofp) for __I$use$fp
    ldexp.o(i.__support_ldexp) refers to ldexp.o(i.__hardfp_ldexp) for __hardfp_ldexp
    ldexp.o(i.ldexp) refers (Special) to usenofp.o(x$fpl$usenofp) for __I$use$fp
    ldexp.o(i.ldexp) refers to ldexp.o(i.__hardfp_ldexp) for __hardfp_ldexp
    ldexp_x.o(i.____hardfp_ldexp$lsc) refers (Special) to usenofp.o(x$fpl$usenofp) for __I$use$fp
    ldexp_x.o(i.____hardfp_ldexp$lsc) refers to deqf.o(x$fpl$deqf) for __aeabi_cdcmpeq
    ldexp_x.o(i.____hardfp_ldexp$lsc) refers to scalbn.o(x$fpl$scalbn) for __ARM_scalbn
    ldexp_x.o(i.____hardfp_ldexp$lsc) refers to _rserrno.o(.text) for __set_errno
    ldexp_x.o(i.____hardfp_ldexp$lsc) refers to qnan.o(.constdata) for __mathlib_zero
    ldexp_x.o(i.____softfp_ldexp$lsc) refers (Special) to usenofp.o(x$fpl$usenofp) for __I$use$fp
    ldexp_x.o(i.____softfp_ldexp$lsc) refers to ldexp_x.o(i.____hardfp_ldexp$lsc) for ____hardfp_ldexp$lsc
    ldexp_x.o(i.____support_ldexp$lsc) refers (Special) to usenofp.o(x$fpl$usenofp) for __I$use$fp
    ldexp_x.o(i.____support_ldexp$lsc) refers to ldexp_x.o(i.____hardfp_ldexp$lsc) for ____hardfp_ldexp$lsc
    ldexp_x.o(i.__ldexp$lsc) refers (Special) to usenofp.o(x$fpl$usenofp) for __I$use$fp
    ldexp_x.o(i.__ldexp$lsc) refers to ldexp_x.o(i.____hardfp_ldexp$lsc) for ____hardfp_ldexp$lsc
    dretinf.o(x$fpl$dretinf) refers (Special) to usenofp.o(x$fpl$usenofp) for __I$use$fp
    scalbn.o(x$fpl$scalbn) refers (Special) to usenofp.o(x$fpl$usenofp) for __I$use$fp
    scalbn.o(x$fpl$scalbn) refers to dcheck1.o(x$fpl$dcheck1) for __fpl_dcheck_NaN1
    dunder.o(i.__mathlib_dbl_divzero) refers to ddiv.o(x$fpl$ddiv) for __aeabi_ddiv
    dunder.o(i.__mathlib_dbl_infnan) refers to daddsub_clz.o(x$fpl$dadd) for __aeabi_dadd
    dunder.o(i.__mathlib_dbl_infnan2) refers to daddsub_clz.o(x$fpl$dadd) for __aeabi_dadd
    dunder.o(i.__mathlib_dbl_invalid) refers to ddiv.o(x$fpl$ddiv) for __aeabi_ddiv
    dunder.o(i.__mathlib_dbl_overflow) refers to dmul.o(x$fpl$dmul) for __aeabi_dmul
    dunder.o(i.__mathlib_dbl_posinfnan) refers to dmul.o(x$fpl$dmul) for __aeabi_dmul
    dunder.o(i.__mathlib_dbl_underflow) refers to dmul.o(x$fpl$dmul) for __aeabi_dmul
    qnan.o(.constdata) refers (Special) to usenofp.o(x$fpl$usenofp) for __I$use$fp
    daddsub_clz.o(x$fpl$dadd) refers (Special) to usenofp.o(x$fpl$usenofp) for __I$use$fp
    daddsub_clz.o(x$fpl$dadd) refers to daddsub_clz.o(x$fpl$dsub) for _dsub1
    daddsub_clz.o(x$fpl$dadd) refers to dretinf.o(x$fpl$dretinf) for __fpl_dretinf
    daddsub_clz.o(x$fpl$dadd) refers to dnaninf.o(x$fpl$dnaninf) for __fpl_dnaninf
    daddsub_clz.o(x$fpl$drsb) refers (Special) to usenofp.o(x$fpl$usenofp) for __I$use$fp
    daddsub_clz.o(x$fpl$drsb) refers to daddsub_clz.o(x$fpl$dadd) for _dadd1
    daddsub_clz.o(x$fpl$drsb) refers to daddsub_clz.o(x$fpl$dsub) for _dsub1
    daddsub_clz.o(x$fpl$dsub) refers (Special) to usenofp.o(x$fpl$usenofp) for __I$use$fp
    daddsub_clz.o(x$fpl$dsub) refers to daddsub_clz.o(x$fpl$dadd) for _dadd1
    daddsub_clz.o(x$fpl$dsub) refers to dnaninf.o(x$fpl$dnaninf) for __fpl_dnaninf
    dcheck1.o(x$fpl$dcheck1) refers (Special) to usenofp.o(x$fpl$usenofp) for __I$use$fp
    dcheck1.o(x$fpl$dcheck1) refers to retnan.o(x$fpl$retnan) for __fpl_return_NaN
    ddiv.o(x$fpl$drdiv) refers (Special) to usenofp.o(x$fpl$usenofp) for __I$use$fp
    ddiv.o(x$fpl$drdiv) refers to ddiv.o(x$fpl$ddiv) for ddiv_entry
    ddiv.o(x$fpl$ddiv) refers (Special) to usenofp.o(x$fpl$usenofp) for __I$use$fp
    ddiv.o(x$fpl$ddiv) refers to dretinf.o(x$fpl$dretinf) for __fpl_dretinf
    ddiv.o(x$fpl$ddiv) refers to dnaninf.o(x$fpl$dnaninf) for __fpl_dnaninf
    retnan.o(x$fpl$retnan) refers (Special) to usenofp.o(x$fpl$usenofp) for __I$use$fp
    retnan.o(x$fpl$retnan) refers to trapv.o(x$fpl$trapveneer) for __fpl_cmpreturn
    trapv.o(x$fpl$trapveneer) refers (Special) to usenofp.o(x$fpl$usenofp) for __I$use$fp
    main.o(.constdata__ZTVSt8numpunctIcE) refers to main.o(.constdata__ZTISt8numpunctIcE) for typeinfo for std::numpunct<char>
    main.o(.constdata__ZTVSt8numpunctIcE) refers to char.o(i._ZNSt8numpunctIcED1Ev) for std::numpunct<char>::~numpunct()
    main.o(.constdata__ZTVSt8numpunctIcE) refers to char.o(i._ZNSt8numpunctIcED0Ev) for std::numpunct<char>::~numpunct__deallocating()
    main.o(.constdata__ZTVSt8numpunctIcE) refers to char.o(t._ZNSt8numpunctIcE12_C_initfacetERKSt6locale) for std::numpunct<char>::_C_initfacet(const std::locale&)
    main.o(.constdata__ZTVSt8numpunctIcE) refers to char.o(t._ZNKSt8numpunctIcE16do_decimal_pointEv) for std::numpunct<char>::do_decimal_point() const
    main.o(.constdata__ZTVSt8numpunctIcE) refers to char.o(t._ZNKSt8numpunctIcE16do_thousands_sepEv) for std::numpunct<char>::do_thousands_sep() const
    main.o(.constdata__ZTVSt8numpunctIcE) refers to char.o(t._ZNKSt8numpunctIcE11do_groupingEv) for std::numpunct<char>::do_grouping() const
    main.o(.constdata__ZTVSt8numpunctIcE) refers to char.o(t._ZNKSt8numpunctIcE11do_truenameEv) for std::numpunct<char>::do_truename() const
    main.o(.constdata__ZTVSt8numpunctIcE) refers to char.o(t._ZNKSt8numpunctIcE12do_falsenameEv) for std::numpunct<char>::do_falsename() const
    main.o(.constdata__ZTVSt7num_getIcSt19istreambuf_iteratorIcSt11char_traitsIcEEE) refers to main.o(.constdata__ZTISt7num_getIcSt19istreambuf_iteratorIcSt11char_traitsIcEEE) for typeinfo for std::num_get<char, std::istreambuf_iterator<char, std::char_traits<char>>>
    main.o(.constdata__ZTVSt7num_getIcSt19istreambuf_iteratorIcSt11char_traitsIcEEE) refers to main.o(i._ZNSt7num_getIcSt19istreambuf_iteratorIcSt11char_traitsIcEEED1Ev) for std::num_get<char, std::istreambuf_iterator<char, std::char_traits<char>>>::~num_get()
    main.o(.constdata__ZTVSt7num_getIcSt19istreambuf_iteratorIcSt11char_traitsIcEEE) refers to main.o(i._ZNSt7num_getIcSt19istreambuf_iteratorIcSt11char_traitsIcEEED0Ev) for std::num_get<char, std::istreambuf_iterator<char, std::char_traits<char>>>::~num_get__deallocating()
    main.o(.constdata__ZTVSt7num_getIcSt19istreambuf_iteratorIcSt11char_traitsIcEEE) refers to main.o(i._ZN4__rw15__rw_facet_base12_C_initfacetERKSt6locale) for __rw::__rw_facet_base::_C_initfacet(const std::locale&)
    main.o(.constdata__ZTVSt7num_getIcSt19istreambuf_iteratorIcSt11char_traitsIcEEE) refers to main.o(t._ZNKSt7num_getIcSt19istreambuf_iteratorIcSt11char_traitsIcEEE6do_getES3_S3_RSt8ios_baseRiRb) for std::num_get<char, std::istreambuf_iterator<char, std::char_traits<char>>>::do_get(std::istreambuf_iterator<char, std::char_traits<char>>, std::istreambuf_iterator<char, std::char_traits<char>>, std::ios_base&, int&, bool&) const
    main.o(.constdata__ZTVSt7num_getIcSt19istreambuf_iteratorIcSt11char_traitsIcEEE) refers to main.o(t._ZNKSt7num_getIcSt19istreambuf_iteratorIcSt11char_traitsIcEEE6do_getES3_S3_RSt8ios_baseRiRt) for std::num_get<char, std::istreambuf_iterator<char, std::char_traits<char>>>::do_get(std::istreambuf_iterator<char, std::char_traits<char>>, std::istreambuf_iterator<char, std::char_traits<char>>, std::ios_base&, int&, unsigned short&) const
    main.o(.constdata__ZTVSt7num_getIcSt19istreambuf_iteratorIcSt11char_traitsIcEEE) refers to main.o(t._ZNKSt7num_getIcSt19istreambuf_iteratorIcSt11char_traitsIcEEE6do_getES3_S3_RSt8ios_baseRiRj) for std::num_get<char, std::istreambuf_iterator<char, std::char_traits<char>>>::do_get(std::istreambuf_iterator<char, std::char_traits<char>>, std::istreambuf_iterator<char, std::char_traits<char>>, std::ios_base&, int&, unsigned&) const
    main.o(.constdata__ZTVSt7num_getIcSt19istreambuf_iteratorIcSt11char_traitsIcEEE) refers to main.o(t._ZNKSt7num_getIcSt19istreambuf_iteratorIcSt11char_traitsIcEEE6do_getES3_S3_RSt8ios_baseRiRl) for std::num_get<char, std::istreambuf_iterator<char, std::char_traits<char>>>::do_get(std::istreambuf_iterator<char, std::char_traits<char>>, std::istreambuf_iterator<char, std::char_traits<char>>, std::ios_base&, int&, long&) const
    main.o(.constdata__ZTVSt7num_getIcSt19istreambuf_iteratorIcSt11char_traitsIcEEE) refers to main.o(t._ZNKSt7num_getIcSt19istreambuf_iteratorIcSt11char_traitsIcEEE6do_getES3_S3_RSt8ios_baseRiRm) for std::num_get<char, std::istreambuf_iterator<char, std::char_traits<char>>>::do_get(std::istreambuf_iterator<char, std::char_traits<char>>, std::istreambuf_iterator<char, std::char_traits<char>>, std::ios_base&, int&, unsigned long&) const
    main.o(.constdata__ZTVSt7num_getIcSt19istreambuf_iteratorIcSt11char_traitsIcEEE) refers to main.o(t._ZNKSt7num_getIcSt19istreambuf_iteratorIcSt11char_traitsIcEEE6do_getES3_S3_RSt8ios_baseRiRf) for std::num_get<char, std::istreambuf_iterator<char, std::char_traits<char>>>::do_get(std::istreambuf_iterator<char, std::char_traits<char>>, std::istreambuf_iterator<char, std::char_traits<char>>, std::ios_base&, int&, float&) const
    main.o(.constdata__ZTVSt7num_getIcSt19istreambuf_iteratorIcSt11char_traitsIcEEE) refers to main.o(t._ZNKSt7num_getIcSt19istreambuf_iteratorIcSt11char_traitsIcEEE6do_getES3_S3_RSt8ios_baseRiRd) for std::num_get<char, std::istreambuf_iterator<char, std::char_traits<char>>>::do_get(std::istreambuf_iterator<char, std::char_traits<char>>, std::istreambuf_iterator<char, std::char_traits<char>>, std::ios_base&, int&, double&) const
    main.o(.constdata__ZTVSt7num_getIcSt19istreambuf_iteratorIcSt11char_traitsIcEEE) refers to main.o(t._ZNKSt7num_getIcSt19istreambuf_iteratorIcSt11char_traitsIcEEE6do_getES3_S3_RSt8ios_baseRiRe) for std::num_get<char, std::istreambuf_iterator<char, std::char_traits<char>>>::do_get(std::istreambuf_iterator<char, std::char_traits<char>>, std::istreambuf_iterator<char, std::char_traits<char>>, std::ios_base&, int&, long double&) const
    main.o(.constdata__ZTVSt7num_getIcSt19istreambuf_iteratorIcSt11char_traitsIcEEE) refers to main.o(t._ZNKSt7num_getIcSt19istreambuf_iteratorIcSt11char_traitsIcEEE6do_getES3_S3_RSt8ios_baseRiRPv) for std::num_get<char, std::istreambuf_iterator<char, std::char_traits<char>>>::do_get(std::istreambuf_iterator<char, std::char_traits<char>>, std::istreambuf_iterator<char, std::char_traits<char>>, std::ios_base&, int&, void*&) const
    main.o(.constdata__ZTVSt7num_getIcSt19istreambuf_iteratorIcSt11char_traitsIcEEE) refers to main.o(t._ZNKSt7num_getIcSt19istreambuf_iteratorIcSt11char_traitsIcEEE6do_getES3_S3_RSt8ios_baseRiRx) for std::num_get<char, std::istreambuf_iterator<char, std::char_traits<char>>>::do_get(std::istreambuf_iterator<char, std::char_traits<char>>, std::istreambuf_iterator<char, std::char_traits<char>>, std::ios_base&, int&, long long&) const
    main.o(.constdata__ZTVSt7num_getIcSt19istreambuf_iteratorIcSt11char_traitsIcEEE) refers to main.o(t._ZNKSt7num_getIcSt19istreambuf_iteratorIcSt11char_traitsIcEEE6do_getES3_S3_RSt8ios_baseRiRy) for std::num_get<char, std::istreambuf_iterator<char, std::char_traits<char>>>::do_get(std::istreambuf_iterator<char, std::char_traits<char>>, std::istreambuf_iterator<char, std::char_traits<char>>, std::ios_base&, int&, unsigned long long&) const
    main.o(.constdata__ZTVSt7num_putIcSt19ostreambuf_iteratorIcSt11char_traitsIcEEE) refers to main.o(.constdata__ZTISt7num_putIcSt19ostreambuf_iteratorIcSt11char_traitsIcEEE) for typeinfo for std::num_put<char, std::ostreambuf_iterator<char, std::char_traits<char>>>
    main.o(.constdata__ZTVSt7num_putIcSt19ostreambuf_iteratorIcSt11char_traitsIcEEE) refers to main.o(i._ZNSt7num_putIcSt19ostreambuf_iteratorIcSt11char_traitsIcEEED1Ev) for std::num_put<char, std::ostreambuf_iterator<char, std::char_traits<char>>>::~num_put()
    main.o(.constdata__ZTVSt7num_putIcSt19ostreambuf_iteratorIcSt11char_traitsIcEEE) refers to main.o(i._ZNSt7num_putIcSt19ostreambuf_iteratorIcSt11char_traitsIcEEED0Ev) for std::num_put<char, std::ostreambuf_iterator<char, std::char_traits<char>>>::~num_put__deallocating()
    main.o(.constdata__ZTVSt7num_putIcSt19ostreambuf_iteratorIcSt11char_traitsIcEEE) refers to main.o(i._ZN4__rw15__rw_facet_base12_C_initfacetERKSt6locale) for __rw::__rw_facet_base::_C_initfacet(const std::locale&)
    main.o(.constdata__ZTVSt7num_putIcSt19ostreambuf_iteratorIcSt11char_traitsIcEEE) refers to main.o(t._ZNKSt7num_putIcSt19ostreambuf_iteratorIcSt11char_traitsIcEEE6do_putES3_RSt8ios_basecb) for std::num_put<char, std::ostreambuf_iterator<char, std::char_traits<char>>>::do_put(std::ostreambuf_iterator<char, std::char_traits<char>>, std::ios_base&, char, bool) const
    main.o(.constdata__ZTVSt7num_putIcSt19ostreambuf_iteratorIcSt11char_traitsIcEEE) refers to main.o(t._ZNKSt7num_putIcSt19ostreambuf_iteratorIcSt11char_traitsIcEEE6do_putES3_RSt8ios_basecl) for std::num_put<char, std::ostreambuf_iterator<char, std::char_traits<char>>>::do_put(std::ostreambuf_iterator<char, std::char_traits<char>>, std::ios_base&, char, long) const
    main.o(.constdata__ZTVSt7num_putIcSt19ostreambuf_iteratorIcSt11char_traitsIcEEE) refers to main.o(t._ZNKSt7num_putIcSt19ostreambuf_iteratorIcSt11char_traitsIcEEE6do_putES3_RSt8ios_basecm) for std::num_put<char, std::ostreambuf_iterator<char, std::char_traits<char>>>::do_put(std::ostreambuf_iterator<char, std::char_traits<char>>, std::ios_base&, char, unsigned long) const
    main.o(.constdata__ZTVSt7num_putIcSt19ostreambuf_iteratorIcSt11char_traitsIcEEE) refers to main.o(t._ZNKSt7num_putIcSt19ostreambuf_iteratorIcSt11char_traitsIcEEE6do_putES3_RSt8ios_basecd) for std::num_put<char, std::ostreambuf_iterator<char, std::char_traits<char>>>::do_put(std::ostreambuf_iterator<char, std::char_traits<char>>, std::ios_base&, char, double) const
    main.o(.constdata__ZTVSt7num_putIcSt19ostreambuf_iteratorIcSt11char_traitsIcEEE) refers to main.o(t._ZNKSt7num_putIcSt19ostreambuf_iteratorIcSt11char_traitsIcEEE6do_putES3_RSt8ios_basece) for std::num_put<char, std::ostreambuf_iterator<char, std::char_traits<char>>>::do_put(std::ostreambuf_iterator<char, std::char_traits<char>>, std::ios_base&, char, long double) const
    main.o(.constdata__ZTVSt7num_putIcSt19ostreambuf_iteratorIcSt11char_traitsIcEEE) refers to main.o(t._ZNKSt7num_putIcSt19ostreambuf_iteratorIcSt11char_traitsIcEEE6do_putES3_RSt8ios_basecPKv) for std::num_put<char, std::ostreambuf_iterator<char, std::char_traits<char>>>::do_put(std::ostreambuf_iterator<char, std::char_traits<char>>, std::ios_base&, char, const void*) const
    main.o(.constdata__ZTVSt7num_putIcSt19ostreambuf_iteratorIcSt11char_traitsIcEEE) refers to main.o(t._ZNKSt7num_putIcSt19ostreambuf_iteratorIcSt11char_traitsIcEEE6do_putES3_RSt8ios_basecs) for std::num_put<char, std::ostreambuf_iterator<char, std::char_traits<char>>>::do_put(std::ostreambuf_iterator<char, std::char_traits<char>>, std::ios_base&, char, short) const
    main.o(.constdata__ZTVSt7num_putIcSt19ostreambuf_iteratorIcSt11char_traitsIcEEE) refers to main.o(t._ZNKSt7num_putIcSt19ostreambuf_iteratorIcSt11char_traitsIcEEE6do_putES3_RSt8ios_basect) for std::num_put<char, std::ostreambuf_iterator<char, std::char_traits<char>>>::do_put(std::ostreambuf_iterator<char, std::char_traits<char>>, std::ios_base&, char, unsigned short) const
    main.o(.constdata__ZTVSt7num_putIcSt19ostreambuf_iteratorIcSt11char_traitsIcEEE) refers to main.o(t._ZNKSt7num_putIcSt19ostreambuf_iteratorIcSt11char_traitsIcEEE6do_putES3_RSt8ios_baseci) for std::num_put<char, std::ostreambuf_iterator<char, std::char_traits<char>>>::do_put(std::ostreambuf_iterator<char, std::char_traits<char>>, std::ios_base&, char, int) const
    main.o(.constdata__ZTVSt7num_putIcSt19ostreambuf_iteratorIcSt11char_traitsIcEEE) refers to main.o(t._ZNKSt7num_putIcSt19ostreambuf_iteratorIcSt11char_traitsIcEEE6do_putES3_RSt8ios_basecj) for std::num_put<char, std::ostreambuf_iterator<char, std::char_traits<char>>>::do_put(std::ostreambuf_iterator<char, std::char_traits<char>>, std::ios_base&, char, unsigned) const
    main.o(.constdata__ZTVSt7num_putIcSt19ostreambuf_iteratorIcSt11char_traitsIcEEE) refers to main.o(t._ZNKSt7num_putIcSt19ostreambuf_iteratorIcSt11char_traitsIcEEE6do_putES3_RSt8ios_basecx) for std::num_put<char, std::ostreambuf_iterator<char, std::char_traits<char>>>::do_put(std::ostreambuf_iterator<char, std::char_traits<char>>, std::ios_base&, char, long long) const
    main.o(.constdata__ZTVSt7num_putIcSt19ostreambuf_iteratorIcSt11char_traitsIcEEE) refers to main.o(t._ZNKSt7num_putIcSt19ostreambuf_iteratorIcSt11char_traitsIcEEE6do_putES3_RSt8ios_basecy) for std::num_put<char, std::ostreambuf_iterator<char, std::char_traits<char>>>::do_put(std::ostreambuf_iterator<char, std::char_traits<char>>, std::ios_base&, char, unsigned long long) const
    main.o(t._ZNSt9basic_iosIcSt11char_traitsIcEE5clearEii) refers to main.o(t._ZNKSt9basic_iosIcSt11char_traitsIcEE5rdbufEv) for std::basic_ios<char, std::char_traits<char>>::rdbuf() const
    main.o(t._ZNSt9basic_iosIcSt11char_traitsIcEE5clearEii) refers to ios.o(i._ZNSt8ios_base15_C_unsafe_clearEii) for std::ios_base::_C_unsafe_clear(int, int)
    main.o(.ARM.exidx) refers to main.o(t._ZNSt9basic_iosIcSt11char_traitsIcEE5clearEii) for t._ZNSt9basic_iosIcSt11char_traitsIcEE5clearEii
    main.o(t._ZNSt9basic_iosIcSt11char_traitsIcEE8setstateEi) refers to main.o(t._ZNKSt9basic_iosIcSt11char_traitsIcEE7rdstateEv) for std::basic_ios<char, std::char_traits<char>>::rdstate() const
    main.o(t._ZNSt9basic_iosIcSt11char_traitsIcEE8setstateEi) refers to main.o(t._ZNSt9basic_iosIcSt11char_traitsIcEE5clearEii) for std::basic_ios<char, std::char_traits<char>>::clear(int, int)
    main.o(.ARM.exidx) refers to main.o(t._ZNSt9basic_iosIcSt11char_traitsIcEE8setstateEi) for t._ZNSt9basic_iosIcSt11char_traitsIcEE8setstateEi
    main.o(i._ZNKSo9_C_is_stdEv) refers to main.o(i._ZNKSo10_C_is_coutEv) for std::basic_ostream<char, std::char_traits<char>>::_C_is_cout() const
    main.o(i._ZNKSo9_C_is_stdEv) refers to ios.o(.bss) for std::__rw_std_streams
    main.o(.ARM.exidx) refers to main.o(i._ZNKSo9_C_is_stdEv) for i._ZNKSo9_C_is_stdEv
    main.o(t._ZNSo6sentryD1Ev) refers to main.o(i._ZNKSt8ios_base5flagsEv) for std::ios_base::flags() const
    main.o(t._ZNSo6sentryD1Ev) refers to main.o(i._ZNKSo9_C_is_stdEv) for std::basic_ostream<char, std::char_traits<char>>::_C_is_std() const
    main.o(t._ZNSo6sentryD1Ev) refers to ios.o(.data) for std::ios_base::_C_sync_with_stdio
    main.o(.ARM.exidx) refers to main.o(t._ZNSo6sentryD1Ev) for t._ZNSo6sentryD1Ev
    main.o(t._ZNSo6_C_padEl) refers to main.o(t._ZNKSt9basic_iosIcSt11char_traitsIcEE5rdbufEv) for std::basic_ios<char, std::char_traits<char>>::rdbuf() const
    main.o(t._ZNSo6_C_padEl) refers to ios.o(t._ZNSt15basic_streambufIcSt11char_traitsIcEE5sputcEc) for std::basic_streambuf<char, std::char_traits<char>>::sputc(char)
    main.o(t._ZNSo6_C_padEl) refers to ios.o(i._ZNSt11char_traitsIcE11eq_int_typeERKiS2_) for std::char_traits<char>::eq_int_type(const int&, const int&)
    main.o(.ARM.exidx) refers to main.o(t._ZNSo6_C_padEl) for t._ZNSo6_C_padEl
    main.o(t._ZNSo5flushEv) refers to main.o(t._ZNKSt9basic_iosIcSt11char_traitsIcEE5rdbufEv) for std::basic_ios<char, std::char_traits<char>>::rdbuf() const
    main.o(t._ZNSo5flushEv) refers to main.o(t._ZNSt15basic_streambufIcSt11char_traitsIcEE7pubsyncEv) for std::basic_streambuf<char, std::char_traits<char>>::pubsync()
    main.o(t._ZNSo5flushEv) refers to main.o(t._ZNSt9basic_iosIcSt11char_traitsIcEE8setstateEi) for std::basic_ios<char, std::char_traits<char>>::setstate(int)
    main.o(.ARM.exidx) refers to main.o(t._ZNSo5flushEv) for t._ZNSo5flushEv
    main.o(t._ZNSo7_C_opfxEv) refers to main.o(t._ZNKSt9basic_iosIcSt11char_traitsIcEE3tieEv) for std::basic_ios<char, std::char_traits<char>>::tie() const
    main.o(t._ZNSo7_C_opfxEv) refers to main.o(t._ZNSo5flushEv) for std::basic_ostream<char, std::char_traits<char>>::flush()
    main.o(t._ZNSo7_C_opfxEv) refers to main.o(i._ZNKSo10_C_is_coutEv) for std::basic_ostream<char, std::char_traits<char>>::_C_is_cout() const
    main.o(t._ZNSo7_C_opfxEv) refers to uartbsp.o(i.fflush) for fflush
    main.o(t._ZNSo7_C_opfxEv) refers to main.o(i._ZNKSo9_C_is_stdEv) for std::basic_ostream<char, std::char_traits<char>>::_C_is_std() const
    main.o(t._ZNSo7_C_opfxEv) refers to main.o(t._ZNKSt9basic_iosIcSt11char_traitsIcEE5rdbufEv) for std::basic_ios<char, std::char_traits<char>>::rdbuf() const
    main.o(t._ZNSo7_C_opfxEv) refers to ios.o(.data) for std::ios_base::_C_sync_with_stdio
    main.o(t._ZNSo7_C_opfxEv) refers to uartbsp.o(.data) for __stdout
    main.o(.ARM.exidx) refers to main.o(t._ZNSo7_C_opfxEv) for t._ZNSo7_C_opfxEv
    main.o(t._ZNSo6sentryC1ERSo) refers to main.o(t._ZNKSt9basic_iosIcSt11char_traitsIcEE5rdbufEv) for std::basic_ios<char, std::char_traits<char>>::rdbuf() const
    main.o(t._ZNSo6sentryC1ERSo) refers to main.o(t._ZNKSt9basic_iosIcSt11char_traitsIcEE11_C_bufmutexEv) for std::basic_ios<char, std::char_traits<char>>::_C_bufmutex() const
    main.o(t._ZNSo6sentryC1ERSo) refers to main.o(t._ZNSo7_C_opfxEv) for std::basic_ostream<char, std::char_traits<char>>::_C_opfx()
    main.o(t._ZNSo6sentryC1ERSo) refers to main.o(t._ZNKSt9basic_iosIcSt11char_traitsIcEE4goodEv) for std::basic_ios<char, std::char_traits<char>>::good() const
    main.o(.ARM.exidx) refers to main.o(t._ZNSo6sentryC1ERSo) for t._ZNSo6sentryC1ERSo
    main.o(t._ZN4__rw11__rw_insertIcSt11char_traitsIcEcEERSt13basic_ostreamIT_T0_ES7_PT1_ll) refers to main.o(t._ZNSo6sentryC1ERSo) for std::basic_ostream<char, std::char_traits<char>>::sentry::sentry(std::basic_ostream<char, std::char_traits<char>>&)
    main.o(t._ZN4__rw11__rw_insertIcSt11char_traitsIcEcEERSt13basic_ostreamIT_T0_ES7_PT1_ll) refers to main.o(i._ZNKSt8ios_base5flagsEv) for std::ios_base::flags() const
    main.o(t._ZN4__rw11__rw_insertIcSt11char_traitsIcEcEERSt13basic_ostreamIT_T0_ES7_PT1_ll) refers to main.o(t._ZNSo6_C_padEl) for std::basic_ostream<char, std::char_traits<char>>::_C_pad(long)
    main.o(t._ZN4__rw11__rw_insertIcSt11char_traitsIcEcEERSt13basic_ostreamIT_T0_ES7_PT1_ll) refers to main.o(t._ZNKSt9basic_iosIcSt11char_traitsIcEE5rdbufEv) for std::basic_ios<char, std::char_traits<char>>::rdbuf() const
    main.o(t._ZN4__rw11__rw_insertIcSt11char_traitsIcEcEERSt13basic_ostreamIT_T0_ES7_PT1_ll) refers to main.o(t._ZNSo6sentryD1Ev) for std::basic_ostream<char, std::char_traits<char>>::sentry::~sentry()
    main.o(t._ZN4__rw11__rw_insertIcSt11char_traitsIcEcEERSt13basic_ostreamIT_T0_ES7_PT1_ll) refers to main.o(t._ZNSt9basic_iosIcSt11char_traitsIcEE8setstateEi) for std::basic_ios<char, std::char_traits<char>>::setstate(int)
    main.o(.ARM.exidx) refers to main.o(t._ZN4__rw11__rw_insertIcSt11char_traitsIcEcEERSt13basic_ostreamIT_T0_ES7_PT1_ll) for t._ZN4__rw11__rw_insertIcSt11char_traitsIcEcEERSt13basic_ostreamIT_T0_ES7_PT1_ll
    main.o(t._ZStlsISt11char_traitsIcEERSt13basic_ostreamIcT_ES5_PKc) refers to main.o(i._ZNSt11char_traitsIcE6lengthEPKc) for std::char_traits<char>::length(const char*)
    main.o(t._ZStlsISt11char_traitsIcEERSt13basic_ostreamIcT_ES5_PKc) refers to main.o(t._ZN4__rw11__rw_insertIcSt11char_traitsIcEcEERSt13basic_ostreamIT_T0_ES7_PT1_ll) for std::basic_ostream<T1, T2>& __rw::__rw_insert<char, std::char_traits<char>, char>(std::basic_ostream<T1, T2>&, T3*, long, long)
    main.o(t._ZStlsISt11char_traitsIcEERSt13basic_ostreamIcT_ES5_PKc) refers to main.o(i._ZNSt8ios_base5widthEl) for std::ios_base::width(long)
    main.o(.ARM.exidx) refers to main.o(t._ZStlsISt11char_traitsIcEERSt13basic_ostreamIcT_ES5_PKc) for t._ZStlsISt11char_traitsIcEERSt13basic_ostreamIcT_ES5_PKc
    main.o(t._ZN4__rw23__rw_create_named_facetISt7num_putIcSt19ostreambuf_iteratorIcSt11char_traitsIcEEEEEPT_S8_PKcj) refers to new.o(i._Znwj) for operator new(unsigned)
    main.o(t._ZN4__rw23__rw_create_named_facetISt7num_putIcSt19ostreambuf_iteratorIcSt11char_traitsIcEEEEEPT_S8_PKcj) refers to main.o(t._ZNSt7num_putIcSt19ostreambuf_iteratorIcSt11char_traitsIcEEEC1Ej) for std::num_put<char, std::ostreambuf_iterator<char, std::char_traits<char>>>::num_put(unsigned)
    main.o(t._ZN4__rw23__rw_create_named_facetISt7num_putIcSt19ostreambuf_iteratorIcSt11char_traitsIcEEEEEPT_S8_PKcj) refers to main.o(i._ZN4__rw15__rw_facet_base10_C_set_refEj) for __rw::__rw_facet_base::_C_set_ref(unsigned)
    main.o(.ARM.exidx) refers to main.o(t._ZN4__rw23__rw_create_named_facetISt7num_putIcSt19ostreambuf_iteratorIcSt11char_traitsIcEEEEEPT_S8_PKcj) for t._ZN4__rw23__rw_create_named_facetISt7num_putIcSt19ostreambuf_iteratorIcSt11char_traitsIcEEEEEPT_S8_PKcj
    main.o(t._ZN4__rw11__rw_insertIcSt11char_traitsIcEiEERSt13basic_ostreamIT_T0_ES7_T1_) refers to main.o(t._ZNSo6sentryC1ERSo) for std::basic_ostream<char, std::char_traits<char>>::sentry::sentry(std::basic_ostream<char, std::char_traits<char>>&)
    main.o(t._ZN4__rw11__rw_insertIcSt11char_traitsIcEiEERSt13basic_ostreamIT_T0_ES7_T1_) refers to main.o(i._ZNSt8ios_base6getlocEv) for std::ios_base::getloc()
    main.o(t._ZN4__rw11__rw_insertIcSt11char_traitsIcEiEERSt13basic_ostreamIT_T0_ES7_T1_) refers to ios.o(i._ZNKSt6locale12_C_use_facetERKNS_2idEbiPFPN4__rw15__rw_facet_baseEiPKcjE) for std::locale::_C_use_facet(const std::locale::id&, bool, int, __rw::__rw_facet_base*(*)(int, const char*, unsigned)) const
    main.o(t._ZN4__rw11__rw_insertIcSt11char_traitsIcEiEERSt13basic_ostreamIT_T0_ES7_T1_) refers to main.o(t._ZNKSt9basic_iosIcSt11char_traitsIcEE5rdbufEv) for std::basic_ios<char, std::char_traits<char>>::rdbuf() const
    main.o(t._ZN4__rw11__rw_insertIcSt11char_traitsIcEiEERSt13basic_ostreamIT_T0_ES7_T1_) refers to main.o(t._ZNKSt19ostreambuf_iteratorIcSt11char_traitsIcEE6failedEv) for std::ostreambuf_iterator<char, std::char_traits<char>>::failed() const
    main.o(t._ZN4__rw11__rw_insertIcSt11char_traitsIcEiEERSt13basic_ostreamIT_T0_ES7_T1_) refers to main.o(i._ZNSt8ios_base5widthEl) for std::ios_base::width(long)
    main.o(t._ZN4__rw11__rw_insertIcSt11char_traitsIcEiEERSt13basic_ostreamIT_T0_ES7_T1_) refers to main.o(t._ZNSt9basic_iosIcSt11char_traitsIcEE8setstateEi) for std::basic_ios<char, std::char_traits<char>>::setstate(int)
    main.o(t._ZN4__rw11__rw_insertIcSt11char_traitsIcEiEERSt13basic_ostreamIT_T0_ES7_T1_) refers to main.o(t._ZNSo6sentryD1Ev) for std::basic_ostream<char, std::char_traits<char>>::sentry::~sentry()
    main.o(t._ZN4__rw11__rw_insertIcSt11char_traitsIcEiEERSt13basic_ostreamIT_T0_ES7_T1_) refers to main.o(t._ZN4__rw16__rw_facet_makerISt7num_putIcSt19ostreambuf_iteratorIcSt11char_traitsIcEEEE13_C_maker_funcEiPKcj) for __rw::__rw_facet_maker<std::num_put<char, std::ostreambuf_iterator<char, std::char_traits<char>>>>::_C_maker_func(int, const char*, unsigned)
    main.o(t._ZN4__rw11__rw_insertIcSt11char_traitsIcEiEERSt13basic_ostreamIT_T0_ES7_T1_) refers to main.o(.data__ZNSt7num_putIcSt19ostreambuf_iteratorIcSt11char_traitsIcEEE2idE) for std::num_put<char, std::ostreambuf_iterator<char, std::char_traits<char>>>::id
    main.o(.ARM.exidx) refers to main.o(t._ZN4__rw11__rw_insertIcSt11char_traitsIcEiEERSt13basic_ostreamIT_T0_ES7_T1_) for t._ZN4__rw11__rw_insertIcSt11char_traitsIcEiEERSt13basic_ostreamIT_T0_ES7_T1_
    main.o(t._ZN4__rw23__rw_create_named_facetISt7num_getIcSt19istreambuf_iteratorIcSt11char_traitsIcEEEEEPT_S8_PKcj) refers to new.o(i._Znwj) for operator new(unsigned)
    main.o(t._ZN4__rw23__rw_create_named_facetISt7num_getIcSt19istreambuf_iteratorIcSt11char_traitsIcEEEEEPT_S8_PKcj) refers to main.o(t._ZNSt7num_getIcSt19istreambuf_iteratorIcSt11char_traitsIcEEEC1Ej) for std::num_get<char, std::istreambuf_iterator<char, std::char_traits<char>>>::num_get(unsigned)
    main.o(t._ZN4__rw23__rw_create_named_facetISt7num_getIcSt19istreambuf_iteratorIcSt11char_traitsIcEEEEEPT_S8_PKcj) refers to main.o(i._ZN4__rw15__rw_facet_base10_C_set_refEj) for __rw::__rw_facet_base::_C_set_ref(unsigned)
    main.o(.ARM.exidx) refers to main.o(t._ZN4__rw23__rw_create_named_facetISt7num_getIcSt19istreambuf_iteratorIcSt11char_traitsIcEEEEEPT_S8_PKcj) for t._ZN4__rw23__rw_create_named_facetISt7num_getIcSt19istreambuf_iteratorIcSt11char_traitsIcEEEEEPT_S8_PKcj
    main.o(i._ZN4__rw17__rw_digit_readerIcSt19istreambuf_iteratorIcSt11char_traitsIcEEED1Ev) refers to array_del.o(i._ZdaPv) for operator delete[] (void*)
    main.o(.ARM.exidx) refers to main.o(i._ZN4__rw17__rw_digit_readerIcSt19istreambuf_iteratorIcSt11char_traitsIcEEED1Ev) for i._ZN4__rw17__rw_digit_readerIcSt19istreambuf_iteratorIcSt11char_traitsIcEEED1Ev
    main.o(t._ZNSt15basic_streambufIcSt11char_traitsIcEE5sgetcEv) refers to main.o(t._ZNKSt15basic_streambufIcSt11char_traitsIcEE4gptrEv) for std::basic_streambuf<char, std::char_traits<char>>::gptr() const
    main.o(t._ZNSt15basic_streambufIcSt11char_traitsIcEE5sgetcEv) refers to main.o(i._ZNSt11char_traitsIcE11to_int_typeERKc) for std::char_traits<char>::to_int_type(const char&)
    main.o(.ARM.exidx) refers to main.o(t._ZNSt15basic_streambufIcSt11char_traitsIcEE5sgetcEv) for t._ZNSt15basic_streambufIcSt11char_traitsIcEE5sgetcEv
    main.o(t._ZNK4__rw17__rw_digit_readerIcSt19istreambuf_iteratorIcSt11char_traitsIcEEE3eofEv) refers to main.o(t._ZNSt15basic_streambufIcSt11char_traitsIcEE5sgetcEv) for std::basic_streambuf<char, std::char_traits<char>>::sgetc()
    main.o(.ARM.exidx) refers to main.o(t._ZNK4__rw17__rw_digit_readerIcSt19istreambuf_iteratorIcSt11char_traitsIcEEE3eofEv) for t._ZNK4__rw17__rw_digit_readerIcSt19istreambuf_iteratorIcSt11char_traitsIcEEE3eofEv
    main.o(t._ZNSt15basic_streambufIcSt11char_traitsIcEE6sbumpcEv) refers to main.o(t._ZNKSt15basic_streambufIcSt11char_traitsIcEE4gptrEv) for std::basic_streambuf<char, std::char_traits<char>>::gptr() const
    main.o(t._ZNSt15basic_streambufIcSt11char_traitsIcEE6sbumpcEv) refers to main.o(i._ZNSt11char_traitsIcE11to_int_typeERKc) for std::char_traits<char>::to_int_type(const char&)
    main.o(.ARM.exidx) refers to main.o(t._ZNSt15basic_streambufIcSt11char_traitsIcEE6sbumpcEv) for t._ZNSt15basic_streambufIcSt11char_traitsIcEE6sbumpcEv
    main.o(t._ZNKSt19istreambuf_iteratorIcSt11char_traitsIcEEdeEv) refers to main.o(t._ZNSt15basic_streambufIcSt11char_traitsIcEE5sgetcEv) for std::basic_streambuf<char, std::char_traits<char>>::sgetc()
    main.o(.ARM.exidx) refers to main.o(t._ZNKSt19istreambuf_iteratorIcSt11char_traitsIcEEdeEv) for t._ZNKSt19istreambuf_iteratorIcSt11char_traitsIcEEdeEv
    main.o(t._ZN4__rw17__rw_digit_readerIcSt19istreambuf_iteratorIcSt11char_traitsIcEEE19_C_get_digit_stringEPcb) refers to main.o(t._ZNKSt19istreambuf_iteratorIcSt11char_traitsIcEEdeEv) for std::istreambuf_iterator<char, std::char_traits<char>>::operator *() const
    main.o(t._ZN4__rw17__rw_digit_readerIcSt19istreambuf_iteratorIcSt11char_traitsIcEEE19_C_get_digit_stringEPcb) refers to vendor.o(i._ZN4__rw22__rw_digit_reader_base10_C_reallocERPcS1_Rj) for __rw::__rw_digit_reader_base::_C_realloc(char*&, char*, unsigned&)
    main.o(t._ZN4__rw17__rw_digit_readerIcSt19istreambuf_iteratorIcSt11char_traitsIcEEE19_C_get_digit_stringEPcb) refers to main.o(t._ZNSt19istreambuf_iteratorIcSt11char_traitsIcEEppEv) for std::istreambuf_iterator<char, std::char_traits<char>>::operator ++()
    main.o(t._ZN4__rw17__rw_digit_readerIcSt19istreambuf_iteratorIcSt11char_traitsIcEEE19_C_get_digit_stringEPcb) refers to main.o(t._ZNK4__rw17__rw_digit_readerIcSt19istreambuf_iteratorIcSt11char_traitsIcEEE3eofEv) for __rw::__rw_digit_reader<char, std::istreambuf_iterator<char, std::char_traits<char>>>::eof() const
    main.o(t._ZN4__rw17__rw_digit_readerIcSt19istreambuf_iteratorIcSt11char_traitsIcEEE19_C_get_digit_stringEPcb) refers to locale.o(.constdata) for __rw::__rw_digit_map_base::_C_punct_chars
    main.o(.ARM.exidx) refers to main.o(t._ZN4__rw17__rw_digit_readerIcSt19istreambuf_iteratorIcSt11char_traitsIcEEE19_C_get_digit_stringEPcb) for t._ZN4__rw17__rw_digit_readerIcSt19istreambuf_iteratorIcSt11char_traitsIcEEE19_C_get_digit_stringEPcb
    main.o(t._ZN4__rw17__rw_digit_readerIcSt19istreambuf_iteratorIcSt11char_traitsIcEEE19_C_get_digit_groupsEPc) refers to main.o(t._ZN4__rw17__rw_digit_readerIcSt19istreambuf_iteratorIcSt11char_traitsIcEEE19_C_get_digit_stringEPcb) for __rw::__rw_digit_reader<char, std::istreambuf_iterator<char, std::char_traits<char>>>::_C_get_digit_string(char*, bool)
    main.o(t._ZN4__rw17__rw_digit_readerIcSt19istreambuf_iteratorIcSt11char_traitsIcEEE19_C_get_digit_groupsEPc) refers to main.o(t._ZNK4__rw17__rw_digit_readerIcSt19istreambuf_iteratorIcSt11char_traitsIcEEE3eofEv) for __rw::__rw_digit_reader<char, std::istreambuf_iterator<char, std::char_traits<char>>>::eof() const
    main.o(t._ZN4__rw17__rw_digit_readerIcSt19istreambuf_iteratorIcSt11char_traitsIcEEE19_C_get_digit_groupsEPc) refers to main.o(t._ZNKSt19istreambuf_iteratorIcSt11char_traitsIcEEdeEv) for std::istreambuf_iterator<char, std::char_traits<char>>::operator *() const
    main.o(t._ZN4__rw17__rw_digit_readerIcSt19istreambuf_iteratorIcSt11char_traitsIcEEE19_C_get_digit_groupsEPc) refers to main.o(t._ZNSt19istreambuf_iteratorIcSt11char_traitsIcEEppEv) for std::istreambuf_iterator<char, std::char_traits<char>>::operator ++()
    main.o(.ARM.exidx) refers to main.o(t._ZN4__rw17__rw_digit_readerIcSt19istreambuf_iteratorIcSt11char_traitsIcEEE19_C_get_digit_groupsEPc) for t._ZN4__rw17__rw_digit_readerIcSt19istreambuf_iteratorIcSt11char_traitsIcEEE19_C_get_digit_groupsEPc
    main.o(i._ZNKSt8ios_base7_C_baseEv) refers to main.o(i._ZNKSt8ios_base5flagsEv) for std::ios_base::flags() const
    main.o(.ARM.exidx) refers to main.o(i._ZNKSt8ios_base7_C_baseEv) for i._ZNKSt8ios_base7_C_baseEv
    main.o(t._ZN4__rw17__rw_digit_readerIcSt19istreambuf_iteratorIcSt11char_traitsIcEEE13_C_get_digitsEi) refers to main.o(t._ZNK4__rw17__rw_digit_readerIcSt19istreambuf_iteratorIcSt11char_traitsIcEEE3eofEv) for __rw::__rw_digit_reader<char, std::istreambuf_iterator<char, std::char_traits<char>>>::eof() const
    main.o(t._ZN4__rw17__rw_digit_readerIcSt19istreambuf_iteratorIcSt11char_traitsIcEEE13_C_get_digitsEi) refers to main.o(t._ZNKSt19istreambuf_iteratorIcSt11char_traitsIcEEdeEv) for std::istreambuf_iterator<char, std::char_traits<char>>::operator *() const
    main.o(t._ZN4__rw17__rw_digit_readerIcSt19istreambuf_iteratorIcSt11char_traitsIcEEE13_C_get_digitsEi) refers to main.o(t._ZNSt19istreambuf_iteratorIcSt11char_traitsIcEEppEv) for std::istreambuf_iterator<char, std::char_traits<char>>::operator ++()
    main.o(t._ZN4__rw17__rw_digit_readerIcSt19istreambuf_iteratorIcSt11char_traitsIcEEE13_C_get_digitsEi) refers to char.o(i._ZNKSt5ctypeIcE2isENSt10ctype_base4maskEc) for std::ctype<char>::is(std::ctype_base::mask, char) const
    main.o(t._ZN4__rw17__rw_digit_readerIcSt19istreambuf_iteratorIcSt11char_traitsIcEEE13_C_get_digitsEi) refers to main.o(i._ZNKSt8ios_base7_C_baseEv) for std::ios_base::_C_base() const
    main.o(t._ZN4__rw17__rw_digit_readerIcSt19istreambuf_iteratorIcSt11char_traitsIcEEE13_C_get_digitsEi) refers to main.o(i._ZNKSt8ios_base5flagsEv) for std::ios_base::flags() const
    main.o(t._ZN4__rw17__rw_digit_readerIcSt19istreambuf_iteratorIcSt11char_traitsIcEEE13_C_get_digitsEi) refers to main.o(t._ZNK4__rw25__rw_digit_handler_base_1IcE15_C_get_groupingEv) for __rw::__rw_digit_handler_base_1<char>::_C_get_grouping() const
    main.o(t._ZN4__rw17__rw_digit_readerIcSt19istreambuf_iteratorIcSt11char_traitsIcEEE13_C_get_digitsEi) refers to main.o(t._ZN4__rw17__rw_digit_readerIcSt19istreambuf_iteratorIcSt11char_traitsIcEEE19_C_get_digit_stringEPcb) for __rw::__rw_digit_reader<char, std::istreambuf_iterator<char, std::char_traits<char>>>::_C_get_digit_string(char*, bool)
    main.o(t._ZN4__rw17__rw_digit_readerIcSt19istreambuf_iteratorIcSt11char_traitsIcEEE13_C_get_digitsEi) refers to main.o(t._ZN4__rw17__rw_digit_readerIcSt19istreambuf_iteratorIcSt11char_traitsIcEEE19_C_get_digit_groupsEPc) for __rw::__rw_digit_reader<char, std::istreambuf_iterator<char, std::char_traits<char>>>::_C_get_digit_groups(char*)
    main.o(t._ZN4__rw17__rw_digit_readerIcSt19istreambuf_iteratorIcSt11char_traitsIcEEE13_C_get_digitsEi) refers to locale.o(.constdata) for __rw::__rw_digit_map_base::_C_punct_chars
    main.o(.ARM.exidx) refers to main.o(t._ZN4__rw17__rw_digit_readerIcSt19istreambuf_iteratorIcSt11char_traitsIcEEE13_C_get_digitsEi) for t._ZN4__rw17__rw_digit_readerIcSt19istreambuf_iteratorIcSt11char_traitsIcEEE13_C_get_digitsEi
    main.o(t._ZN4__rw23__rw_numpunct_impl_dataIcE20_C_get_init_by_name_EPKc) refers to locale.o(i._ZN4__rw23__rw_numpunct_impl_base18_C_get_named_init_EPKc) for __rw::__rw_numpunct_impl_base::_C_get_named_init_(const char*)
    main.o(.ARM.exidx) refers to main.o(t._ZN4__rw23__rw_numpunct_impl_dataIcE20_C_get_init_by_name_EPKc) for t._ZN4__rw23__rw_numpunct_impl_dataIcE20_C_get_init_by_name_EPKc
    main.o(t._ZNSt8numpunctIcEC1EjPKN4__rw23__rw_numpunct_init_dataIcEE) refers to ios.o(i._ZNSt6locale5facetC1Eji) for std::locale::facet::facet(unsigned, int)
    main.o(t._ZNSt8numpunctIcEC1EjPKN4__rw23__rw_numpunct_init_dataIcEE) refers to main.o(t._ZN4__rw23__rw_numpunct_impl_dataIcEC1EPKNS_23__rw_numpunct_init_dataIcEE) for __rw::__rw_numpunct_impl_data<char>::__rw_numpunct_impl_data(const __rw::__rw_numpunct_init_data<char>*)
    main.o(t._ZNSt8numpunctIcEC1EjPKN4__rw23__rw_numpunct_init_dataIcEE) refers to main.o(.constdata__ZTVSt8numpunctIcE) for vtable for std::numpunct<char>
    main.o(.ARM.exidx) refers to main.o(t._ZNSt8numpunctIcEC1EjPKN4__rw23__rw_numpunct_init_dataIcEE) for t._ZNSt8numpunctIcEC1EjPKN4__rw23__rw_numpunct_init_dataIcEE
    main.o(t._ZNSt15numpunct_bynameIcEC1EPKcj) refers to main.o(t._ZN4__rw23__rw_numpunct_impl_dataIcE20_C_get_init_by_name_EPKc) for __rw::__rw_numpunct_impl_data<char>::_C_get_init_by_name_(const char*)
    main.o(t._ZNSt15numpunct_bynameIcEC1EPKcj) refers to main.o(t._ZNSt8numpunctIcEC1EjPKN4__rw23__rw_numpunct_init_dataIcEE) for std::numpunct<char>::numpunct(unsigned, const __rw::__rw_numpunct_init_data<char>*)
    main.o(t._ZNSt15numpunct_bynameIcEC1EPKcj) refers to main.o(.constdata__ZTVSt15numpunct_bynameIcE) for vtable for std::numpunct_byname<char>
    main.o(.ARM.exidx) refers to main.o(t._ZNSt15numpunct_bynameIcEC1EPKcj) for t._ZNSt15numpunct_bynameIcEC1EPKcj
    main.o(t._ZN4__rw25__rw_digit_handler_base_1IcEC1ERKSt6locale) refers to main.o(t._ZSt9use_facetISt5ctypeIcEERKT_RKSt6locale) for const T1& std::use_facet<std::ctype<char>>(const std::locale&)
    main.o(t._ZN4__rw25__rw_digit_handler_base_1IcEC1ERKSt6locale) refers to ios.o(i._ZNKSt6locale12_C_use_facetERKNS_2idEbiPFPN4__rw15__rw_facet_baseEiPKcjE) for std::locale::_C_use_facet(const std::locale::id&, bool, int, __rw::__rw_facet_base*(*)(int, const char*, unsigned)) const
    main.o(t._ZN4__rw25__rw_digit_handler_base_1IcEC1ERKSt6locale) refers to main.o(t._ZN4__rw16__rw_facet_makerISt8numpunctIcEE13_C_maker_funcEiPKcj) for __rw::__rw_facet_maker<std::numpunct<char>>::_C_maker_func(int, const char*, unsigned)
    main.o(t._ZN4__rw25__rw_digit_handler_base_1IcEC1ERKSt6locale) refers to main.o(.data__ZNSt8numpunctIcE2idE) for std::numpunct<char>::id
    main.o(.ARM.exidx) refers to main.o(t._ZN4__rw25__rw_digit_handler_base_1IcEC1ERKSt6locale) for t._ZN4__rw25__rw_digit_handler_base_1IcEC1ERKSt6locale
    main.o(t._ZN4__rw17__rw_digit_readerIcSt19istreambuf_iteratorIcSt11char_traitsIcEEEC1ERS4_S6_RSt8ios_base) refers to main.o(i._ZNSt8ios_base6getlocEv) for std::ios_base::getloc()
    main.o(t._ZN4__rw17__rw_digit_readerIcSt19istreambuf_iteratorIcSt11char_traitsIcEEEC1ERS4_S6_RSt8ios_base) refers to main.o(i._ZNKSt8ios_base7_C_baseEv) for std::ios_base::_C_base() const
    main.o(t._ZN4__rw17__rw_digit_readerIcSt19istreambuf_iteratorIcSt11char_traitsIcEEEC1ERS4_S6_RSt8ios_base) refers to main.o(t._ZN4__rw25__rw_digit_handler_base_1IcEC1ERKSt6locale) for __rw::__rw_digit_handler_base_1<char>::__rw_digit_handler_base_1(const std::locale&)
    main.o(.ARM.exidx) refers to main.o(t._ZN4__rw17__rw_digit_readerIcSt19istreambuf_iteratorIcSt11char_traitsIcEEEC1ERS4_S6_RSt8ios_base) for t._ZN4__rw17__rw_digit_readerIcSt19istreambuf_iteratorIcSt11char_traitsIcEEEC1ERS4_S6_RSt8ios_base
    main.o(t._ZNSi7_C_ipfxEi) refers to main.o(t._ZNKSt9basic_iosIcSt11char_traitsIcEE7rdstateEv) for std::basic_ios<char, std::char_traits<char>>::rdstate() const
    main.o(t._ZNSi7_C_ipfxEi) refers to main.o(t._ZNKSt9basic_iosIcSt11char_traitsIcEE3tieEv) for std::basic_ios<char, std::char_traits<char>>::tie() const
    main.o(t._ZNSi7_C_ipfxEi) refers to main.o(t._ZNSo5flushEv) for std::basic_ostream<char, std::char_traits<char>>::flush()
    main.o(t._ZNSi7_C_ipfxEi) refers to main.o(t._ZNKSt9basic_iosIcSt11char_traitsIcEE5rdbufEv) for std::basic_ios<char, std::char_traits<char>>::rdbuf() const
    main.o(t._ZNSi7_C_ipfxEi) refers to main.o(t._ZNSt15basic_streambufIcSt11char_traitsIcEE5sgetcEv) for std::basic_streambuf<char, std::char_traits<char>>::sgetc()
    main.o(t._ZNSi7_C_ipfxEi) refers to main.o(i._ZNSt8ios_base6getlocEv) for std::ios_base::getloc()
    main.o(t._ZNSi7_C_ipfxEi) refers to ios.o(i._ZNSt11char_traitsIcE11eq_int_typeERKiS2_) for std::char_traits<char>::eq_int_type(const int&, const int&)
    main.o(t._ZNSi7_C_ipfxEi) refers to main.o(t._ZSt9use_facetISt5ctypeIcEERKT_RKSt6locale) for const T1& std::use_facet<std::ctype<char>>(const std::locale&)
    main.o(t._ZNSi7_C_ipfxEi) refers to char.o(i._ZNKSt5ctypeIcE2isENSt10ctype_base4maskEc) for std::ctype<char>::is(std::ctype_base::mask, char) const
    main.o(t._ZNSi7_C_ipfxEi) refers to main.o(t._ZNSt15basic_streambufIcSt11char_traitsIcEE6sbumpcEv) for std::basic_streambuf<char, std::char_traits<char>>::sbumpc()
    main.o(t._ZNSi7_C_ipfxEi) refers to main.o(t._ZNSt9basic_iosIcSt11char_traitsIcEE8setstateEi) for std::basic_ios<char, std::char_traits<char>>::setstate(int)
    main.o(.ARM.exidx) refers to main.o(t._ZNSi7_C_ipfxEi) for t._ZNSi7_C_ipfxEi
    main.o(t._ZN4__rw12__rw_extractIcSt11char_traitsIcEiEERSt13basic_istreamIT_T0_ES7_RT1_) refers to main.o(t._ZNSi6sentryC1ERSib) for std::basic_istream<char, std::char_traits<char>>::sentry::sentry(std::basic_istream<char, std::char_traits<char>>&, bool)
    main.o(t._ZN4__rw12__rw_extractIcSt11char_traitsIcEiEERSt13basic_istreamIT_T0_ES7_RT1_) refers to main.o(i._ZNSt8ios_base6getlocEv) for std::ios_base::getloc()
    main.o(t._ZN4__rw12__rw_extractIcSt11char_traitsIcEiEERSt13basic_istreamIT_T0_ES7_RT1_) refers to ios.o(i._ZNKSt6locale12_C_use_facetERKNS_2idEbiPFPN4__rw15__rw_facet_baseEiPKcjE) for std::locale::_C_use_facet(const std::locale::id&, bool, int, __rw::__rw_facet_base*(*)(int, const char*, unsigned)) const
    main.o(t._ZN4__rw12__rw_extractIcSt11char_traitsIcEiEERSt13basic_istreamIT_T0_ES7_RT1_) refers to main.o(t._ZNKSt9basic_iosIcSt11char_traitsIcEE5rdbufEv) for std::basic_ios<char, std::char_traits<char>>::rdbuf() const
    main.o(t._ZN4__rw12__rw_extractIcSt11char_traitsIcEiEERSt13basic_istreamIT_T0_ES7_RT1_) refers to main.o(t._ZN4__rw15__rw_num_do_getIcSt19istreambuf_iteratorIcSt11char_traitsIcEEiEET0_T_S5_S5_RSt8ios_baseRiRT1_) for T2 __rw::__rw_num_do_get<char, std::istreambuf_iterator<char, std::char_traits<char>>, int>(T1, T2, T2, std::ios_base&, int&, T3&)
    main.o(t._ZN4__rw12__rw_extractIcSt11char_traitsIcEiEERSt13basic_istreamIT_T0_ES7_RT1_) refers to main.o(t._ZNSt9basic_iosIcSt11char_traitsIcEE8setstateEi) for std::basic_ios<char, std::char_traits<char>>::setstate(int)
    main.o(t._ZN4__rw12__rw_extractIcSt11char_traitsIcEiEERSt13basic_istreamIT_T0_ES7_RT1_) refers to main.o(t._ZN4__rw16__rw_facet_makerISt7num_getIcSt19istreambuf_iteratorIcSt11char_traitsIcEEEE13_C_maker_funcEiPKcj) for __rw::__rw_facet_maker<std::num_get<char, std::istreambuf_iterator<char, std::char_traits<char>>>>::_C_maker_func(int, const char*, unsigned)
    main.o(t._ZN4__rw12__rw_extractIcSt11char_traitsIcEiEERSt13basic_istreamIT_T0_ES7_RT1_) refers to main.o(.data__ZNSt7num_getIcSt19istreambuf_iteratorIcSt11char_traitsIcEEE2idE) for std::num_get<char, std::istreambuf_iterator<char, std::char_traits<char>>>::id
    main.o(.ARM.exidx) refers to main.o(t._ZN4__rw12__rw_extractIcSt11char_traitsIcEiEERSt13basic_istreamIT_T0_ES7_RT1_) for t._ZN4__rw12__rw_extractIcSt11char_traitsIcEiEERSt13basic_istreamIT_T0_ES7_RT1_
    main.o(t._ZN4__rw23__rw_numpunct_impl_dataIcE16_C_initfacetbaseERKSt6locale) refers to main.o(t._ZNKSs5c_strEv) for std::basic_string<char, std::char_traits<char>, std::allocator<char>>::c_str() const
    main.o(.ARM.exidx) refers to main.o(t._ZN4__rw23__rw_numpunct_impl_dataIcE16_C_initfacetbaseERKSt6locale) for t._ZN4__rw23__rw_numpunct_impl_dataIcE16_C_initfacetbaseERKSt6locale
    main.o(t._ZN4__rw17__rw_digit_readerIcSt19istreambuf_iteratorIcSt11char_traitsIcEEE14_C_get_keywordERKNS_16__rw_keyword_mapIcEE) refers to main.o(t._ZNK4__rw17__rw_digit_readerIcSt19istreambuf_iteratorIcSt11char_traitsIcEEE3eofEv) for __rw::__rw_digit_reader<char, std::istreambuf_iterator<char, std::char_traits<char>>>::eof() const
    main.o(t._ZN4__rw17__rw_digit_readerIcSt19istreambuf_iteratorIcSt11char_traitsIcEEE14_C_get_keywordERKNS_16__rw_keyword_mapIcEE) refers to main.o(t._ZNKSt19istreambuf_iteratorIcSt11char_traitsIcEEdeEv) for std::istreambuf_iterator<char, std::char_traits<char>>::operator *() const
    main.o(t._ZN4__rw17__rw_digit_readerIcSt19istreambuf_iteratorIcSt11char_traitsIcEEE14_C_get_keywordERKNS_16__rw_keyword_mapIcEE) refers to main.o(t._ZNSt19istreambuf_iteratorIcSt11char_traitsIcEEppEv) for std::istreambuf_iterator<char, std::char_traits<char>>::operator ++()
    main.o(.ARM.exidx) refers to main.o(t._ZN4__rw17__rw_digit_readerIcSt19istreambuf_iteratorIcSt11char_traitsIcEEE14_C_get_keywordERKNS_16__rw_keyword_mapIcEE) for t._ZN4__rw17__rw_digit_readerIcSt19istreambuf_iteratorIcSt11char_traitsIcEEE14_C_get_keywordERKNS_16__rw_keyword_mapIcEE
    main.o(t._ZNKSt7num_getIcSt19istreambuf_iteratorIcSt11char_traitsIcEEE6do_getES3_S3_RSt8ios_baseRiRb) refers to main.o(t._ZN4__rw17__rw_digit_readerIcSt19istreambuf_iteratorIcSt11char_traitsIcEEEC1ERS4_S6_RSt8ios_base) for __rw::__rw_digit_reader<char, std::istreambuf_iterator<char, std::char_traits<char>>>::__rw_digit_reader(std::istreambuf_iterator<char, std::char_traits<char>>&, std::istreambuf_iterator<char, std::char_traits<char>>&, std::ios_base&)
    main.o(t._ZNKSt7num_getIcSt19istreambuf_iteratorIcSt11char_traitsIcEEE6do_getES3_S3_RSt8ios_baseRiRb) refers to main.o(t._ZN4__rw17__rw_digit_readerIcSt19istreambuf_iteratorIcSt11char_traitsIcEEE13_C_get_digitsEl) for __rw::__rw_digit_reader<char, std::istreambuf_iterator<char, std::char_traits<char>>>::_C_get_digits(long)
    main.o(t._ZNKSt7num_getIcSt19istreambuf_iteratorIcSt11char_traitsIcEEE6do_getES3_S3_RSt8ios_baseRiRb) refers to main.o(i._ZN4__rw22__rw_digit_reader_base8_C_parseEPKcl) for __rw::__rw_digit_reader_base::_C_parse(const char*, long)
    main.o(t._ZNKSt7num_getIcSt19istreambuf_iteratorIcSt11char_traitsIcEEE6do_getES3_S3_RSt8ios_baseRiRb) refers to main.o(i._ZNKSt8ios_base5flagsEv) for std::ios_base::flags() const
    main.o(t._ZNKSt7num_getIcSt19istreambuf_iteratorIcSt11char_traitsIcEEE6do_getES3_S3_RSt8ios_baseRiRb) refers to main.o(t._ZN4__rw17__rw_digit_readerIcSt19istreambuf_iteratorIcSt11char_traitsIcEEE14_C_get_keywordERKNS_16__rw_keyword_mapIcEE) for __rw::__rw_digit_reader<char, std::istreambuf_iterator<char, std::char_traits<char>>>::_C_get_keyword(const __rw::__rw_keyword_map<char>&)
    main.o(t._ZNKSt7num_getIcSt19istreambuf_iteratorIcSt11char_traitsIcEEE6do_getES3_S3_RSt8ios_baseRiRb) refers to main.o(t._ZNK4__rw17__rw_digit_readerIcSt19istreambuf_iteratorIcSt11char_traitsIcEEE3eofEv) for __rw::__rw_digit_reader<char, std::istreambuf_iterator<char, std::char_traits<char>>>::eof() const
    main.o(t._ZNKSt7num_getIcSt19istreambuf_iteratorIcSt11char_traitsIcEEE6do_getES3_S3_RSt8ios_baseRiRb) refers to main.o(i._ZN4__rw17__rw_digit_readerIcSt19istreambuf_iteratorIcSt11char_traitsIcEEED1Ev) for __rw::__rw_digit_reader<char, std::istreambuf_iterator<char, std::char_traits<char>>>::~__rw_digit_reader()
    main.o(.ARM.exidx) refers to main.o(t._ZNKSt7num_getIcSt19istreambuf_iteratorIcSt11char_traitsIcEEE6do_getES3_S3_RSt8ios_baseRiRb) for t._ZNKSt7num_getIcSt19istreambuf_iteratorIcSt11char_traitsIcEEE6do_getES3_S3_RSt8ios_baseRiRb
    main.o(t._ZN4__rw17__rw_digit_readerIcSt19istreambuf_iteratorIcSt11char_traitsIcEEE13_C_get_digitsEd) refers to main.o(t._ZN4__rw17__rw_digit_readerIcSt19istreambuf_iteratorIcSt11char_traitsIcEEE13_C_get_digitsEi) for __rw::__rw_digit_reader<char, std::istreambuf_iterator<char, std::char_traits<char>>>::_C_get_digits(int)
    main.o(t._ZN4__rw17__rw_digit_readerIcSt19istreambuf_iteratorIcSt11char_traitsIcEEE13_C_get_digitsEd) refers to main.o(t._ZNK4__rw17__rw_digit_readerIcSt19istreambuf_iteratorIcSt11char_traitsIcEEE3eofEv) for __rw::__rw_digit_reader<char, std::istreambuf_iterator<char, std::char_traits<char>>>::eof() const
    main.o(t._ZN4__rw17__rw_digit_readerIcSt19istreambuf_iteratorIcSt11char_traitsIcEEE13_C_get_digitsEd) refers to main.o(t._ZNKSt19istreambuf_iteratorIcSt11char_traitsIcEEdeEv) for std::istreambuf_iterator<char, std::char_traits<char>>::operator *() const
    main.o(t._ZN4__rw17__rw_digit_readerIcSt19istreambuf_iteratorIcSt11char_traitsIcEEE13_C_get_digitsEd) refers to main.o(t._ZNSt19istreambuf_iteratorIcSt11char_traitsIcEEppEv) for std::istreambuf_iterator<char, std::char_traits<char>>::operator ++()
    main.o(t._ZN4__rw17__rw_digit_readerIcSt19istreambuf_iteratorIcSt11char_traitsIcEEE13_C_get_digitsEd) refers to main.o(t._ZN4__rw17__rw_digit_readerIcSt19istreambuf_iteratorIcSt11char_traitsIcEEE19_C_get_digit_stringEPcb) for __rw::__rw_digit_reader<char, std::istreambuf_iterator<char, std::char_traits<char>>>::_C_get_digit_string(char*, bool)
    main.o(t._ZN4__rw17__rw_digit_readerIcSt19istreambuf_iteratorIcSt11char_traitsIcEEE13_C_get_digitsEd) refers to main.o(i._ZNSt8ios_base6getlocEv) for std::ios_base::getloc()
    main.o(t._ZN4__rw17__rw_digit_readerIcSt19istreambuf_iteratorIcSt11char_traitsIcEEE13_C_get_digitsEd) refers to main.o(t._ZSt9use_facetISt5ctypeIcEERKT_RKSt6locale) for const T1& std::use_facet<std::ctype<char>>(const std::locale&)
    main.o(t._ZN4__rw17__rw_digit_readerIcSt19istreambuf_iteratorIcSt11char_traitsIcEEE13_C_get_digitsEd) refers to main.o(i._ZNKSt5ctypeIcE7tolowerEc) for std::ctype<char>::tolower(char) const
    main.o(t._ZN4__rw17__rw_digit_readerIcSt19istreambuf_iteratorIcSt11char_traitsIcEEE13_C_get_digitsEd) refers to main.o(t._ZNSt19istreambuf_iteratorIcSt11char_traitsIcEEppEi) for std::istreambuf_iterator<char, std::char_traits<char>>::operator ++(int)
    main.o(t._ZN4__rw17__rw_digit_readerIcSt19istreambuf_iteratorIcSt11char_traitsIcEEE13_C_get_digitsEd) refers to locale.o(.constdata) for __rw::__rw_digit_map_base::_C_punct_chars
    main.o(t._ZN4__rw17__rw_digit_readerIcSt19istreambuf_iteratorIcSt11char_traitsIcEEE13_C_get_digitsEd) refers to main.o(.constdata__ZZN4__rw17__rw_digit_readerIcSt19istreambuf_iteratorIcSt11char_traitsIcEEE13_C_get_digitsEdE5__inf) for __rw::__rw_digit_reader<char, std::istreambuf_iterator<char, std::char_traits<char>>>::_C_get_digits(double)::__inf
    main.o(t._ZN4__rw17__rw_digit_readerIcSt19istreambuf_iteratorIcSt11char_traitsIcEEE13_C_get_digitsEd) refers to main.o(.constdata__ZZN4__rw17__rw_digit_readerIcSt19istreambuf_iteratorIcSt11char_traitsIcEEE13_C_get_digitsEdEs_0) for __rw::__rw_digit_reader<char, std::istreambuf_iterator<char, std::char_traits<char>>>::_C_get_digits(double)::string (instance 2)
    main.o(.ARM.exidx) refers to main.o(t._ZN4__rw17__rw_digit_readerIcSt19istreambuf_iteratorIcSt11char_traitsIcEEE13_C_get_digitsEd) for t._ZN4__rw17__rw_digit_readerIcSt19istreambuf_iteratorIcSt11char_traitsIcEEE13_C_get_digitsEd
    main.o(.ARM.exidx) refers to main.o(i._ZNSt7num_getIcSt19istreambuf_iteratorIcSt11char_traitsIcEEED1Ev) for i._ZNSt7num_getIcSt19istreambuf_iteratorIcSt11char_traitsIcEEED1Ev
    main.o(i._ZN4__rw22__rw_digit_writer_baseD1Ev) refers to array_del.o(i._ZdaPv) for operator delete[] (void*)
    main.o(i._ZN4__rw22__rw_digit_writer_baseD1Ev) refers to main.o(.constdata__ZTVN4__rw22__rw_digit_writer_baseE) for vtable for __rw::__rw_digit_writer_base
    main.o(.ARM.exidx) refers to main.o(i._ZN4__rw22__rw_digit_writer_baseD1Ev) for i._ZN4__rw22__rw_digit_writer_baseD1Ev
    main.o(t._ZNSt19ostreambuf_iteratorIcSt11char_traitsIcEEaSEc) refers to main.o(t._ZNKSt19ostreambuf_iteratorIcSt11char_traitsIcEE6failedEv) for std::ostreambuf_iterator<char, std::char_traits<char>>::failed() const
    main.o(t._ZNSt19ostreambuf_iteratorIcSt11char_traitsIcEEaSEc) refers to ios.o(t._ZNSt15basic_streambufIcSt11char_traitsIcEE5sputcEc) for std::basic_streambuf<char, std::char_traits<char>>::sputc(char)
    main.o(t._ZNSt19ostreambuf_iteratorIcSt11char_traitsIcEEaSEc) refers to ios.o(i._ZNSt11char_traitsIcE11eq_int_typeERKiS2_) for std::char_traits<char>::eq_int_type(const int&, const int&)
    main.o(.ARM.exidx) refers to main.o(t._ZNSt19ostreambuf_iteratorIcSt11char_traitsIcEEaSEc) for t._ZNSt19ostreambuf_iteratorIcSt11char_traitsIcEEaSEc
    main.o(t._ZN4__rw17__rw_digit_writerIcSt19ostreambuf_iteratorIcSt11char_traitsIcEEE13_C_put_digitsEc) refers to main.o(t._ZNK4__rw25__rw_digit_handler_base_1IcE15_C_get_groupingEv) for __rw::__rw_digit_handler_base_1<char>::_C_get_grouping() const
    main.o(t._ZN4__rw17__rw_digit_writerIcSt19ostreambuf_iteratorIcSt11char_traitsIcEEE13_C_put_digitsEc) refers to vendor.o(i._ZN4__rw22__rw_digit_writer_base14_C_calc_groupsEiPKc) for __rw::__rw_digit_writer_base::_C_calc_groups(int, const char*)
    main.o(t._ZN4__rw17__rw_digit_writerIcSt19ostreambuf_iteratorIcSt11char_traitsIcEEE13_C_put_digitsEc) refers to array_new.o(i._Znaj) for operator new[] (unsigned)
    main.o(t._ZN4__rw17__rw_digit_writerIcSt19ostreambuf_iteratorIcSt11char_traitsIcEEE13_C_put_digitsEc) refers to main.o(t._ZNSt19ostreambuf_iteratorIcSt11char_traitsIcEEaSEc) for std::ostreambuf_iterator<char, std::char_traits<char>>::operator =(char)
    main.o(t._ZN4__rw17__rw_digit_writerIcSt19ostreambuf_iteratorIcSt11char_traitsIcEEE13_C_put_digitsEc) refers to array_del.o(i._ZdaPv) for operator delete[] (void*)
    main.o(.ARM.exidx) refers to main.o(t._ZN4__rw17__rw_digit_writerIcSt19ostreambuf_iteratorIcSt11char_traitsIcEEE13_C_put_digitsEc) for t._ZN4__rw17__rw_digit_writerIcSt19ostreambuf_iteratorIcSt11char_traitsIcEEE13_C_put_digitsEc
    main.o(t._ZN4__rw17__rw_digit_writerIcSt19ostreambuf_iteratorIcSt11char_traitsIcEEE14_C_put_keywordERKSsc) refers to main.o(t._ZNKSs6lengthEv) for std::basic_string<char, std::char_traits<char>, std::allocator<char>>::length() const
    main.o(t._ZN4__rw17__rw_digit_writerIcSt19ostreambuf_iteratorIcSt11char_traitsIcEEE14_C_put_keywordERKSsc) refers to main.o(t._ZNSt19ostreambuf_iteratorIcSt11char_traitsIcEEaSEc) for std::ostreambuf_iterator<char, std::char_traits<char>>::operator =(char)
    main.o(t._ZN4__rw17__rw_digit_writerIcSt19ostreambuf_iteratorIcSt11char_traitsIcEEE14_C_put_keywordERKSsc) refers to main.o(t._ZNKSs5c_strEv) for std::basic_string<char, std::char_traits<char>, std::allocator<char>>::c_str() const
    main.o(.ARM.exidx) refers to main.o(t._ZN4__rw17__rw_digit_writerIcSt19ostreambuf_iteratorIcSt11char_traitsIcEEE14_C_put_keywordERKSsc) for t._ZN4__rw17__rw_digit_writerIcSt19ostreambuf_iteratorIcSt11char_traitsIcEEE14_C_put_keywordERKSsc
    main.o(t._ZN4__rw17__rw_digit_writerIcSt19ostreambuf_iteratorIcSt11char_traitsIcEEEC1ERS4_RSt8ios_base) refers to main.o(i._ZNSt8ios_base6getlocEv) for std::ios_base::getloc()
    main.o(t._ZN4__rw17__rw_digit_writerIcSt19ostreambuf_iteratorIcSt11char_traitsIcEEEC1ERS4_RSt8ios_base) refers to main.o(i._ZN4__rw22__rw_digit_writer_baseC1ERSt8ios_base) for __rw::__rw_digit_writer_base::__rw_digit_writer_base(std::ios_base&)
    main.o(t._ZN4__rw17__rw_digit_writerIcSt19ostreambuf_iteratorIcSt11char_traitsIcEEEC1ERS4_RSt8ios_base) refers to main.o(t._ZN4__rw25__rw_digit_handler_base_1IcEC1ERKSt6locale) for __rw::__rw_digit_handler_base_1<char>::__rw_digit_handler_base_1(const std::locale&)
    main.o(t._ZN4__rw17__rw_digit_writerIcSt19ostreambuf_iteratorIcSt11char_traitsIcEEEC1ERS4_RSt8ios_base) refers to main.o(.constdata__ZTVN4__rw24__rw_digit_writer_base_1IcEE) for vtable for __rw::__rw_digit_writer_base_1<char>
    main.o(t._ZN4__rw17__rw_digit_writerIcSt19ostreambuf_iteratorIcSt11char_traitsIcEEEC1ERS4_RSt8ios_base) refers to main.o(.constdata__ZTVN4__rw17__rw_digit_writerIcSt19ostreambuf_iteratorIcSt11char_traitsIcEEEE) for vtable for __rw::__rw_digit_writer<char, std::ostreambuf_iterator<char, std::char_traits<char>>>
    main.o(.ARM.exidx) refers to main.o(t._ZN4__rw17__rw_digit_writerIcSt19ostreambuf_iteratorIcSt11char_traitsIcEEEC1ERS4_RSt8ios_base) for t._ZN4__rw17__rw_digit_writerIcSt19ostreambuf_iteratorIcSt11char_traitsIcEEEC1ERS4_RSt8ios_base
    main.o(t._ZNKSt7num_putIcSt19ostreambuf_iteratorIcSt11char_traitsIcEEE6do_putES3_RSt8ios_basecb) refers to main.o(t._ZN4__rw17__rw_digit_writerIcSt19ostreambuf_iteratorIcSt11char_traitsIcEEEC1ERS4_RSt8ios_base) for __rw::__rw_digit_writer<char, std::ostreambuf_iterator<char, std::char_traits<char>>>::__rw_digit_writer(std::ostreambuf_iterator<char, std::char_traits<char>>&, std::ios_base&)
    main.o(t._ZNKSt7num_putIcSt19ostreambuf_iteratorIcSt11char_traitsIcEEE6do_putES3_RSt8ios_basecb) refers to main.o(i._ZNKSt8ios_base5flagsEv) for std::ios_base::flags() const
    main.o(t._ZNKSt7num_putIcSt19ostreambuf_iteratorIcSt11char_traitsIcEEE6do_putES3_RSt8ios_basecb) refers to main.o(t._ZN4__rw17__rw_digit_writerIcSt19ostreambuf_iteratorIcSt11char_traitsIcEEE14_C_put_keywordERKSsc) for __rw::__rw_digit_writer<char, std::ostreambuf_iterator<char, std::char_traits<char>>>::_C_put_keyword(const std::basic_string<char, std::char_traits<char>, std::allocator<char>>&, char)
    main.o(t._ZNKSt7num_putIcSt19ostreambuf_iteratorIcSt11char_traitsIcEEE6do_putES3_RSt8ios_basecb) refers to main.o(i._ZN4__rw22__rw_digit_writer_base11_C_digitizeEm) for __rw::__rw_digit_writer_base::_C_digitize(unsigned long)
    main.o(t._ZNKSt7num_putIcSt19ostreambuf_iteratorIcSt11char_traitsIcEEE6do_putES3_RSt8ios_basecb) refers to main.o(t._ZN4__rw17__rw_digit_writerIcSt19ostreambuf_iteratorIcSt11char_traitsIcEEE13_C_put_digitsEc) for __rw::__rw_digit_writer<char, std::ostreambuf_iterator<char, std::char_traits<char>>>::_C_put_digits(char)
    main.o(t._ZNKSt7num_putIcSt19ostreambuf_iteratorIcSt11char_traitsIcEEE6do_putES3_RSt8ios_basecb) refers to main.o(i._ZN4__rw17__rw_digit_writerIcSt19ostreambuf_iteratorIcSt11char_traitsIcEEED1Ev) for __rw::__rw_digit_writer<char, std::ostreambuf_iterator<char, std::char_traits<char>>>::~__rw_digit_writer()
    main.o(.ARM.exidx) refers to main.o(t._ZNKSt7num_putIcSt19ostreambuf_iteratorIcSt11char_traitsIcEEE6do_putES3_RSt8ios_basecb) for t._ZNKSt7num_putIcSt19ostreambuf_iteratorIcSt11char_traitsIcEEE6do_putES3_RSt8ios_basecb
    main.o(t._ZNKSt7num_putIcSt19ostreambuf_iteratorIcSt11char_traitsIcEEE6do_putES3_RSt8ios_basecl) refers to main.o(t._ZN4__rw17__rw_digit_writerIcSt19ostreambuf_iteratorIcSt11char_traitsIcEEEC1ERS4_RSt8ios_base) for __rw::__rw_digit_writer<char, std::ostreambuf_iterator<char, std::char_traits<char>>>::__rw_digit_writer(std::ostreambuf_iterator<char, std::char_traits<char>>&, std::ios_base&)
    main.o(t._ZNKSt7num_putIcSt19ostreambuf_iteratorIcSt11char_traitsIcEEE6do_putES3_RSt8ios_basecl) refers to vendor.o(i._ZN4__rw22__rw_digit_writer_base11_C_digitizeEmbPKc) for __rw::__rw_digit_writer_base::_C_digitize(unsigned long, bool, const char*)
    main.o(t._ZNKSt7num_putIcSt19ostreambuf_iteratorIcSt11char_traitsIcEEE6do_putES3_RSt8ios_basecl) refers to main.o(t._ZN4__rw17__rw_digit_writerIcSt19ostreambuf_iteratorIcSt11char_traitsIcEEE13_C_put_digitsEc) for __rw::__rw_digit_writer<char, std::ostreambuf_iterator<char, std::char_traits<char>>>::_C_put_digits(char)
    main.o(t._ZNKSt7num_putIcSt19ostreambuf_iteratorIcSt11char_traitsIcEEE6do_putES3_RSt8ios_basecl) refers to main.o(i._ZN4__rw17__rw_digit_writerIcSt19ostreambuf_iteratorIcSt11char_traitsIcEEED1Ev) for __rw::__rw_digit_writer<char, std::ostreambuf_iterator<char, std::char_traits<char>>>::~__rw_digit_writer()
    main.o(t._ZNKSt7num_putIcSt19ostreambuf_iteratorIcSt11char_traitsIcEEE6do_putES3_RSt8ios_basecl) refers to main.o(.constdata__ZZN4__rw22__rw_digit_writer_base11_C_digitizeElEs) for __rw::__rw_digit_writer_base::_C_digitize(long)::string
    main.o(.ARM.exidx) refers to main.o(t._ZNKSt7num_putIcSt19ostreambuf_iteratorIcSt11char_traitsIcEEE6do_putES3_RSt8ios_basecl) for t._ZNKSt7num_putIcSt19ostreambuf_iteratorIcSt11char_traitsIcEEE6do_putES3_RSt8ios_basecl
    main.o(t._ZNKSt7num_putIcSt19ostreambuf_iteratorIcSt11char_traitsIcEEE6do_putES3_RSt8ios_basecm) refers to main.o(t._ZN4__rw17__rw_digit_writerIcSt19ostreambuf_iteratorIcSt11char_traitsIcEEEC1ERS4_RSt8ios_base) for __rw::__rw_digit_writer<char, std::ostreambuf_iterator<char, std::char_traits<char>>>::__rw_digit_writer(std::ostreambuf_iterator<char, std::char_traits<char>>&, std::ios_base&)
    main.o(t._ZNKSt7num_putIcSt19ostreambuf_iteratorIcSt11char_traitsIcEEE6do_putES3_RSt8ios_basecm) refers to main.o(i._ZN4__rw22__rw_digit_writer_base11_C_digitizeEm) for __rw::__rw_digit_writer_base::_C_digitize(unsigned long)
    main.o(t._ZNKSt7num_putIcSt19ostreambuf_iteratorIcSt11char_traitsIcEEE6do_putES3_RSt8ios_basecm) refers to main.o(t._ZN4__rw17__rw_digit_writerIcSt19ostreambuf_iteratorIcSt11char_traitsIcEEE13_C_put_digitsEc) for __rw::__rw_digit_writer<char, std::ostreambuf_iterator<char, std::char_traits<char>>>::_C_put_digits(char)
    main.o(t._ZNKSt7num_putIcSt19ostreambuf_iteratorIcSt11char_traitsIcEEE6do_putES3_RSt8ios_basecm) refers to main.o(i._ZN4__rw17__rw_digit_writerIcSt19ostreambuf_iteratorIcSt11char_traitsIcEEED1Ev) for __rw::__rw_digit_writer<char, std::ostreambuf_iterator<char, std::char_traits<char>>>::~__rw_digit_writer()
    main.o(.ARM.exidx) refers to main.o(t._ZNKSt7num_putIcSt19ostreambuf_iteratorIcSt11char_traitsIcEEE6do_putES3_RSt8ios_basecm) for t._ZNKSt7num_putIcSt19ostreambuf_iteratorIcSt11char_traitsIcEEE6do_putES3_RSt8ios_basecm
    main.o(t._ZNKSt7num_putIcSt19ostreambuf_iteratorIcSt11char_traitsIcEEE6do_putES3_RSt8ios_basecd) refers to main.o(t._ZN4__rw17__rw_digit_writerIcSt19ostreambuf_iteratorIcSt11char_traitsIcEEEC1ERS4_RSt8ios_base) for __rw::__rw_digit_writer<char, std::ostreambuf_iterator<char, std::char_traits<char>>>::__rw_digit_writer(std::ostreambuf_iterator<char, std::char_traits<char>>&, std::ios_base&)
    main.o(t._ZNKSt7num_putIcSt19ostreambuf_iteratorIcSt11char_traitsIcEEE6do_putES3_RSt8ios_basecd) refers to vendor.o(i._ZN4__rw22__rw_digit_writer_base11_C_digitizeEd) for __rw::__rw_digit_writer_base::_C_digitize(double)
    main.o(t._ZNKSt7num_putIcSt19ostreambuf_iteratorIcSt11char_traitsIcEEE6do_putES3_RSt8ios_basecd) refers to main.o(t._ZN4__rw17__rw_digit_writerIcSt19ostreambuf_iteratorIcSt11char_traitsIcEEE13_C_put_digitsEc) for __rw::__rw_digit_writer<char, std::ostreambuf_iterator<char, std::char_traits<char>>>::_C_put_digits(char)
    main.o(t._ZNKSt7num_putIcSt19ostreambuf_iteratorIcSt11char_traitsIcEEE6do_putES3_RSt8ios_basecd) refers to main.o(i._ZN4__rw17__rw_digit_writerIcSt19ostreambuf_iteratorIcSt11char_traitsIcEEED1Ev) for __rw::__rw_digit_writer<char, std::ostreambuf_iterator<char, std::char_traits<char>>>::~__rw_digit_writer()
    main.o(.ARM.exidx) refers to main.o(t._ZNKSt7num_putIcSt19ostreambuf_iteratorIcSt11char_traitsIcEEE6do_putES3_RSt8ios_basecd) for t._ZNKSt7num_putIcSt19ostreambuf_iteratorIcSt11char_traitsIcEEE6do_putES3_RSt8ios_basecd
    main.o(t._ZNKSt7num_putIcSt19ostreambuf_iteratorIcSt11char_traitsIcEEE6do_putES3_RSt8ios_basece) refers to main.o(t._ZN4__rw17__rw_digit_writerIcSt19ostreambuf_iteratorIcSt11char_traitsIcEEEC1ERS4_RSt8ios_base) for __rw::__rw_digit_writer<char, std::ostreambuf_iterator<char, std::char_traits<char>>>::__rw_digit_writer(std::ostreambuf_iterator<char, std::char_traits<char>>&, std::ios_base&)
    main.o(t._ZNKSt7num_putIcSt19ostreambuf_iteratorIcSt11char_traitsIcEEE6do_putES3_RSt8ios_basece) refers to vendor.o(i._ZN4__rw22__rw_digit_writer_base11_C_digitizeEe) for __rw::__rw_digit_writer_base::_C_digitize(long double)
    main.o(t._ZNKSt7num_putIcSt19ostreambuf_iteratorIcSt11char_traitsIcEEE6do_putES3_RSt8ios_basece) refers to main.o(t._ZN4__rw17__rw_digit_writerIcSt19ostreambuf_iteratorIcSt11char_traitsIcEEE13_C_put_digitsEc) for __rw::__rw_digit_writer<char, std::ostreambuf_iterator<char, std::char_traits<char>>>::_C_put_digits(char)
    main.o(t._ZNKSt7num_putIcSt19ostreambuf_iteratorIcSt11char_traitsIcEEE6do_putES3_RSt8ios_basece) refers to main.o(i._ZN4__rw17__rw_digit_writerIcSt19ostreambuf_iteratorIcSt11char_traitsIcEEED1Ev) for __rw::__rw_digit_writer<char, std::ostreambuf_iterator<char, std::char_traits<char>>>::~__rw_digit_writer()
    main.o(.ARM.exidx) refers to main.o(t._ZNKSt7num_putIcSt19ostreambuf_iteratorIcSt11char_traitsIcEEE6do_putES3_RSt8ios_basece) for t._ZNKSt7num_putIcSt19ostreambuf_iteratorIcSt11char_traitsIcEEE6do_putES3_RSt8ios_basece
    main.o(t._ZNKSt7num_putIcSt19ostreambuf_iteratorIcSt11char_traitsIcEEE6do_putES3_RSt8ios_basecPKv) refers to main.o(t._ZN4__rw17__rw_digit_writerIcSt19ostreambuf_iteratorIcSt11char_traitsIcEEEC1ERS4_RSt8ios_base) for __rw::__rw_digit_writer<char, std::ostreambuf_iterator<char, std::char_traits<char>>>::__rw_digit_writer(std::ostreambuf_iterator<char, std::char_traits<char>>&, std::ios_base&)
    main.o(t._ZNKSt7num_putIcSt19ostreambuf_iteratorIcSt11char_traitsIcEEE6do_putES3_RSt8ios_basecPKv) refers to vendor.o(i._ZN4__rw22__rw_digit_writer_base11_C_digitizeEPKv) for __rw::__rw_digit_writer_base::_C_digitize(const void*)
    main.o(t._ZNKSt7num_putIcSt19ostreambuf_iteratorIcSt11char_traitsIcEEE6do_putES3_RSt8ios_basecPKv) refers to main.o(t._ZN4__rw17__rw_digit_writerIcSt19ostreambuf_iteratorIcSt11char_traitsIcEEE13_C_put_digitsEc) for __rw::__rw_digit_writer<char, std::ostreambuf_iterator<char, std::char_traits<char>>>::_C_put_digits(char)
    main.o(t._ZNKSt7num_putIcSt19ostreambuf_iteratorIcSt11char_traitsIcEEE6do_putES3_RSt8ios_basecPKv) refers to main.o(i._ZN4__rw17__rw_digit_writerIcSt19ostreambuf_iteratorIcSt11char_traitsIcEEED1Ev) for __rw::__rw_digit_writer<char, std::ostreambuf_iterator<char, std::char_traits<char>>>::~__rw_digit_writer()
    main.o(.ARM.exidx) refers to main.o(t._ZNKSt7num_putIcSt19ostreambuf_iteratorIcSt11char_traitsIcEEE6do_putES3_RSt8ios_basecPKv) for t._ZNKSt7num_putIcSt19ostreambuf_iteratorIcSt11char_traitsIcEEE6do_putES3_RSt8ios_basecPKv
    main.o(t._ZNKSt7num_putIcSt19ostreambuf_iteratorIcSt11char_traitsIcEEE6do_putES3_RSt8ios_basecs) refers to main.o(t._ZN4__rw17__rw_digit_writerIcSt19ostreambuf_iteratorIcSt11char_traitsIcEEEC1ERS4_RSt8ios_base) for __rw::__rw_digit_writer<char, std::ostreambuf_iterator<char, std::char_traits<char>>>::__rw_digit_writer(std::ostreambuf_iterator<char, std::char_traits<char>>&, std::ios_base&)
    main.o(t._ZNKSt7num_putIcSt19ostreambuf_iteratorIcSt11char_traitsIcEEE6do_putES3_RSt8ios_basecs) refers to vendor.o(i._ZN4__rw22__rw_digit_writer_base11_C_digitizeEmbPKc) for __rw::__rw_digit_writer_base::_C_digitize(unsigned long, bool, const char*)
    main.o(t._ZNKSt7num_putIcSt19ostreambuf_iteratorIcSt11char_traitsIcEEE6do_putES3_RSt8ios_basecs) refers to main.o(t._ZN4__rw17__rw_digit_writerIcSt19ostreambuf_iteratorIcSt11char_traitsIcEEE13_C_put_digitsEc) for __rw::__rw_digit_writer<char, std::ostreambuf_iterator<char, std::char_traits<char>>>::_C_put_digits(char)
    main.o(t._ZNKSt7num_putIcSt19ostreambuf_iteratorIcSt11char_traitsIcEEE6do_putES3_RSt8ios_basecs) refers to main.o(i._ZN4__rw17__rw_digit_writerIcSt19ostreambuf_iteratorIcSt11char_traitsIcEEED1Ev) for __rw::__rw_digit_writer<char, std::ostreambuf_iterator<char, std::char_traits<char>>>::~__rw_digit_writer()
    main.o(t._ZNKSt7num_putIcSt19ostreambuf_iteratorIcSt11char_traitsIcEEE6do_putES3_RSt8ios_basecs) refers to main.o(.constdata__ZZN4__rw22__rw_digit_writer_base11_C_digitizeEsEs) for __rw::__rw_digit_writer_base::_C_digitize(short)::string
    main.o(.ARM.exidx) refers to main.o(t._ZNKSt7num_putIcSt19ostreambuf_iteratorIcSt11char_traitsIcEEE6do_putES3_RSt8ios_basecs) for t._ZNKSt7num_putIcSt19ostreambuf_iteratorIcSt11char_traitsIcEEE6do_putES3_RSt8ios_basecs
    main.o(t._ZNKSt7num_putIcSt19ostreambuf_iteratorIcSt11char_traitsIcEEE6do_putES3_RSt8ios_basect) refers to main.o(t._ZN4__rw17__rw_digit_writerIcSt19ostreambuf_iteratorIcSt11char_traitsIcEEEC1ERS4_RSt8ios_base) for __rw::__rw_digit_writer<char, std::ostreambuf_iterator<char, std::char_traits<char>>>::__rw_digit_writer(std::ostreambuf_iterator<char, std::char_traits<char>>&, std::ios_base&)
    main.o(t._ZNKSt7num_putIcSt19ostreambuf_iteratorIcSt11char_traitsIcEEE6do_putES3_RSt8ios_basect) refers to vendor.o(i._ZN4__rw22__rw_digit_writer_base11_C_digitizeEmbPKc) for __rw::__rw_digit_writer_base::_C_digitize(unsigned long, bool, const char*)
    main.o(t._ZNKSt7num_putIcSt19ostreambuf_iteratorIcSt11char_traitsIcEEE6do_putES3_RSt8ios_basect) refers to main.o(t._ZN4__rw17__rw_digit_writerIcSt19ostreambuf_iteratorIcSt11char_traitsIcEEE13_C_put_digitsEc) for __rw::__rw_digit_writer<char, std::ostreambuf_iterator<char, std::char_traits<char>>>::_C_put_digits(char)
    main.o(t._ZNKSt7num_putIcSt19ostreambuf_iteratorIcSt11char_traitsIcEEE6do_putES3_RSt8ios_basect) refers to main.o(i._ZN4__rw17__rw_digit_writerIcSt19ostreambuf_iteratorIcSt11char_traitsIcEEED1Ev) for __rw::__rw_digit_writer<char, std::ostreambuf_iterator<char, std::char_traits<char>>>::~__rw_digit_writer()
    main.o(t._ZNKSt7num_putIcSt19ostreambuf_iteratorIcSt11char_traitsIcEEE6do_putES3_RSt8ios_basect) refers to main.o(.constdata__ZZN4__rw22__rw_digit_writer_base11_C_digitizeEtEs) for __rw::__rw_digit_writer_base::_C_digitize(unsigned short)::string
    main.o(.ARM.exidx) refers to main.o(t._ZNKSt7num_putIcSt19ostreambuf_iteratorIcSt11char_traitsIcEEE6do_putES3_RSt8ios_basect) for t._ZNKSt7num_putIcSt19ostreambuf_iteratorIcSt11char_traitsIcEEE6do_putES3_RSt8ios_basect
    main.o(t._ZNKSt7num_putIcSt19ostreambuf_iteratorIcSt11char_traitsIcEEE6do_putES3_RSt8ios_baseci) refers to main.o(t._ZN4__rw17__rw_digit_writerIcSt19ostreambuf_iteratorIcSt11char_traitsIcEEEC1ERS4_RSt8ios_base) for __rw::__rw_digit_writer<char, std::ostreambuf_iterator<char, std::char_traits<char>>>::__rw_digit_writer(std::ostreambuf_iterator<char, std::char_traits<char>>&, std::ios_base&)
    main.o(t._ZNKSt7num_putIcSt19ostreambuf_iteratorIcSt11char_traitsIcEEE6do_putES3_RSt8ios_baseci) refers to vendor.o(i._ZN4__rw22__rw_digit_writer_base11_C_digitizeEmbPKc) for __rw::__rw_digit_writer_base::_C_digitize(unsigned long, bool, const char*)
    main.o(t._ZNKSt7num_putIcSt19ostreambuf_iteratorIcSt11char_traitsIcEEE6do_putES3_RSt8ios_baseci) refers to main.o(t._ZN4__rw17__rw_digit_writerIcSt19ostreambuf_iteratorIcSt11char_traitsIcEEE13_C_put_digitsEc) for __rw::__rw_digit_writer<char, std::ostreambuf_iterator<char, std::char_traits<char>>>::_C_put_digits(char)
    main.o(t._ZNKSt7num_putIcSt19ostreambuf_iteratorIcSt11char_traitsIcEEE6do_putES3_RSt8ios_baseci) refers to main.o(i._ZN4__rw17__rw_digit_writerIcSt19ostreambuf_iteratorIcSt11char_traitsIcEEED1Ev) for __rw::__rw_digit_writer<char, std::ostreambuf_iterator<char, std::char_traits<char>>>::~__rw_digit_writer()
    main.o(t._ZNKSt7num_putIcSt19ostreambuf_iteratorIcSt11char_traitsIcEEE6do_putES3_RSt8ios_baseci) refers to main.o(.constdata__ZZN4__rw22__rw_digit_writer_base11_C_digitizeEiEs) for __rw::__rw_digit_writer_base::_C_digitize(int)::string
    main.o(.ARM.exidx) refers to main.o(t._ZNKSt7num_putIcSt19ostreambuf_iteratorIcSt11char_traitsIcEEE6do_putES3_RSt8ios_baseci) for t._ZNKSt7num_putIcSt19ostreambuf_iteratorIcSt11char_traitsIcEEE6do_putES3_RSt8ios_baseci
    main.o(t._ZNKSt7num_putIcSt19ostreambuf_iteratorIcSt11char_traitsIcEEE6do_putES3_RSt8ios_basecj) refers to main.o(t._ZN4__rw17__rw_digit_writerIcSt19ostreambuf_iteratorIcSt11char_traitsIcEEEC1ERS4_RSt8ios_base) for __rw::__rw_digit_writer<char, std::ostreambuf_iterator<char, std::char_traits<char>>>::__rw_digit_writer(std::ostreambuf_iterator<char, std::char_traits<char>>&, std::ios_base&)
    main.o(t._ZNKSt7num_putIcSt19ostreambuf_iteratorIcSt11char_traitsIcEEE6do_putES3_RSt8ios_basecj) refers to vendor.o(i._ZN4__rw22__rw_digit_writer_base11_C_digitizeEmbPKc) for __rw::__rw_digit_writer_base::_C_digitize(unsigned long, bool, const char*)
    main.o(t._ZNKSt7num_putIcSt19ostreambuf_iteratorIcSt11char_traitsIcEEE6do_putES3_RSt8ios_basecj) refers to main.o(t._ZN4__rw17__rw_digit_writerIcSt19ostreambuf_iteratorIcSt11char_traitsIcEEE13_C_put_digitsEc) for __rw::__rw_digit_writer<char, std::ostreambuf_iterator<char, std::char_traits<char>>>::_C_put_digits(char)
    main.o(t._ZNKSt7num_putIcSt19ostreambuf_iteratorIcSt11char_traitsIcEEE6do_putES3_RSt8ios_basecj) refers to main.o(i._ZN4__rw17__rw_digit_writerIcSt19ostreambuf_iteratorIcSt11char_traitsIcEEED1Ev) for __rw::__rw_digit_writer<char, std::ostreambuf_iterator<char, std::char_traits<char>>>::~__rw_digit_writer()
    main.o(t._ZNKSt7num_putIcSt19ostreambuf_iteratorIcSt11char_traitsIcEEE6do_putES3_RSt8ios_basecj) refers to main.o(.constdata__ZZN4__rw22__rw_digit_writer_base11_C_digitizeEjEs) for __rw::__rw_digit_writer_base::_C_digitize(unsigned)::string
    main.o(.ARM.exidx) refers to main.o(t._ZNKSt7num_putIcSt19ostreambuf_iteratorIcSt11char_traitsIcEEE6do_putES3_RSt8ios_basecj) for t._ZNKSt7num_putIcSt19ostreambuf_iteratorIcSt11char_traitsIcEEE6do_putES3_RSt8ios_basecj
    main.o(t._ZNKSt7num_putIcSt19ostreambuf_iteratorIcSt11char_traitsIcEEE6do_putES3_RSt8ios_basecx) refers to main.o(t._ZN4__rw17__rw_digit_writerIcSt19ostreambuf_iteratorIcSt11char_traitsIcEEEC1ERS4_RSt8ios_base) for __rw::__rw_digit_writer<char, std::ostreambuf_iterator<char, std::char_traits<char>>>::__rw_digit_writer(std::ostreambuf_iterator<char, std::char_traits<char>>&, std::ios_base&)
    main.o(t._ZNKSt7num_putIcSt19ostreambuf_iteratorIcSt11char_traitsIcEEE6do_putES3_RSt8ios_basecx) refers to vendor.o(i._ZN4__rw22__rw_digit_writer_base11_C_digitizeEyb) for __rw::__rw_digit_writer_base::_C_digitize(unsigned long long, bool)
    main.o(t._ZNKSt7num_putIcSt19ostreambuf_iteratorIcSt11char_traitsIcEEE6do_putES3_RSt8ios_basecx) refers to main.o(t._ZN4__rw17__rw_digit_writerIcSt19ostreambuf_iteratorIcSt11char_traitsIcEEE13_C_put_digitsEc) for __rw::__rw_digit_writer<char, std::ostreambuf_iterator<char, std::char_traits<char>>>::_C_put_digits(char)
    main.o(t._ZNKSt7num_putIcSt19ostreambuf_iteratorIcSt11char_traitsIcEEE6do_putES3_RSt8ios_basecx) refers to main.o(i._ZN4__rw17__rw_digit_writerIcSt19ostreambuf_iteratorIcSt11char_traitsIcEEED1Ev) for __rw::__rw_digit_writer<char, std::ostreambuf_iterator<char, std::char_traits<char>>>::~__rw_digit_writer()
    main.o(.ARM.exidx) refers to main.o(t._ZNKSt7num_putIcSt19ostreambuf_iteratorIcSt11char_traitsIcEEE6do_putES3_RSt8ios_basecx) for t._ZNKSt7num_putIcSt19ostreambuf_iteratorIcSt11char_traitsIcEEE6do_putES3_RSt8ios_basecx
    main.o(t._ZNKSt7num_putIcSt19ostreambuf_iteratorIcSt11char_traitsIcEEE6do_putES3_RSt8ios_basecy) refers to main.o(t._ZN4__rw17__rw_digit_writerIcSt19ostreambuf_iteratorIcSt11char_traitsIcEEEC1ERS4_RSt8ios_base) for __rw::__rw_digit_writer<char, std::ostreambuf_iterator<char, std::char_traits<char>>>::__rw_digit_writer(std::ostreambuf_iterator<char, std::char_traits<char>>&, std::ios_base&)
    main.o(t._ZNKSt7num_putIcSt19ostreambuf_iteratorIcSt11char_traitsIcEEE6do_putES3_RSt8ios_basecy) refers to vendor.o(i._ZN4__rw22__rw_digit_writer_base11_C_digitizeEyb) for __rw::__rw_digit_writer_base::_C_digitize(unsigned long long, bool)
    main.o(t._ZNKSt7num_putIcSt19ostreambuf_iteratorIcSt11char_traitsIcEEE6do_putES3_RSt8ios_basecy) refers to main.o(t._ZN4__rw17__rw_digit_writerIcSt19ostreambuf_iteratorIcSt11char_traitsIcEEE13_C_put_digitsEc) for __rw::__rw_digit_writer<char, std::ostreambuf_iterator<char, std::char_traits<char>>>::_C_put_digits(char)
    main.o(t._ZNKSt7num_putIcSt19ostreambuf_iteratorIcSt11char_traitsIcEEE6do_putES3_RSt8ios_basecy) refers to main.o(i._ZN4__rw17__rw_digit_writerIcSt19ostreambuf_iteratorIcSt11char_traitsIcEEED1Ev) for __rw::__rw_digit_writer<char, std::ostreambuf_iterator<char, std::char_traits<char>>>::~__rw_digit_writer()
    main.o(.ARM.exidx) refers to main.o(t._ZNKSt7num_putIcSt19ostreambuf_iteratorIcSt11char_traitsIcEEE6do_putES3_RSt8ios_basecy) for t._ZNKSt7num_putIcSt19ostreambuf_iteratorIcSt11char_traitsIcEEE6do_putES3_RSt8ios_basecy
    main.o(.ARM.exidx) refers to main.o(i._ZNSt7num_putIcSt19ostreambuf_iteratorIcSt11char_traitsIcEEED1Ev) for i._ZNSt7num_putIcSt19ostreambuf_iteratorIcSt11char_traitsIcEEED1Ev
    main.o(i._ZNSt11char_traitsIcE6lengthEPKc) refers to strlen.o(.text) for strlen
    main.o(.ARM.exidx) refers to main.o(i._ZNSt11char_traitsIcE6lengthEPKc) for i._ZNSt11char_traitsIcE6lengthEPKc
    main.o(.ARM.exidx) refers to main.o(t._ZNKSt9basic_iosIcSt11char_traitsIcEE7rdstateEv) for t._ZNKSt9basic_iosIcSt11char_traitsIcEE7rdstateEv
    main.o(.ARM.exidx) refers to main.o(t._ZNKSt9basic_iosIcSt11char_traitsIcEE5rdbufEv) for t._ZNKSt9basic_iosIcSt11char_traitsIcEE5rdbufEv
    main.o(.ARM.exidx) refers to main.o(t._ZNSt15basic_streambufIcSt11char_traitsIcEE7pubsyncEv) for t._ZNSt15basic_streambufIcSt11char_traitsIcEE7pubsyncEv
    main.o(i._ZNKSo10_C_is_coutEv) refers to ios.o(.bss) for std::__rw_std_streams
    main.o(.ARM.exidx) refers to main.o(i._ZNKSo10_C_is_coutEv) for i._ZNKSo10_C_is_coutEv
    main.o(.ARM.exidx) refers to main.o(i._ZNKSt8ios_base5flagsEv) for i._ZNKSt8ios_base5flagsEv
    main.o(.ARM.exidx) refers to main.o(i._ZNSt11char_traitsIcE11to_int_typeERKc) for i._ZNSt11char_traitsIcE11to_int_typeERKc
    main.o(.ARM.exidx) refers to main.o(i._ZNSt11char_traitsIcE6assignERcRKc) for i._ZNSt11char_traitsIcE6assignERcRKc
    main.o(.ARM.exidx) refers to main.o(t._ZNKSt9basic_iosIcSt11char_traitsIcEE3tieEv) for t._ZNKSt9basic_iosIcSt11char_traitsIcEE3tieEv
    main.o(t._ZNKSt9basic_iosIcSt11char_traitsIcEE4goodEv) refers to main.o(t._ZNKSt9basic_iosIcSt11char_traitsIcEE7rdstateEv) for std::basic_ios<char, std::char_traits<char>>::rdstate() const
    main.o(.ARM.exidx) refers to main.o(t._ZNKSt9basic_iosIcSt11char_traitsIcEE4goodEv) for t._ZNKSt9basic_iosIcSt11char_traitsIcEE4goodEv
    main.o(t._ZNKSt9basic_iosIcSt11char_traitsIcEE11_C_bufmutexEv) refers to rwstdexcept.o(.data) for __rw::__rw_synchronized::_C_mutex
    main.o(.ARM.exidx) refers to main.o(t._ZNKSt9basic_iosIcSt11char_traitsIcEE11_C_bufmutexEv) for t._ZNKSt9basic_iosIcSt11char_traitsIcEE11_C_bufmutexEv
    main.o(.ARM.exidx) refers to main.o(i._ZNSt8ios_base5widthEl) for i._ZNSt8ios_base5widthEl
    main.o(.ARM.exidx) refers to main.o(i._ZNSt8ios_base6getlocEv) for i._ZNSt8ios_base6getlocEv
    main.o(.ARM.exidx) refers to main.o(i._ZN4__rw15__rw_facet_base10_C_set_refEj) for i._ZN4__rw15__rw_facet_base10_C_set_refEj
    main.o(t._ZNSt7num_putIcSt19ostreambuf_iteratorIcSt11char_traitsIcEEEC1Ej) refers to ios.o(i._ZNSt6locale5facetC1Eji) for std::locale::facet::facet(unsigned, int)
    main.o(t._ZNSt7num_putIcSt19ostreambuf_iteratorIcSt11char_traitsIcEEEC1Ej) refers to main.o(.constdata__ZTVSt7num_putIcSt19ostreambuf_iteratorIcSt11char_traitsIcEEE) for vtable for std::num_put<char, std::ostreambuf_iterator<char, std::char_traits<char>>>
    main.o(.ARM.exidx) refers to main.o(t._ZNSt7num_putIcSt19ostreambuf_iteratorIcSt11char_traitsIcEEEC1Ej) for t._ZNSt7num_putIcSt19ostreambuf_iteratorIcSt11char_traitsIcEEEC1Ej
    main.o(t._ZN4__rw16__rw_facet_makerISt7num_putIcSt19ostreambuf_iteratorIcSt11char_traitsIcEEEE13_C_maker_funcEiPKcj) refers to new.o(i._Znwj) for operator new(unsigned)
    main.o(t._ZN4__rw16__rw_facet_makerISt7num_putIcSt19ostreambuf_iteratorIcSt11char_traitsIcEEEE13_C_maker_funcEiPKcj) refers to main.o(t._ZNSt7num_putIcSt19ostreambuf_iteratorIcSt11char_traitsIcEEEC1Ej) for std::num_put<char, std::ostreambuf_iterator<char, std::char_traits<char>>>::num_put(unsigned)
    main.o(t._ZN4__rw16__rw_facet_makerISt7num_putIcSt19ostreambuf_iteratorIcSt11char_traitsIcEEEE13_C_maker_funcEiPKcj) refers to main.o(t._ZN4__rw23__rw_create_named_facetISt7num_putIcSt19ostreambuf_iteratorIcSt11char_traitsIcEEEEEPT_S8_PKcj) for T1* __rw::__rw_create_named_facet<std::num_put<char, std::ostreambuf_iterator<char, std::char_traits<char>>>>(T1*, const char*, unsigned)
    main.o(t._ZN4__rw16__rw_facet_makerISt7num_putIcSt19ostreambuf_iteratorIcSt11char_traitsIcEEEE13_C_maker_funcEiPKcj) refers to main.o(.constdata__ZZN4__rw24__rw_create_native_facetISt7num_putIcSt19ostreambuf_iteratorIcSt11char_traitsIcEEEEEPT_S8_Es) for T1* __rw::__rw_create_native_facet<std::num_put<char, std::ostreambuf_iterator<char, std::char_traits<char>>>>(T1*)::string
    main.o(.ARM.exidx) refers to main.o(t._ZN4__rw16__rw_facet_makerISt7num_putIcSt19ostreambuf_iteratorIcSt11char_traitsIcEEEE13_C_maker_funcEiPKcj) for t._ZN4__rw16__rw_facet_makerISt7num_putIcSt19ostreambuf_iteratorIcSt11char_traitsIcEEEE13_C_maker_funcEiPKcj
    main.o(.ARM.exidx) refers to main.o(t._ZNKSt19ostreambuf_iteratorIcSt11char_traitsIcEE6failedEv) for t._ZNKSt19ostreambuf_iteratorIcSt11char_traitsIcEE6failedEv
    main.o(t._ZNSt7num_getIcSt19istreambuf_iteratorIcSt11char_traitsIcEEEC1Ej) refers to ios.o(i._ZNSt6locale5facetC1Eji) for std::locale::facet::facet(unsigned, int)
    main.o(t._ZNSt7num_getIcSt19istreambuf_iteratorIcSt11char_traitsIcEEEC1Ej) refers to main.o(.constdata__ZTVSt7num_getIcSt19istreambuf_iteratorIcSt11char_traitsIcEEE) for vtable for std::num_get<char, std::istreambuf_iterator<char, std::char_traits<char>>>
    main.o(.ARM.exidx) refers to main.o(t._ZNSt7num_getIcSt19istreambuf_iteratorIcSt11char_traitsIcEEEC1Ej) for t._ZNSt7num_getIcSt19istreambuf_iteratorIcSt11char_traitsIcEEEC1Ej
    main.o(t._ZN4__rw16__rw_facet_makerISt7num_getIcSt19istreambuf_iteratorIcSt11char_traitsIcEEEE13_C_maker_funcEiPKcj) refers to new.o(i._Znwj) for operator new(unsigned)
    main.o(t._ZN4__rw16__rw_facet_makerISt7num_getIcSt19istreambuf_iteratorIcSt11char_traitsIcEEEE13_C_maker_funcEiPKcj) refers to main.o(t._ZNSt7num_getIcSt19istreambuf_iteratorIcSt11char_traitsIcEEEC1Ej) for std::num_get<char, std::istreambuf_iterator<char, std::char_traits<char>>>::num_get(unsigned)
    main.o(t._ZN4__rw16__rw_facet_makerISt7num_getIcSt19istreambuf_iteratorIcSt11char_traitsIcEEEE13_C_maker_funcEiPKcj) refers to main.o(t._ZN4__rw23__rw_create_named_facetISt7num_getIcSt19istreambuf_iteratorIcSt11char_traitsIcEEEEEPT_S8_PKcj) for T1* __rw::__rw_create_named_facet<std::num_get<char, std::istreambuf_iterator<char, std::char_traits<char>>>>(T1*, const char*, unsigned)
    main.o(t._ZN4__rw16__rw_facet_makerISt7num_getIcSt19istreambuf_iteratorIcSt11char_traitsIcEEEE13_C_maker_funcEiPKcj) refers to main.o(.constdata__ZZN4__rw24__rw_create_native_facetISt7num_getIcSt19istreambuf_iteratorIcSt11char_traitsIcEEEEEPT_S8_Es) for T1* __rw::__rw_create_native_facet<std::num_get<char, std::istreambuf_iterator<char, std::char_traits<char>>>>(T1*)::string
    main.o(.ARM.exidx) refers to main.o(t._ZN4__rw16__rw_facet_makerISt7num_getIcSt19istreambuf_iteratorIcSt11char_traitsIcEEEE13_C_maker_funcEiPKcj) for t._ZN4__rw16__rw_facet_makerISt7num_getIcSt19istreambuf_iteratorIcSt11char_traitsIcEEEE13_C_maker_funcEiPKcj
    main.o(.ARM.exidx) refers to main.o(t._ZNKSt15basic_streambufIcSt11char_traitsIcEE4gptrEv) for t._ZNKSt15basic_streambufIcSt11char_traitsIcEE4gptrEv
    main.o(t._ZNSt19istreambuf_iteratorIcSt11char_traitsIcEEppEv) refers to main.o(t._ZNSt15basic_streambufIcSt11char_traitsIcEE6sbumpcEv) for std::basic_streambuf<char, std::char_traits<char>>::sbumpc()
    main.o(.ARM.exidx) refers to main.o(t._ZNSt19istreambuf_iteratorIcSt11char_traitsIcEEppEv) for t._ZNSt19istreambuf_iteratorIcSt11char_traitsIcEEppEv
    main.o(.ARM.exidx) refers to main.o(t._ZNKSs5c_strEv) for t._ZNKSs5c_strEv
    main.o(t._ZNK4__rw25__rw_digit_handler_base_1IcE15_C_get_groupingEv) refers to main.o(t._ZNKSs5c_strEv) for std::basic_string<char, std::char_traits<char>, std::allocator<char>>::c_str() const
    main.o(.ARM.exidx) refers to main.o(t._ZNK4__rw25__rw_digit_handler_base_1IcE15_C_get_groupingEv) for t._ZNK4__rw25__rw_digit_handler_base_1IcE15_C_get_groupingEv
    main.o(i._ZN4__rw22__rw_digit_reader_base8_C_parseEPKcl) refers to vendor.o(i._ZN4__rw22__rw_digit_reader_base8_C_parseEPKcm) for __rw::__rw_digit_reader_base::_C_parse(const char*, unsigned long)
    main.o(.ARM.exidx) refers to main.o(i._ZN4__rw22__rw_digit_reader_base8_C_parseEPKcl) for i._ZN4__rw22__rw_digit_reader_base8_C_parseEPKcl
    main.o(.ARM.exidx) refers to main.o(t._ZNKSs7_C_prefEv) for t._ZNKSs7_C_prefEv
    main.o(t._ZNKSs4sizeEv) refers to main.o(t._ZNKSs7_C_prefEv) for std::basic_string<char, std::char_traits<char>, std::allocator<char>>::_C_pref() const
    main.o(.ARM.exidx) refers to main.o(t._ZNKSs4sizeEv) for t._ZNKSs4sizeEv
    main.o(.ARM.exidx) refers to main.o(t._ZN4__rw12__string_refIcSt11char_traitsIcESaIcEE4dataEv) for t._ZN4__rw12__string_refIcSt11char_traitsIcESaIcEE4dataEv
    main.o(t._ZNKSs8capacityEv) refers to main.o(t._ZNKSs7_C_prefEv) for std::basic_string<char, std::char_traits<char>, std::allocator<char>>::_C_pref() const
    main.o(.ARM.exidx) refers to main.o(t._ZNKSs8capacityEv) for t._ZNKSs8capacityEv
    main.o(.ARM.exidx) refers to main.o(t._ZNK4__rw12__string_refIcSt11char_traitsIcESaIcEE12_C_ref_countEv) for t._ZNK4__rw12__string_refIcSt11char_traitsIcESaIcEE12_C_ref_countEv
    main.o(t._ZNSs7_C_nullEv) refers to main.o(t._ZN4__rw12__string_refIcSt11char_traitsIcESaIcEE4dataEv) for __rw::__string_ref<char, std::char_traits<char>, std::allocator<char>>::data()
    main.o(t._ZNSs7_C_nullEv) refers to messages.o(.bss__ZNSs9__nullrefE) for std::basic_string<char, std::char_traits<char>, std::allocator<char>>::__nullref
    main.o(.ARM.exidx) refers to main.o(t._ZNSs7_C_nullEv) for t._ZNSs7_C_nullEv
    main.o(.ARM.exidx) refers to main.o(t._ZNKSs4dataEv) for t._ZNKSs4dataEv
    main.o(t._ZN4__rw23__rw_numpunct_impl_dataIcEC1EPKNS_23__rw_numpunct_init_dataIcEE) refers to locale.o(t._ZNSsC1ERKSaIcE) for std::basic_string<char, std::char_traits<char>, std::allocator<char>>::basic_string(const std::allocator<char>&)
    main.o(t._ZN4__rw23__rw_numpunct_impl_dataIcEC1EPKNS_23__rw_numpunct_init_dataIcEE) refers to locale.o(t._ZNSsaSEPKc) for std::basic_string<char, std::char_traits<char>, std::allocator<char>>::operator =(const char*)
    main.o(t._ZN4__rw23__rw_numpunct_impl_dataIcEC1EPKNS_23__rw_numpunct_init_dataIcEE) refers to array_del.o(i._ZdaPv) for operator delete[] (void*)
    main.o(.ARM.exidx) refers to main.o(t._ZN4__rw23__rw_numpunct_impl_dataIcEC1EPKNS_23__rw_numpunct_init_dataIcEE) for t._ZN4__rw23__rw_numpunct_impl_dataIcEC1EPKNS_23__rw_numpunct_init_dataIcEE
    main.o(t._ZN4__rw16__rw_facet_makerISt8numpunctIcEE13_C_maker_funcEiPKcj) refers to new.o(i._Znwj) for operator new(unsigned)
    main.o(t._ZN4__rw16__rw_facet_makerISt8numpunctIcEE13_C_maker_funcEiPKcj) refers to main.o(t._ZNSt8numpunctIcEC1EjPKN4__rw23__rw_numpunct_init_dataIcEE) for std::numpunct<char>::numpunct(unsigned, const __rw::__rw_numpunct_init_data<char>*)
    main.o(t._ZN4__rw16__rw_facet_makerISt8numpunctIcEE13_C_maker_funcEiPKcj) refers to main.o(t._ZNSt15numpunct_bynameIcEC1EPKcj) for std::numpunct_byname<char>::numpunct_byname(const char*, unsigned)
    main.o(t._ZN4__rw16__rw_facet_makerISt8numpunctIcEE13_C_maker_funcEiPKcj) refers to main.o(.constdata__ZN4__rw18__rw_numpunct_implIcE8_C_ivalsE) for __rw::__rw_numpunct_impl<char>::_C_ivals
    main.o(t._ZN4__rw16__rw_facet_makerISt8numpunctIcEE13_C_maker_funcEiPKcj) refers to main.o(.constdata__ZZN4__rw24__rw_create_native_facetISt8numpunctIcEEEPT_S4_Es) for T1* __rw::__rw_create_native_facet<std::numpunct<char>>(T1*)::string
    main.o(.ARM.exidx) refers to main.o(t._ZN4__rw16__rw_facet_makerISt8numpunctIcEE13_C_maker_funcEiPKcj) for t._ZN4__rw16__rw_facet_makerISt8numpunctIcEE13_C_maker_funcEiPKcj
    main.o(t._ZSt9use_facetISt5ctypeIcEERKT_RKSt6locale) refers to ios.o(i._ZNKSt6locale12_C_use_facetERKNS_2idEbiPFPN4__rw15__rw_facet_baseEiPKcjE) for std::locale::_C_use_facet(const std::locale::id&, bool, int, __rw::__rw_facet_base*(*)(int, const char*, unsigned)) const
    main.o(t._ZSt9use_facetISt5ctypeIcEERKT_RKSt6locale) refers to ios.o(t._ZN4__rw16__rw_facet_makerISt5ctypeIcEE13_C_maker_funcEiPKcj) for __rw::__rw_facet_maker<std::ctype<char>>::_C_maker_func(int, const char*, unsigned)
    main.o(t._ZSt9use_facetISt5ctypeIcEERKT_RKSt6locale) refers to char.o(.data) for std::ctype<char>::id
    main.o(.ARM.exidx) refers to main.o(t._ZSt9use_facetISt5ctypeIcEERKT_RKSt6locale) for t._ZSt9use_facetISt5ctypeIcEERKT_RKSt6locale
    main.o(t._ZN4__rw15__rw_num_do_getIcSt19istreambuf_iteratorIcSt11char_traitsIcEEiEET0_T_S5_S5_RSt8ios_baseRiRT1_) refers to main.o(t._ZN4__rw17__rw_digit_readerIcSt19istreambuf_iteratorIcSt11char_traitsIcEEEC1ERS4_S6_RSt8ios_base) for __rw::__rw_digit_reader<char, std::istreambuf_iterator<char, std::char_traits<char>>>::__rw_digit_reader(std::istreambuf_iterator<char, std::char_traits<char>>&, std::istreambuf_iterator<char, std::char_traits<char>>&, std::ios_base&)
    main.o(t._ZN4__rw15__rw_num_do_getIcSt19istreambuf_iteratorIcSt11char_traitsIcEEiEET0_T_S5_S5_RSt8ios_baseRiRT1_) refers to main.o(t._ZN4__rw17__rw_digit_readerIcSt19istreambuf_iteratorIcSt11char_traitsIcEEE13_C_get_digitsEi) for __rw::__rw_digit_reader<char, std::istreambuf_iterator<char, std::char_traits<char>>>::_C_get_digits(int)
    main.o(t._ZN4__rw15__rw_num_do_getIcSt19istreambuf_iteratorIcSt11char_traitsIcEEiEET0_T_S5_S5_RSt8ios_baseRiRT1_) refers to main.o(i._ZN4__rw22__rw_digit_reader_base8_C_parseEPKcl) for __rw::__rw_digit_reader_base::_C_parse(const char*, long)
    main.o(t._ZN4__rw15__rw_num_do_getIcSt19istreambuf_iteratorIcSt11char_traitsIcEEiEET0_T_S5_S5_RSt8ios_baseRiRT1_) refers to main.o(t._ZNK4__rw17__rw_digit_readerIcSt19istreambuf_iteratorIcSt11char_traitsIcEEE3eofEv) for __rw::__rw_digit_reader<char, std::istreambuf_iterator<char, std::char_traits<char>>>::eof() const
    main.o(t._ZN4__rw15__rw_num_do_getIcSt19istreambuf_iteratorIcSt11char_traitsIcEEiEET0_T_S5_S5_RSt8ios_baseRiRT1_) refers to main.o(i._ZN4__rw17__rw_digit_readerIcSt19istreambuf_iteratorIcSt11char_traitsIcEEED1Ev) for __rw::__rw_digit_reader<char, std::istreambuf_iterator<char, std::char_traits<char>>>::~__rw_digit_reader()
    main.o(.ARM.exidx) refers to main.o(t._ZN4__rw15__rw_num_do_getIcSt19istreambuf_iteratorIcSt11char_traitsIcEEiEET0_T_S5_S5_RSt8ios_baseRiRT1_) for t._ZN4__rw15__rw_num_do_getIcSt19istreambuf_iteratorIcSt11char_traitsIcEEiEET0_T_S5_S5_RSt8ios_baseRiRT1_
    main.o(t._ZNSi6sentryC1ERSib) refers to main.o(t._ZNKSt9basic_iosIcSt11char_traitsIcEE11_C_bufmutexEv) for std::basic_ios<char, std::char_traits<char>>::_C_bufmutex() const
    main.o(t._ZNSi6sentryC1ERSib) refers to main.o(i._ZNKSt8ios_base5flagsEv) for std::ios_base::flags() const
    main.o(t._ZNSi6sentryC1ERSib) refers to main.o(t._ZNSi7_C_ipfxEi) for std::basic_istream<char, std::char_traits<char>>::_C_ipfx(int)
    main.o(t._ZNSi6sentryC1ERSib) refers to main.o(t._ZNKSt9basic_iosIcSt11char_traitsIcEE4goodEv) for std::basic_ios<char, std::char_traits<char>>::good() const
    main.o(.ARM.exidx) refers to main.o(t._ZNSi6sentryC1ERSib) for t._ZNSi6sentryC1ERSib
    main.o(t._ZNSirsERi) refers to main.o(t._ZN4__rw12__rw_extractIcSt11char_traitsIcEiEERSt13basic_istreamIT_T0_ES7_RT1_) for std::basic_istream<T1, T2>& __rw::__rw_extract<char, std::char_traits<char>, int>(std::basic_istream<T1, T2>&, T3&)
    main.o(.ARM.exidx) refers to main.o(t._ZNSirsERi) for t._ZNSirsERi
    main.o(t._ZN4__rw12__string_refIcSt11char_traitsIcESaIcEE10_C_inc_refEv) refers to messages.o(.bss__ZNSs9__nullrefE) for std::basic_string<char, std::char_traits<char>, std::allocator<char>>::__nullref
    main.o(.ARM.exidx) refers to main.o(t._ZN4__rw12__string_refIcSt11char_traitsIcESaIcEE10_C_inc_refEv) for t._ZN4__rw12__string_refIcSt11char_traitsIcESaIcEE10_C_inc_refEv
    main.o(t._ZNKSs6lengthEv) refers to main.o(t._ZNKSs4sizeEv) for std::basic_string<char, std::char_traits<char>, std::allocator<char>>::size() const
    main.o(.ARM.exidx) refers to main.o(t._ZNKSs6lengthEv) for t._ZNKSs6lengthEv
    main.o(.ARM.exidx) refers to main.o(i._ZNSt6locale2idC1Ev) for i._ZNSt6locale2idC1Ev
    main.o(.ARM.exidx) refers to main.o(i._ZNKSt5ctypeIcE7tolowerEc) for i._ZNKSt5ctypeIcE7tolowerEc
    main.o(t._ZN4__rw17__rw_digit_readerIcSt19istreambuf_iteratorIcSt11char_traitsIcEEE13_C_get_digitsEl) refers to main.o(t._ZN4__rw17__rw_digit_readerIcSt19istreambuf_iteratorIcSt11char_traitsIcEEE13_C_get_digitsEi) for __rw::__rw_digit_reader<char, std::istreambuf_iterator<char, std::char_traits<char>>>::_C_get_digits(int)
    main.o(.ARM.exidx) refers to main.o(t._ZN4__rw17__rw_digit_readerIcSt19istreambuf_iteratorIcSt11char_traitsIcEEE13_C_get_digitsEl) for t._ZN4__rw17__rw_digit_readerIcSt19istreambuf_iteratorIcSt11char_traitsIcEEE13_C_get_digitsEl
    main.o(t._ZNKSt7num_getIcSt19istreambuf_iteratorIcSt11char_traitsIcEEE6do_getES3_S3_RSt8ios_baseRiRt) refers to main.o(t._ZN4__rw15__rw_num_do_getIcSt19istreambuf_iteratorIcSt11char_traitsIcEEtEET0_T_S5_S5_RSt8ios_baseRiRT1_) for T2 __rw::__rw_num_do_get<char, std::istreambuf_iterator<char, std::char_traits<char>>, unsigned short>(T1, T2, T2, std::ios_base&, int&, T3&)
    main.o(.ARM.exidx) refers to main.o(t._ZNKSt7num_getIcSt19istreambuf_iteratorIcSt11char_traitsIcEEE6do_getES3_S3_RSt8ios_baseRiRt) for t._ZNKSt7num_getIcSt19istreambuf_iteratorIcSt11char_traitsIcEEE6do_getES3_S3_RSt8ios_baseRiRt
    main.o(t._ZNKSt7num_getIcSt19istreambuf_iteratorIcSt11char_traitsIcEEE6do_getES3_S3_RSt8ios_baseRiRj) refers to main.o(t._ZN4__rw15__rw_num_do_getIcSt19istreambuf_iteratorIcSt11char_traitsIcEEjEET0_T_S5_S5_RSt8ios_baseRiRT1_) for T2 __rw::__rw_num_do_get<char, std::istreambuf_iterator<char, std::char_traits<char>>, unsigned>(T1, T2, T2, std::ios_base&, int&, T3&)
    main.o(.ARM.exidx) refers to main.o(t._ZNKSt7num_getIcSt19istreambuf_iteratorIcSt11char_traitsIcEEE6do_getES3_S3_RSt8ios_baseRiRj) for t._ZNKSt7num_getIcSt19istreambuf_iteratorIcSt11char_traitsIcEEE6do_getES3_S3_RSt8ios_baseRiRj
    main.o(t._ZNKSt7num_getIcSt19istreambuf_iteratorIcSt11char_traitsIcEEE6do_getES3_S3_RSt8ios_baseRiRl) refers to main.o(t._ZN4__rw15__rw_num_do_getIcSt19istreambuf_iteratorIcSt11char_traitsIcEElEET0_T_S5_S5_RSt8ios_baseRiRT1_) for T2 __rw::__rw_num_do_get<char, std::istreambuf_iterator<char, std::char_traits<char>>, long>(T1, T2, T2, std::ios_base&, int&, T3&)
    main.o(.ARM.exidx) refers to main.o(t._ZNKSt7num_getIcSt19istreambuf_iteratorIcSt11char_traitsIcEEE6do_getES3_S3_RSt8ios_baseRiRl) for t._ZNKSt7num_getIcSt19istreambuf_iteratorIcSt11char_traitsIcEEE6do_getES3_S3_RSt8ios_baseRiRl
    main.o(t._ZNKSt7num_getIcSt19istreambuf_iteratorIcSt11char_traitsIcEEE6do_getES3_S3_RSt8ios_baseRiRm) refers to main.o(t._ZN4__rw15__rw_num_do_getIcSt19istreambuf_iteratorIcSt11char_traitsIcEEmEET0_T_S5_S5_RSt8ios_baseRiRT1_) for T2 __rw::__rw_num_do_get<char, std::istreambuf_iterator<char, std::char_traits<char>>, unsigned long>(T1, T2, T2, std::ios_base&, int&, T3&)
    main.o(.ARM.exidx) refers to main.o(t._ZNKSt7num_getIcSt19istreambuf_iteratorIcSt11char_traitsIcEEE6do_getES3_S3_RSt8ios_baseRiRm) for t._ZNKSt7num_getIcSt19istreambuf_iteratorIcSt11char_traitsIcEEE6do_getES3_S3_RSt8ios_baseRiRm
    main.o(t._ZNSt19istreambuf_iteratorIcSt11char_traitsIcEEppEi) refers to main.o(t._ZNSt15basic_streambufIcSt11char_traitsIcEE5sgetcEv) for std::basic_streambuf<char, std::char_traits<char>>::sgetc()
    main.o(t._ZNSt19istreambuf_iteratorIcSt11char_traitsIcEEppEi) refers to ios.o(i._ZNSt11char_traitsIcE11eq_int_typeERKiS2_) for std::char_traits<char>::eq_int_type(const int&, const int&)
    main.o(t._ZNSt19istreambuf_iteratorIcSt11char_traitsIcEEppEi) refers to main.o(t._ZNSt15basic_streambufIcSt11char_traitsIcEE6sbumpcEv) for std::basic_streambuf<char, std::char_traits<char>>::sbumpc()
    main.o(.ARM.exidx) refers to main.o(t._ZNSt19istreambuf_iteratorIcSt11char_traitsIcEEppEi) for t._ZNSt19istreambuf_iteratorIcSt11char_traitsIcEEppEi
    main.o(t._ZNKSt7num_getIcSt19istreambuf_iteratorIcSt11char_traitsIcEEE6do_getES3_S3_RSt8ios_baseRiRf) refers to main.o(t._ZN4__rw15__rw_num_do_getIcSt19istreambuf_iteratorIcSt11char_traitsIcEEfEET0_T_S5_S5_RSt8ios_baseRiRT1_) for T2 __rw::__rw_num_do_get<char, std::istreambuf_iterator<char, std::char_traits<char>>, float>(T1, T2, T2, std::ios_base&, int&, T3&)
    main.o(.ARM.exidx) refers to main.o(t._ZNKSt7num_getIcSt19istreambuf_iteratorIcSt11char_traitsIcEEE6do_getES3_S3_RSt8ios_baseRiRf) for t._ZNKSt7num_getIcSt19istreambuf_iteratorIcSt11char_traitsIcEEE6do_getES3_S3_RSt8ios_baseRiRf
    main.o(t._ZNKSt7num_getIcSt19istreambuf_iteratorIcSt11char_traitsIcEEE6do_getES3_S3_RSt8ios_baseRiRd) refers to main.o(t._ZN4__rw15__rw_num_do_getIcSt19istreambuf_iteratorIcSt11char_traitsIcEEdEET0_T_S5_S5_RSt8ios_baseRiRT1_) for T2 __rw::__rw_num_do_get<char, std::istreambuf_iterator<char, std::char_traits<char>>, double>(T1, T2, T2, std::ios_base&, int&, T3&)
    main.o(.ARM.exidx) refers to main.o(t._ZNKSt7num_getIcSt19istreambuf_iteratorIcSt11char_traitsIcEEE6do_getES3_S3_RSt8ios_baseRiRd) for t._ZNKSt7num_getIcSt19istreambuf_iteratorIcSt11char_traitsIcEEE6do_getES3_S3_RSt8ios_baseRiRd
    main.o(t._ZNKSt7num_getIcSt19istreambuf_iteratorIcSt11char_traitsIcEEE6do_getES3_S3_RSt8ios_baseRiRe) refers to main.o(t._ZN4__rw15__rw_num_do_getIcSt19istreambuf_iteratorIcSt11char_traitsIcEEeEET0_T_S5_S5_RSt8ios_baseRiRT1_) for T2 __rw::__rw_num_do_get<char, std::istreambuf_iterator<char, std::char_traits<char>>, long double>(T1, T2, T2, std::ios_base&, int&, T3&)
    main.o(.ARM.exidx) refers to main.o(t._ZNKSt7num_getIcSt19istreambuf_iteratorIcSt11char_traitsIcEEE6do_getES3_S3_RSt8ios_baseRiRe) for t._ZNKSt7num_getIcSt19istreambuf_iteratorIcSt11char_traitsIcEEE6do_getES3_S3_RSt8ios_baseRiRe
    main.o(t._ZNKSt7num_getIcSt19istreambuf_iteratorIcSt11char_traitsIcEEE6do_getES3_S3_RSt8ios_baseRiRPv) refers to main.o(t._ZN4__rw15__rw_num_do_getIcSt19istreambuf_iteratorIcSt11char_traitsIcEEPvEET0_T_S6_S6_RSt8ios_baseRiRT1_) for T2 __rw::__rw_num_do_get<char, std::istreambuf_iterator<char, std::char_traits<char>>, void*>(T1, T2, T2, std::ios_base&, int&, T3&)
    main.o(.ARM.exidx) refers to main.o(t._ZNKSt7num_getIcSt19istreambuf_iteratorIcSt11char_traitsIcEEE6do_getES3_S3_RSt8ios_baseRiRPv) for t._ZNKSt7num_getIcSt19istreambuf_iteratorIcSt11char_traitsIcEEE6do_getES3_S3_RSt8ios_baseRiRPv
    main.o(t._ZNKSt7num_getIcSt19istreambuf_iteratorIcSt11char_traitsIcEEE6do_getES3_S3_RSt8ios_baseRiRx) refers to main.o(t._ZN4__rw15__rw_num_do_getIcSt19istreambuf_iteratorIcSt11char_traitsIcEExEET0_T_S5_S5_RSt8ios_baseRiRT1_) for T2 __rw::__rw_num_do_get<char, std::istreambuf_iterator<char, std::char_traits<char>>, long long>(T1, T2, T2, std::ios_base&, int&, T3&)
    main.o(.ARM.exidx) refers to main.o(t._ZNKSt7num_getIcSt19istreambuf_iteratorIcSt11char_traitsIcEEE6do_getES3_S3_RSt8ios_baseRiRx) for t._ZNKSt7num_getIcSt19istreambuf_iteratorIcSt11char_traitsIcEEE6do_getES3_S3_RSt8ios_baseRiRx
    main.o(t._ZNKSt7num_getIcSt19istreambuf_iteratorIcSt11char_traitsIcEEE6do_getES3_S3_RSt8ios_baseRiRy) refers to main.o(t._ZN4__rw15__rw_num_do_getIcSt19istreambuf_iteratorIcSt11char_traitsIcEEyEET0_T_S5_S5_RSt8ios_baseRiRT1_) for T2 __rw::__rw_num_do_get<char, std::istreambuf_iterator<char, std::char_traits<char>>, unsigned long long>(T1, T2, T2, std::ios_base&, int&, T3&)
    main.o(.ARM.exidx) refers to main.o(t._ZNKSt7num_getIcSt19istreambuf_iteratorIcSt11char_traitsIcEEE6do_getES3_S3_RSt8ios_baseRiRy) for t._ZNKSt7num_getIcSt19istreambuf_iteratorIcSt11char_traitsIcEEE6do_getES3_S3_RSt8ios_baseRiRy
    main.o(i._ZNSt7num_getIcSt19istreambuf_iteratorIcSt11char_traitsIcEEED0Ev) refers to main.o(i._ZNSt7num_getIcSt19istreambuf_iteratorIcSt11char_traitsIcEEED1Ev) for std::num_get<char, std::istreambuf_iterator<char, std::char_traits<char>>>::~num_get()
    main.o(i._ZNSt7num_getIcSt19istreambuf_iteratorIcSt11char_traitsIcEEED0Ev) refers to delete.o(i._ZdlPv) for operator delete (void*)
    main.o(.ARM.exidx) refers to main.o(i._ZNSt7num_getIcSt19istreambuf_iteratorIcSt11char_traitsIcEEED0Ev) for i._ZNSt7num_getIcSt19istreambuf_iteratorIcSt11char_traitsIcEEED0Ev
    main.o(i._ZN4__rw17__rw_digit_writerIcSt19ostreambuf_iteratorIcSt11char_traitsIcEEED1Ev) refers to main.o(i._ZN4__rw24__rw_digit_writer_base_1IcED1Ev) for __rw::__rw_digit_writer_base_1<char>::~__rw_digit_writer_base_1()
    main.o(.ARM.exidx) refers to main.o(i._ZN4__rw17__rw_digit_writerIcSt19ostreambuf_iteratorIcSt11char_traitsIcEEED1Ev) for i._ZN4__rw17__rw_digit_writerIcSt19ostreambuf_iteratorIcSt11char_traitsIcEEED1Ev
    main.o(i._ZN4__rw22__rw_digit_writer_base11_C_digitizeEm) refers to vendor.o(i._ZN4__rw22__rw_digit_writer_base11_C_digitizeEmbPKc) for __rw::__rw_digit_writer_base::_C_digitize(unsigned long, bool, const char*)
    main.o(i._ZN4__rw22__rw_digit_writer_base11_C_digitizeEm) refers to main.o(.constdata__ZZN4__rw22__rw_digit_writer_base11_C_digitizeEmEs) for __rw::__rw_digit_writer_base::_C_digitize(unsigned long)::string
    main.o(.ARM.exidx) refers to main.o(i._ZN4__rw22__rw_digit_writer_base11_C_digitizeEm) for i._ZN4__rw22__rw_digit_writer_base11_C_digitizeEm
    main.o(i._ZN4__rw22__rw_digit_writer_baseC1ERSt8ios_base) refers to main.o(i._ZNKSt8ios_base5flagsEv) for std::ios_base::flags() const
    main.o(i._ZN4__rw22__rw_digit_writer_baseC1ERSt8ios_base) refers to main.o(i._ZNKSt8ios_base7_C_baseEv) for std::ios_base::_C_base() const
    main.o(i._ZN4__rw22__rw_digit_writer_baseC1ERSt8ios_base) refers to main.o(.constdata__ZTVN4__rw22__rw_digit_writer_baseE) for vtable for __rw::__rw_digit_writer_base
    main.o(.ARM.exidx) refers to main.o(i._ZN4__rw22__rw_digit_writer_baseC1ERSt8ios_base) for i._ZN4__rw22__rw_digit_writer_baseC1ERSt8ios_base
    main.o(i._ZNSt7num_putIcSt19ostreambuf_iteratorIcSt11char_traitsIcEEED0Ev) refers to main.o(i._ZNSt7num_putIcSt19ostreambuf_iteratorIcSt11char_traitsIcEEED1Ev) for std::num_put<char, std::ostreambuf_iterator<char, std::char_traits<char>>>::~num_put()
    main.o(i._ZNSt7num_putIcSt19ostreambuf_iteratorIcSt11char_traitsIcEEED0Ev) refers to delete.o(i._ZdlPv) for operator delete (void*)
    main.o(.ARM.exidx) refers to main.o(i._ZNSt7num_putIcSt19ostreambuf_iteratorIcSt11char_traitsIcEEED0Ev) for i._ZNSt7num_putIcSt19ostreambuf_iteratorIcSt11char_traitsIcEEED0Ev
    main.o(.ARM.exidx) refers to main.o(i._ZN4__rw15__rw_facet_base12_C_initfacetERKSt6locale) for i._ZN4__rw15__rw_facet_base12_C_initfacetERKSt6locale
    main.o(t._ZN4__rw15__rw_num_do_getIcSt19istreambuf_iteratorIcSt11char_traitsIcEEtEET0_T_S5_S5_RSt8ios_baseRiRT1_) refers to main.o(t._ZN4__rw17__rw_digit_readerIcSt19istreambuf_iteratorIcSt11char_traitsIcEEEC1ERS4_S6_RSt8ios_base) for __rw::__rw_digit_reader<char, std::istreambuf_iterator<char, std::char_traits<char>>>::__rw_digit_reader(std::istreambuf_iterator<char, std::char_traits<char>>&, std::istreambuf_iterator<char, std::char_traits<char>>&, std::ios_base&)
    main.o(t._ZN4__rw15__rw_num_do_getIcSt19istreambuf_iteratorIcSt11char_traitsIcEEtEET0_T_S5_S5_RSt8ios_baseRiRT1_) refers to main.o(t._ZN4__rw17__rw_digit_readerIcSt19istreambuf_iteratorIcSt11char_traitsIcEEE13_C_get_digitsEi) for __rw::__rw_digit_reader<char, std::istreambuf_iterator<char, std::char_traits<char>>>::_C_get_digits(int)
    main.o(t._ZN4__rw15__rw_num_do_getIcSt19istreambuf_iteratorIcSt11char_traitsIcEEtEET0_T_S5_S5_RSt8ios_baseRiRT1_) refers to vendor.o(i._ZN4__rw22__rw_digit_reader_base8_C_parseEPKcm) for __rw::__rw_digit_reader_base::_C_parse(const char*, unsigned long)
    main.o(t._ZN4__rw15__rw_num_do_getIcSt19istreambuf_iteratorIcSt11char_traitsIcEEtEET0_T_S5_S5_RSt8ios_baseRiRT1_) refers to main.o(t._ZNK4__rw17__rw_digit_readerIcSt19istreambuf_iteratorIcSt11char_traitsIcEEE3eofEv) for __rw::__rw_digit_reader<char, std::istreambuf_iterator<char, std::char_traits<char>>>::eof() const
    main.o(t._ZN4__rw15__rw_num_do_getIcSt19istreambuf_iteratorIcSt11char_traitsIcEEtEET0_T_S5_S5_RSt8ios_baseRiRT1_) refers to main.o(i._ZN4__rw17__rw_digit_readerIcSt19istreambuf_iteratorIcSt11char_traitsIcEEED1Ev) for __rw::__rw_digit_reader<char, std::istreambuf_iterator<char, std::char_traits<char>>>::~__rw_digit_reader()
    main.o(.ARM.exidx) refers to main.o(t._ZN4__rw15__rw_num_do_getIcSt19istreambuf_iteratorIcSt11char_traitsIcEEtEET0_T_S5_S5_RSt8ios_baseRiRT1_) for t._ZN4__rw15__rw_num_do_getIcSt19istreambuf_iteratorIcSt11char_traitsIcEEtEET0_T_S5_S5_RSt8ios_baseRiRT1_
    main.o(t._ZN4__rw15__rw_num_do_getIcSt19istreambuf_iteratorIcSt11char_traitsIcEEjEET0_T_S5_S5_RSt8ios_baseRiRT1_) refers to main.o(t._ZN4__rw17__rw_digit_readerIcSt19istreambuf_iteratorIcSt11char_traitsIcEEEC1ERS4_S6_RSt8ios_base) for __rw::__rw_digit_reader<char, std::istreambuf_iterator<char, std::char_traits<char>>>::__rw_digit_reader(std::istreambuf_iterator<char, std::char_traits<char>>&, std::istreambuf_iterator<char, std::char_traits<char>>&, std::ios_base&)
    main.o(t._ZN4__rw15__rw_num_do_getIcSt19istreambuf_iteratorIcSt11char_traitsIcEEjEET0_T_S5_S5_RSt8ios_baseRiRT1_) refers to main.o(t._ZN4__rw17__rw_digit_readerIcSt19istreambuf_iteratorIcSt11char_traitsIcEEE13_C_get_digitsEi) for __rw::__rw_digit_reader<char, std::istreambuf_iterator<char, std::char_traits<char>>>::_C_get_digits(int)
    main.o(t._ZN4__rw15__rw_num_do_getIcSt19istreambuf_iteratorIcSt11char_traitsIcEEjEET0_T_S5_S5_RSt8ios_baseRiRT1_) refers to vendor.o(i._ZN4__rw22__rw_digit_reader_base8_C_parseEPKcm) for __rw::__rw_digit_reader_base::_C_parse(const char*, unsigned long)
    main.o(t._ZN4__rw15__rw_num_do_getIcSt19istreambuf_iteratorIcSt11char_traitsIcEEjEET0_T_S5_S5_RSt8ios_baseRiRT1_) refers to main.o(t._ZNK4__rw17__rw_digit_readerIcSt19istreambuf_iteratorIcSt11char_traitsIcEEE3eofEv) for __rw::__rw_digit_reader<char, std::istreambuf_iterator<char, std::char_traits<char>>>::eof() const
    main.o(t._ZN4__rw15__rw_num_do_getIcSt19istreambuf_iteratorIcSt11char_traitsIcEEjEET0_T_S5_S5_RSt8ios_baseRiRT1_) refers to main.o(i._ZN4__rw17__rw_digit_readerIcSt19istreambuf_iteratorIcSt11char_traitsIcEEED1Ev) for __rw::__rw_digit_reader<char, std::istreambuf_iterator<char, std::char_traits<char>>>::~__rw_digit_reader()
    main.o(.ARM.exidx) refers to main.o(t._ZN4__rw15__rw_num_do_getIcSt19istreambuf_iteratorIcSt11char_traitsIcEEjEET0_T_S5_S5_RSt8ios_baseRiRT1_) for t._ZN4__rw15__rw_num_do_getIcSt19istreambuf_iteratorIcSt11char_traitsIcEEjEET0_T_S5_S5_RSt8ios_baseRiRT1_
    main.o(t._ZN4__rw15__rw_num_do_getIcSt19istreambuf_iteratorIcSt11char_traitsIcEElEET0_T_S5_S5_RSt8ios_baseRiRT1_) refers to main.o(t._ZN4__rw17__rw_digit_readerIcSt19istreambuf_iteratorIcSt11char_traitsIcEEEC1ERS4_S6_RSt8ios_base) for __rw::__rw_digit_reader<char, std::istreambuf_iterator<char, std::char_traits<char>>>::__rw_digit_reader(std::istreambuf_iterator<char, std::char_traits<char>>&, std::istreambuf_iterator<char, std::char_traits<char>>&, std::ios_base&)
    main.o(t._ZN4__rw15__rw_num_do_getIcSt19istreambuf_iteratorIcSt11char_traitsIcEElEET0_T_S5_S5_RSt8ios_baseRiRT1_) refers to main.o(t._ZN4__rw17__rw_digit_readerIcSt19istreambuf_iteratorIcSt11char_traitsIcEEE13_C_get_digitsEl) for __rw::__rw_digit_reader<char, std::istreambuf_iterator<char, std::char_traits<char>>>::_C_get_digits(long)
    main.o(t._ZN4__rw15__rw_num_do_getIcSt19istreambuf_iteratorIcSt11char_traitsIcEElEET0_T_S5_S5_RSt8ios_baseRiRT1_) refers to main.o(i._ZN4__rw22__rw_digit_reader_base8_C_parseEPKcl) for __rw::__rw_digit_reader_base::_C_parse(const char*, long)
    main.o(t._ZN4__rw15__rw_num_do_getIcSt19istreambuf_iteratorIcSt11char_traitsIcEElEET0_T_S5_S5_RSt8ios_baseRiRT1_) refers to main.o(t._ZNK4__rw17__rw_digit_readerIcSt19istreambuf_iteratorIcSt11char_traitsIcEEE3eofEv) for __rw::__rw_digit_reader<char, std::istreambuf_iterator<char, std::char_traits<char>>>::eof() const
    main.o(t._ZN4__rw15__rw_num_do_getIcSt19istreambuf_iteratorIcSt11char_traitsIcEElEET0_T_S5_S5_RSt8ios_baseRiRT1_) refers to main.o(i._ZN4__rw17__rw_digit_readerIcSt19istreambuf_iteratorIcSt11char_traitsIcEEED1Ev) for __rw::__rw_digit_reader<char, std::istreambuf_iterator<char, std::char_traits<char>>>::~__rw_digit_reader()
    main.o(.ARM.exidx) refers to main.o(t._ZN4__rw15__rw_num_do_getIcSt19istreambuf_iteratorIcSt11char_traitsIcEElEET0_T_S5_S5_RSt8ios_baseRiRT1_) for t._ZN4__rw15__rw_num_do_getIcSt19istreambuf_iteratorIcSt11char_traitsIcEElEET0_T_S5_S5_RSt8ios_baseRiRT1_
    main.o(t._ZN4__rw15__rw_num_do_getIcSt19istreambuf_iteratorIcSt11char_traitsIcEEmEET0_T_S5_S5_RSt8ios_baseRiRT1_) refers to main.o(t._ZN4__rw17__rw_digit_readerIcSt19istreambuf_iteratorIcSt11char_traitsIcEEEC1ERS4_S6_RSt8ios_base) for __rw::__rw_digit_reader<char, std::istreambuf_iterator<char, std::char_traits<char>>>::__rw_digit_reader(std::istreambuf_iterator<char, std::char_traits<char>>&, std::istreambuf_iterator<char, std::char_traits<char>>&, std::ios_base&)
    main.o(t._ZN4__rw15__rw_num_do_getIcSt19istreambuf_iteratorIcSt11char_traitsIcEEmEET0_T_S5_S5_RSt8ios_baseRiRT1_) refers to main.o(t._ZN4__rw17__rw_digit_readerIcSt19istreambuf_iteratorIcSt11char_traitsIcEEE13_C_get_digitsEi) for __rw::__rw_digit_reader<char, std::istreambuf_iterator<char, std::char_traits<char>>>::_C_get_digits(int)
    main.o(t._ZN4__rw15__rw_num_do_getIcSt19istreambuf_iteratorIcSt11char_traitsIcEEmEET0_T_S5_S5_RSt8ios_baseRiRT1_) refers to vendor.o(i._ZN4__rw22__rw_digit_reader_base8_C_parseEPKcm) for __rw::__rw_digit_reader_base::_C_parse(const char*, unsigned long)
    main.o(t._ZN4__rw15__rw_num_do_getIcSt19istreambuf_iteratorIcSt11char_traitsIcEEmEET0_T_S5_S5_RSt8ios_baseRiRT1_) refers to main.o(t._ZNK4__rw17__rw_digit_readerIcSt19istreambuf_iteratorIcSt11char_traitsIcEEE3eofEv) for __rw::__rw_digit_reader<char, std::istreambuf_iterator<char, std::char_traits<char>>>::eof() const
    main.o(t._ZN4__rw15__rw_num_do_getIcSt19istreambuf_iteratorIcSt11char_traitsIcEEmEET0_T_S5_S5_RSt8ios_baseRiRT1_) refers to main.o(i._ZN4__rw17__rw_digit_readerIcSt19istreambuf_iteratorIcSt11char_traitsIcEEED1Ev) for __rw::__rw_digit_reader<char, std::istreambuf_iterator<char, std::char_traits<char>>>::~__rw_digit_reader()
    main.o(.ARM.exidx) refers to main.o(t._ZN4__rw15__rw_num_do_getIcSt19istreambuf_iteratorIcSt11char_traitsIcEEmEET0_T_S5_S5_RSt8ios_baseRiRT1_) for t._ZN4__rw15__rw_num_do_getIcSt19istreambuf_iteratorIcSt11char_traitsIcEEmEET0_T_S5_S5_RSt8ios_baseRiRT1_
    main.o(t._ZN4__rw15__rw_num_do_getIcSt19istreambuf_iteratorIcSt11char_traitsIcEEfEET0_T_S5_S5_RSt8ios_baseRiRT1_) refers to main.o(t._ZN4__rw17__rw_digit_readerIcSt19istreambuf_iteratorIcSt11char_traitsIcEEEC1ERS4_S6_RSt8ios_base) for __rw::__rw_digit_reader<char, std::istreambuf_iterator<char, std::char_traits<char>>>::__rw_digit_reader(std::istreambuf_iterator<char, std::char_traits<char>>&, std::istreambuf_iterator<char, std::char_traits<char>>&, std::ios_base&)
    main.o(t._ZN4__rw15__rw_num_do_getIcSt19istreambuf_iteratorIcSt11char_traitsIcEEfEET0_T_S5_S5_RSt8ios_baseRiRT1_) refers to main.o(t._ZN4__rw17__rw_digit_readerIcSt19istreambuf_iteratorIcSt11char_traitsIcEEE13_C_get_digitsEd) for __rw::__rw_digit_reader<char, std::istreambuf_iterator<char, std::char_traits<char>>>::_C_get_digits(double)
    main.o(t._ZN4__rw15__rw_num_do_getIcSt19istreambuf_iteratorIcSt11char_traitsIcEEfEET0_T_S5_S5_RSt8ios_baseRiRT1_) refers to vendor.o(i._ZN4__rw22__rw_digit_reader_base14_C_parse_floatEPKcS2_Pv) for __rw::__rw_digit_reader_base::_C_parse_float(const char*, const char*, void*)
    main.o(t._ZN4__rw15__rw_num_do_getIcSt19istreambuf_iteratorIcSt11char_traitsIcEEfEET0_T_S5_S5_RSt8ios_baseRiRT1_) refers to main.o(t._ZNK4__rw17__rw_digit_readerIcSt19istreambuf_iteratorIcSt11char_traitsIcEEE3eofEv) for __rw::__rw_digit_reader<char, std::istreambuf_iterator<char, std::char_traits<char>>>::eof() const
    main.o(t._ZN4__rw15__rw_num_do_getIcSt19istreambuf_iteratorIcSt11char_traitsIcEEfEET0_T_S5_S5_RSt8ios_baseRiRT1_) refers to main.o(i._ZN4__rw17__rw_digit_readerIcSt19istreambuf_iteratorIcSt11char_traitsIcEEED1Ev) for __rw::__rw_digit_reader<char, std::istreambuf_iterator<char, std::char_traits<char>>>::~__rw_digit_reader()
    main.o(t._ZN4__rw15__rw_num_do_getIcSt19istreambuf_iteratorIcSt11char_traitsIcEEfEET0_T_S5_S5_RSt8ios_baseRiRT1_) refers to main.o(.conststring) for .conststring
    main.o(.ARM.exidx) refers to main.o(t._ZN4__rw15__rw_num_do_getIcSt19istreambuf_iteratorIcSt11char_traitsIcEEfEET0_T_S5_S5_RSt8ios_baseRiRT1_) for t._ZN4__rw15__rw_num_do_getIcSt19istreambuf_iteratorIcSt11char_traitsIcEEfEET0_T_S5_S5_RSt8ios_baseRiRT1_
    main.o(t._ZN4__rw15__rw_num_do_getIcSt19istreambuf_iteratorIcSt11char_traitsIcEEdEET0_T_S5_S5_RSt8ios_baseRiRT1_) refers to main.o(t._ZN4__rw17__rw_digit_readerIcSt19istreambuf_iteratorIcSt11char_traitsIcEEEC1ERS4_S6_RSt8ios_base) for __rw::__rw_digit_reader<char, std::istreambuf_iterator<char, std::char_traits<char>>>::__rw_digit_reader(std::istreambuf_iterator<char, std::char_traits<char>>&, std::istreambuf_iterator<char, std::char_traits<char>>&, std::ios_base&)
    main.o(t._ZN4__rw15__rw_num_do_getIcSt19istreambuf_iteratorIcSt11char_traitsIcEEdEET0_T_S5_S5_RSt8ios_baseRiRT1_) refers to main.o(t._ZN4__rw17__rw_digit_readerIcSt19istreambuf_iteratorIcSt11char_traitsIcEEE13_C_get_digitsEd) for __rw::__rw_digit_reader<char, std::istreambuf_iterator<char, std::char_traits<char>>>::_C_get_digits(double)
    main.o(t._ZN4__rw15__rw_num_do_getIcSt19istreambuf_iteratorIcSt11char_traitsIcEEdEET0_T_S5_S5_RSt8ios_baseRiRT1_) refers to vendor.o(i._ZN4__rw22__rw_digit_reader_base14_C_parse_floatEPKcS2_Pv) for __rw::__rw_digit_reader_base::_C_parse_float(const char*, const char*, void*)
    main.o(t._ZN4__rw15__rw_num_do_getIcSt19istreambuf_iteratorIcSt11char_traitsIcEEdEET0_T_S5_S5_RSt8ios_baseRiRT1_) refers to main.o(t._ZNK4__rw17__rw_digit_readerIcSt19istreambuf_iteratorIcSt11char_traitsIcEEE3eofEv) for __rw::__rw_digit_reader<char, std::istreambuf_iterator<char, std::char_traits<char>>>::eof() const
    main.o(t._ZN4__rw15__rw_num_do_getIcSt19istreambuf_iteratorIcSt11char_traitsIcEEdEET0_T_S5_S5_RSt8ios_baseRiRT1_) refers to main.o(i._ZN4__rw17__rw_digit_readerIcSt19istreambuf_iteratorIcSt11char_traitsIcEEED1Ev) for __rw::__rw_digit_reader<char, std::istreambuf_iterator<char, std::char_traits<char>>>::~__rw_digit_reader()
    main.o(t._ZN4__rw15__rw_num_do_getIcSt19istreambuf_iteratorIcSt11char_traitsIcEEdEET0_T_S5_S5_RSt8ios_baseRiRT1_) refers to main.o(.conststring) for .conststring
    main.o(.ARM.exidx) refers to main.o(t._ZN4__rw15__rw_num_do_getIcSt19istreambuf_iteratorIcSt11char_traitsIcEEdEET0_T_S5_S5_RSt8ios_baseRiRT1_) for t._ZN4__rw15__rw_num_do_getIcSt19istreambuf_iteratorIcSt11char_traitsIcEEdEET0_T_S5_S5_RSt8ios_baseRiRT1_
    main.o(t._ZN4__rw15__rw_num_do_getIcSt19istreambuf_iteratorIcSt11char_traitsIcEEeEET0_T_S5_S5_RSt8ios_baseRiRT1_) refers to main.o(t._ZN4__rw17__rw_digit_readerIcSt19istreambuf_iteratorIcSt11char_traitsIcEEEC1ERS4_S6_RSt8ios_base) for __rw::__rw_digit_reader<char, std::istreambuf_iterator<char, std::char_traits<char>>>::__rw_digit_reader(std::istreambuf_iterator<char, std::char_traits<char>>&, std::istreambuf_iterator<char, std::char_traits<char>>&, std::ios_base&)
    main.o(t._ZN4__rw15__rw_num_do_getIcSt19istreambuf_iteratorIcSt11char_traitsIcEEeEET0_T_S5_S5_RSt8ios_baseRiRT1_) refers to main.o(t._ZN4__rw17__rw_digit_readerIcSt19istreambuf_iteratorIcSt11char_traitsIcEEE13_C_get_digitsEd) for __rw::__rw_digit_reader<char, std::istreambuf_iterator<char, std::char_traits<char>>>::_C_get_digits(double)
    main.o(t._ZN4__rw15__rw_num_do_getIcSt19istreambuf_iteratorIcSt11char_traitsIcEEeEET0_T_S5_S5_RSt8ios_baseRiRT1_) refers to vendor.o(i._ZN4__rw22__rw_digit_reader_base14_C_parse_floatEPKcS2_Pv) for __rw::__rw_digit_reader_base::_C_parse_float(const char*, const char*, void*)
    main.o(t._ZN4__rw15__rw_num_do_getIcSt19istreambuf_iteratorIcSt11char_traitsIcEEeEET0_T_S5_S5_RSt8ios_baseRiRT1_) refers to main.o(t._ZNK4__rw17__rw_digit_readerIcSt19istreambuf_iteratorIcSt11char_traitsIcEEE3eofEv) for __rw::__rw_digit_reader<char, std::istreambuf_iterator<char, std::char_traits<char>>>::eof() const
    main.o(t._ZN4__rw15__rw_num_do_getIcSt19istreambuf_iteratorIcSt11char_traitsIcEEeEET0_T_S5_S5_RSt8ios_baseRiRT1_) refers to main.o(i._ZN4__rw17__rw_digit_readerIcSt19istreambuf_iteratorIcSt11char_traitsIcEEED1Ev) for __rw::__rw_digit_reader<char, std::istreambuf_iterator<char, std::char_traits<char>>>::~__rw_digit_reader()
    main.o(t._ZN4__rw15__rw_num_do_getIcSt19istreambuf_iteratorIcSt11char_traitsIcEEeEET0_T_S5_S5_RSt8ios_baseRiRT1_) refers to main.o(.conststring) for .conststring
    main.o(.ARM.exidx) refers to main.o(t._ZN4__rw15__rw_num_do_getIcSt19istreambuf_iteratorIcSt11char_traitsIcEEeEET0_T_S5_S5_RSt8ios_baseRiRT1_) for t._ZN4__rw15__rw_num_do_getIcSt19istreambuf_iteratorIcSt11char_traitsIcEEeEET0_T_S5_S5_RSt8ios_baseRiRT1_
    main.o(t._ZN4__rw15__rw_num_do_getIcSt19istreambuf_iteratorIcSt11char_traitsIcEEPvEET0_T_S6_S6_RSt8ios_baseRiRT1_) refers to main.o(t._ZN4__rw17__rw_digit_readerIcSt19istreambuf_iteratorIcSt11char_traitsIcEEEC1ERS4_S6_RSt8ios_base) for __rw::__rw_digit_reader<char, std::istreambuf_iterator<char, std::char_traits<char>>>::__rw_digit_reader(std::istreambuf_iterator<char, std::char_traits<char>>&, std::istreambuf_iterator<char, std::char_traits<char>>&, std::ios_base&)
    main.o(t._ZN4__rw15__rw_num_do_getIcSt19istreambuf_iteratorIcSt11char_traitsIcEEPvEET0_T_S6_S6_RSt8ios_baseRiRT1_) refers to main.o(t._ZN4__rw17__rw_digit_readerIcSt19istreambuf_iteratorIcSt11char_traitsIcEEE13_C_get_digitsEi) for __rw::__rw_digit_reader<char, std::istreambuf_iterator<char, std::char_traits<char>>>::_C_get_digits(int)
    main.o(t._ZN4__rw15__rw_num_do_getIcSt19istreambuf_iteratorIcSt11char_traitsIcEEPvEET0_T_S6_S6_RSt8ios_baseRiRT1_) refers to vendor.o(i._ZN4__rw22__rw_digit_reader_base8_C_parseEPKcPv) for __rw::__rw_digit_reader_base::_C_parse(const char*, void*)
    main.o(t._ZN4__rw15__rw_num_do_getIcSt19istreambuf_iteratorIcSt11char_traitsIcEEPvEET0_T_S6_S6_RSt8ios_baseRiRT1_) refers to main.o(t._ZNK4__rw17__rw_digit_readerIcSt19istreambuf_iteratorIcSt11char_traitsIcEEE3eofEv) for __rw::__rw_digit_reader<char, std::istreambuf_iterator<char, std::char_traits<char>>>::eof() const
    main.o(t._ZN4__rw15__rw_num_do_getIcSt19istreambuf_iteratorIcSt11char_traitsIcEEPvEET0_T_S6_S6_RSt8ios_baseRiRT1_) refers to main.o(i._ZN4__rw17__rw_digit_readerIcSt19istreambuf_iteratorIcSt11char_traitsIcEEED1Ev) for __rw::__rw_digit_reader<char, std::istreambuf_iterator<char, std::char_traits<char>>>::~__rw_digit_reader()
    main.o(.ARM.exidx) refers to main.o(t._ZN4__rw15__rw_num_do_getIcSt19istreambuf_iteratorIcSt11char_traitsIcEEPvEET0_T_S6_S6_RSt8ios_baseRiRT1_) for t._ZN4__rw15__rw_num_do_getIcSt19istreambuf_iteratorIcSt11char_traitsIcEEPvEET0_T_S6_S6_RSt8ios_baseRiRT1_
    main.o(t._ZN4__rw15__rw_num_do_getIcSt19istreambuf_iteratorIcSt11char_traitsIcEExEET0_T_S5_S5_RSt8ios_baseRiRT1_) refers to main.o(t._ZN4__rw17__rw_digit_readerIcSt19istreambuf_iteratorIcSt11char_traitsIcEEEC1ERS4_S6_RSt8ios_base) for __rw::__rw_digit_reader<char, std::istreambuf_iterator<char, std::char_traits<char>>>::__rw_digit_reader(std::istreambuf_iterator<char, std::char_traits<char>>&, std::istreambuf_iterator<char, std::char_traits<char>>&, std::ios_base&)
    main.o(t._ZN4__rw15__rw_num_do_getIcSt19istreambuf_iteratorIcSt11char_traitsIcEExEET0_T_S5_S5_RSt8ios_baseRiRT1_) refers to main.o(t._ZN4__rw17__rw_digit_readerIcSt19istreambuf_iteratorIcSt11char_traitsIcEEE13_C_get_digitsEi) for __rw::__rw_digit_reader<char, std::istreambuf_iterator<char, std::char_traits<char>>>::_C_get_digits(int)
    main.o(t._ZN4__rw15__rw_num_do_getIcSt19istreambuf_iteratorIcSt11char_traitsIcEExEET0_T_S5_S5_RSt8ios_baseRiRT1_) refers to vendor.o(i._ZN4__rw22__rw_digit_reader_base8_C_parseEPKcy) for __rw::__rw_digit_reader_base::_C_parse(const char*, unsigned long long)
    main.o(t._ZN4__rw15__rw_num_do_getIcSt19istreambuf_iteratorIcSt11char_traitsIcEExEET0_T_S5_S5_RSt8ios_baseRiRT1_) refers to main.o(t._ZNK4__rw17__rw_digit_readerIcSt19istreambuf_iteratorIcSt11char_traitsIcEEE3eofEv) for __rw::__rw_digit_reader<char, std::istreambuf_iterator<char, std::char_traits<char>>>::eof() const
    main.o(t._ZN4__rw15__rw_num_do_getIcSt19istreambuf_iteratorIcSt11char_traitsIcEExEET0_T_S5_S5_RSt8ios_baseRiRT1_) refers to main.o(i._ZN4__rw17__rw_digit_readerIcSt19istreambuf_iteratorIcSt11char_traitsIcEEED1Ev) for __rw::__rw_digit_reader<char, std::istreambuf_iterator<char, std::char_traits<char>>>::~__rw_digit_reader()
    main.o(.ARM.exidx) refers to main.o(t._ZN4__rw15__rw_num_do_getIcSt19istreambuf_iteratorIcSt11char_traitsIcEExEET0_T_S5_S5_RSt8ios_baseRiRT1_) for t._ZN4__rw15__rw_num_do_getIcSt19istreambuf_iteratorIcSt11char_traitsIcEExEET0_T_S5_S5_RSt8ios_baseRiRT1_
    main.o(t._ZN4__rw15__rw_num_do_getIcSt19istreambuf_iteratorIcSt11char_traitsIcEEyEET0_T_S5_S5_RSt8ios_baseRiRT1_) refers to main.o(t._ZN4__rw17__rw_digit_readerIcSt19istreambuf_iteratorIcSt11char_traitsIcEEEC1ERS4_S6_RSt8ios_base) for __rw::__rw_digit_reader<char, std::istreambuf_iterator<char, std::char_traits<char>>>::__rw_digit_reader(std::istreambuf_iterator<char, std::char_traits<char>>&, std::istreambuf_iterator<char, std::char_traits<char>>&, std::ios_base&)
    main.o(t._ZN4__rw15__rw_num_do_getIcSt19istreambuf_iteratorIcSt11char_traitsIcEEyEET0_T_S5_S5_RSt8ios_baseRiRT1_) refers to main.o(t._ZN4__rw17__rw_digit_readerIcSt19istreambuf_iteratorIcSt11char_traitsIcEEE13_C_get_digitsEi) for __rw::__rw_digit_reader<char, std::istreambuf_iterator<char, std::char_traits<char>>>::_C_get_digits(int)
    main.o(t._ZN4__rw15__rw_num_do_getIcSt19istreambuf_iteratorIcSt11char_traitsIcEEyEET0_T_S5_S5_RSt8ios_baseRiRT1_) refers to vendor.o(i._ZN4__rw22__rw_digit_reader_base8_C_parseEPKcy) for __rw::__rw_digit_reader_base::_C_parse(const char*, unsigned long long)
    main.o(t._ZN4__rw15__rw_num_do_getIcSt19istreambuf_iteratorIcSt11char_traitsIcEEyEET0_T_S5_S5_RSt8ios_baseRiRT1_) refers to main.o(t._ZNK4__rw17__rw_digit_readerIcSt19istreambuf_iteratorIcSt11char_traitsIcEEE3eofEv) for __rw::__rw_digit_reader<char, std::istreambuf_iterator<char, std::char_traits<char>>>::eof() const
    main.o(t._ZN4__rw15__rw_num_do_getIcSt19istreambuf_iteratorIcSt11char_traitsIcEEyEET0_T_S5_S5_RSt8ios_baseRiRT1_) refers to main.o(i._ZN4__rw17__rw_digit_readerIcSt19istreambuf_iteratorIcSt11char_traitsIcEEED1Ev) for __rw::__rw_digit_reader<char, std::istreambuf_iterator<char, std::char_traits<char>>>::~__rw_digit_reader()
    main.o(.ARM.exidx) refers to main.o(t._ZN4__rw15__rw_num_do_getIcSt19istreambuf_iteratorIcSt11char_traitsIcEEyEET0_T_S5_S5_RSt8ios_baseRiRT1_) for t._ZN4__rw15__rw_num_do_getIcSt19istreambuf_iteratorIcSt11char_traitsIcEEyEET0_T_S5_S5_RSt8ios_baseRiRT1_
    main.o(i._ZN4__rw24__rw_digit_writer_base_1IcED1Ev) refers to main.o(i._ZN4__rw22__rw_digit_writer_baseD1Ev) for __rw::__rw_digit_writer_base::~__rw_digit_writer_base()
    main.o(.ARM.exidx) refers to main.o(i._ZN4__rw24__rw_digit_writer_base_1IcED1Ev) for i._ZN4__rw24__rw_digit_writer_base_1IcED1Ev
    main.o(.constdata__ZTVN4__rw15__rw_facet_baseE) refers to main.o(.constdata__ZTIN4__rw15__rw_facet_baseE) for typeinfo for __rw::__rw_facet_base
    main.o(.constdata__ZTVN4__rw15__rw_facet_baseE) refers to main.o(i._ZN4__rw15__rw_facet_baseD1Ev) for __rw::__rw_facet_base::~__rw_facet_base()
    main.o(.constdata__ZTVN4__rw15__rw_facet_baseE) refers to main.o(i._ZN4__rw15__rw_facet_baseD0Ev) for __rw::__rw_facet_base::~__rw_facet_base__deallocating()
    main.o(.constdata__ZTVN4__rw15__rw_facet_baseE) refers to main.o(i._ZN4__rw15__rw_facet_base12_C_initfacetERKSt6locale) for __rw::__rw_facet_base::_C_initfacet(const std::locale&)
    main.o(.constdata__ZTVNSt6locale5facetE) refers to main.o(.constdata__ZTINSt6locale5facetE) for typeinfo for std::locale::facet
    main.o(.constdata__ZTVNSt6locale5facetE) refers to char.o(i._ZNSt6locale5facetD1Ev) for std::locale::facet::~facet()
    main.o(.constdata__ZTVNSt6locale5facetE) refers to ios.o(i._ZNSt6locale5facetD0Ev) for std::locale::facet::~facet__deallocating()
    main.o(.constdata__ZTVNSt6locale5facetE) refers to main.o(i._ZN4__rw15__rw_facet_base12_C_initfacetERKSt6locale) for __rw::__rw_facet_base::_C_initfacet(const std::locale&)
    main.o(.constdata__ZTVN4__rw22__rw_digit_writer_baseE) refers to main.o(.constdata__ZTIN4__rw22__rw_digit_writer_baseE) for typeinfo for __rw::__rw_digit_writer_base
    main.o(.constdata__ZTVN4__rw22__rw_digit_writer_baseE) refers to main.o(i._ZN4__rw22__rw_digit_writer_baseD1Ev) for __rw::__rw_digit_writer_base::~__rw_digit_writer_base()
    main.o(.constdata__ZTVN4__rw22__rw_digit_writer_baseE) refers to main.o(i._ZN4__rw22__rw_digit_writer_baseD0Ev) for __rw::__rw_digit_writer_base::~__rw_digit_writer_base__deallocating()
    main.o(.constdata__ZTVSt15numpunct_bynameIcE) refers to main.o(.constdata__ZTISt15numpunct_bynameIcE) for typeinfo for std::numpunct_byname<char>
    main.o(.constdata__ZTVSt15numpunct_bynameIcE) refers to main.o(i._ZNSt15numpunct_bynameIcED1Ev) for std::numpunct_byname<char>::~numpunct_byname()
    main.o(.constdata__ZTVSt15numpunct_bynameIcE) refers to main.o(i._ZNSt15numpunct_bynameIcED0Ev) for std::numpunct_byname<char>::~numpunct_byname__deallocating()
    main.o(.constdata__ZTVSt15numpunct_bynameIcE) refers to char.o(t._ZNSt8numpunctIcE12_C_initfacetERKSt6locale) for std::numpunct<char>::_C_initfacet(const std::locale&)
    main.o(.constdata__ZTVSt15numpunct_bynameIcE) refers to char.o(t._ZNKSt8numpunctIcE16do_decimal_pointEv) for std::numpunct<char>::do_decimal_point() const
    main.o(.constdata__ZTVSt15numpunct_bynameIcE) refers to char.o(t._ZNKSt8numpunctIcE16do_thousands_sepEv) for std::numpunct<char>::do_thousands_sep() const
    main.o(.constdata__ZTVSt15numpunct_bynameIcE) refers to char.o(t._ZNKSt8numpunctIcE11do_groupingEv) for std::numpunct<char>::do_grouping() const
    main.o(.constdata__ZTVSt15numpunct_bynameIcE) refers to char.o(t._ZNKSt8numpunctIcE11do_truenameEv) for std::numpunct<char>::do_truename() const
    main.o(.constdata__ZTVSt15numpunct_bynameIcE) refers to char.o(t._ZNKSt8numpunctIcE12do_falsenameEv) for std::numpunct<char>::do_falsename() const
    main.o(.constdata__ZTISt8numpunctIcE) refers to lib_rtti_impl.o(.constdata__ZTVN10__cxxabiv121__vmi_class_type_infoE) for vtable for __cxxabiv1::__vmi_class_type_info
    main.o(.constdata__ZTISt8numpunctIcE) refers to main.o(.constdata__ZTSSt8numpunctIcE) for typeinfo name for std::numpunct<char>
    main.o(.constdata__ZTISt8numpunctIcE) refers to main.o(.constdata__ZTINSt6locale5facetE) for typeinfo for std::locale::facet
    main.o(.constdata__ZTISt8numpunctIcE) refers to main.o(.constdata__ZTIN4__rw18__rw_numpunct_implIcEE) for typeinfo for __rw::__rw_numpunct_impl<char>
    main.o(.constdata__ZTVN4__rw24__rw_digit_writer_base_1IcEE) refers to main.o(.constdata__ZTIN4__rw24__rw_digit_writer_base_1IcEE) for typeinfo for __rw::__rw_digit_writer_base_1<char>
    main.o(.constdata__ZTVN4__rw24__rw_digit_writer_base_1IcEE) refers to main.o(i._ZN4__rw24__rw_digit_writer_base_1IcED1Ev) for __rw::__rw_digit_writer_base_1<char>::~__rw_digit_writer_base_1()
    main.o(.constdata__ZTVN4__rw24__rw_digit_writer_base_1IcEE) refers to main.o(i._ZN4__rw24__rw_digit_writer_base_1IcED0Ev) for __rw::__rw_digit_writer_base_1<char>::~__rw_digit_writer_base_1__deallocating()
    main.o(.constdata__ZTVN4__rw17__rw_digit_writerIcSt19ostreambuf_iteratorIcSt11char_traitsIcEEEE) refers to main.o(.constdata__ZTIN4__rw17__rw_digit_writerIcSt19ostreambuf_iteratorIcSt11char_traitsIcEEEE) for typeinfo for __rw::__rw_digit_writer<char, std::ostreambuf_iterator<char, std::char_traits<char>>>
    main.o(.constdata__ZTVN4__rw17__rw_digit_writerIcSt19ostreambuf_iteratorIcSt11char_traitsIcEEEE) refers to main.o(i._ZN4__rw17__rw_digit_writerIcSt19ostreambuf_iteratorIcSt11char_traitsIcEEED1Ev) for __rw::__rw_digit_writer<char, std::ostreambuf_iterator<char, std::char_traits<char>>>::~__rw_digit_writer()
    main.o(.constdata__ZTVN4__rw17__rw_digit_writerIcSt19ostreambuf_iteratorIcSt11char_traitsIcEEEE) refers to main.o(i._ZN4__rw17__rw_digit_writerIcSt19ostreambuf_iteratorIcSt11char_traitsIcEEED0Ev) for __rw::__rw_digit_writer<char, std::ostreambuf_iterator<char, std::char_traits<char>>>::~__rw_digit_writer__deallocating()
    main.o(.constdata__ZTISt7num_putIcSt19ostreambuf_iteratorIcSt11char_traitsIcEEE) refers to lib_rtti_impl.o(.constdata__ZTVN10__cxxabiv120__si_class_type_infoE) for vtable for __cxxabiv1::__si_class_type_info
    main.o(.constdata__ZTISt7num_putIcSt19ostreambuf_iteratorIcSt11char_traitsIcEEE) refers to main.o(.constdata__ZTSSt7num_putIcSt19ostreambuf_iteratorIcSt11char_traitsIcEEE) for typeinfo name for std::num_put<char, std::ostreambuf_iterator<char, std::char_traits<char>>>
    main.o(.constdata__ZTISt7num_putIcSt19ostreambuf_iteratorIcSt11char_traitsIcEEE) refers to main.o(.constdata__ZTINSt6locale5facetE) for typeinfo for std::locale::facet
    main.o(.constdata__ZTISt7num_getIcSt19istreambuf_iteratorIcSt11char_traitsIcEEE) refers to lib_rtti_impl.o(.constdata__ZTVN10__cxxabiv120__si_class_type_infoE) for vtable for __cxxabiv1::__si_class_type_info
    main.o(.constdata__ZTISt7num_getIcSt19istreambuf_iteratorIcSt11char_traitsIcEEE) refers to main.o(.constdata__ZTSSt7num_getIcSt19istreambuf_iteratorIcSt11char_traitsIcEEE) for typeinfo name for std::num_get<char, std::istreambuf_iterator<char, std::char_traits<char>>>
    main.o(.constdata__ZTISt7num_getIcSt19istreambuf_iteratorIcSt11char_traitsIcEEE) refers to main.o(.constdata__ZTINSt6locale5facetE) for typeinfo for std::locale::facet
    main.o(.constdata__ZN4__rw18__rw_numpunct_implIcE8_C_ivalsE) refers to main.o(.conststring__ZN4__rw18__rw_numpunct_implIcE8_C_ivalsE) for .conststring__ZN4__rw18__rw_numpunct_implIcE8_C_ivalsE
    main.o(.constdata__ZN4__rw18__rw_numpunct_implIcE8_C_ivalsE) refers to main.o(.constdata__ZN4__rw14__rw_bool_nameIcE7_C_nameE) for __rw::__rw_bool_name<char>::_C_name
    main.o(.constdata__ZTINSt6locale5facetE) refers to lib_rtti_impl.o(.constdata__ZTVN10__cxxabiv120__si_class_type_infoE) for vtable for __cxxabiv1::__si_class_type_info
    main.o(.constdata__ZTINSt6locale5facetE) refers to main.o(.constdata__ZTSNSt6locale5facetE) for typeinfo name for std::locale::facet
    main.o(.constdata__ZTINSt6locale5facetE) refers to main.o(.constdata__ZTIN4__rw15__rw_facet_baseE) for typeinfo for __rw::__rw_facet_base
    main.o(.constdata__ZTIN4__rw15__rw_facet_baseE) refers to lib_rtti_impl.o(.constdata__ZTVN10__cxxabiv120__si_class_type_infoE) for vtable for __cxxabiv1::__si_class_type_info
    main.o(.constdata__ZTIN4__rw15__rw_facet_baseE) refers to main.o(.constdata__ZTSN4__rw15__rw_facet_baseE) for typeinfo name for __rw::__rw_facet_base
    main.o(.constdata__ZTIN4__rw15__rw_facet_baseE) refers to main.o(.constdata__ZTIN4__rw17__rw_synchronizedE) for typeinfo for __rw::__rw_synchronized
    main.o(.constdata__ZTISt15numpunct_bynameIcE) refers to lib_rtti_impl.o(.constdata__ZTVN10__cxxabiv120__si_class_type_infoE) for vtable for __cxxabiv1::__si_class_type_info
    main.o(.constdata__ZTISt15numpunct_bynameIcE) refers to main.o(.constdata__ZTSSt15numpunct_bynameIcE) for typeinfo name for std::numpunct_byname<char>
    main.o(.constdata__ZTISt15numpunct_bynameIcE) refers to main.o(.constdata__ZTISt8numpunctIcE) for typeinfo for std::numpunct<char>
    main.o(.constdata__ZTIN4__rw22__rw_digit_writer_baseE) refers to lib_rtti_impl.o(.constdata__ZTVN10__cxxabiv120__si_class_type_infoE) for vtable for __cxxabiv1::__si_class_type_info
    main.o(.constdata__ZTIN4__rw22__rw_digit_writer_baseE) refers to main.o(.constdata__ZTSN4__rw22__rw_digit_writer_baseE) for typeinfo name for __rw::__rw_digit_writer_base
    main.o(.constdata__ZTIN4__rw22__rw_digit_writer_baseE) refers to main.o(.constdata__ZTIN4__rw19__rw_digit_map_baseE) for typeinfo for __rw::__rw_digit_map_base
    main.o(.constdata__ZTIN4__rw24__rw_digit_writer_base_1IcEE) refers to lib_rtti_impl.o(.constdata__ZTVN10__cxxabiv121__vmi_class_type_infoE) for vtable for __cxxabiv1::__vmi_class_type_info
    main.o(.constdata__ZTIN4__rw24__rw_digit_writer_base_1IcEE) refers to main.o(.constdata__ZTSN4__rw24__rw_digit_writer_base_1IcEE) for typeinfo name for __rw::__rw_digit_writer_base_1<char>
    main.o(.constdata__ZTIN4__rw24__rw_digit_writer_base_1IcEE) refers to main.o(.constdata__ZTIN4__rw22__rw_digit_writer_baseE) for typeinfo for __rw::__rw_digit_writer_base
    main.o(.constdata__ZTIN4__rw24__rw_digit_writer_base_1IcEE) refers to main.o(.constdata__ZTIN4__rw25__rw_digit_handler_base_1IcEE) for typeinfo for __rw::__rw_digit_handler_base_1<char>
    main.o(.constdata__ZTIN4__rw17__rw_digit_writerIcSt19ostreambuf_iteratorIcSt11char_traitsIcEEEE) refers to lib_rtti_impl.o(.constdata__ZTVN10__cxxabiv120__si_class_type_infoE) for vtable for __cxxabiv1::__si_class_type_info
    main.o(.constdata__ZTIN4__rw17__rw_digit_writerIcSt19ostreambuf_iteratorIcSt11char_traitsIcEEEE) refers to main.o(.constdata__ZTSN4__rw17__rw_digit_writerIcSt19ostreambuf_iteratorIcSt11char_traitsIcEEEE) for typeinfo name for __rw::__rw_digit_writer<char, std::ostreambuf_iterator<char, std::char_traits<char>>>
    main.o(.constdata__ZTIN4__rw17__rw_digit_writerIcSt19ostreambuf_iteratorIcSt11char_traitsIcEEEE) refers to main.o(.constdata__ZTIN4__rw24__rw_digit_writer_base_1IcEE) for typeinfo for __rw::__rw_digit_writer_base_1<char>
    main.o(.constdata__ZTIN4__rw18__rw_numpunct_implIcEE) refers to lib_rtti_impl.o(.constdata__ZTVN10__cxxabiv120__si_class_type_infoE) for vtable for __cxxabiv1::__si_class_type_info
    main.o(.constdata__ZTIN4__rw18__rw_numpunct_implIcEE) refers to main.o(.constdata__ZTSN4__rw18__rw_numpunct_implIcEE) for typeinfo name for __rw::__rw_numpunct_impl<char>
    main.o(.constdata__ZTIN4__rw18__rw_numpunct_implIcEE) refers to main.o(.constdata__ZTIN4__rw23__rw_numpunct_impl_dataIcEE) for typeinfo for __rw::__rw_numpunct_impl_data<char>
    main.o(.constdata__ZTIN4__rw17__rw_synchronizedE) refers to lib_rtti_impl.o(.constdata__ZTVN10__cxxabiv117__class_type_infoE) for vtable for __cxxabiv1::__class_type_info
    main.o(.constdata__ZTIN4__rw17__rw_synchronizedE) refers to main.o(.constdata__ZTSN4__rw17__rw_synchronizedE) for typeinfo name for __rw::__rw_synchronized
    main.o(.constdata__ZTIN4__rw23__rw_numpunct_impl_dataIcEE) refers to lib_rtti_impl.o(.constdata__ZTVN10__cxxabiv121__vmi_class_type_infoE) for vtable for __cxxabiv1::__vmi_class_type_info
    main.o(.constdata__ZTIN4__rw23__rw_numpunct_impl_dataIcEE) refers to main.o(.constdata__ZTSN4__rw23__rw_numpunct_impl_dataIcEE) for typeinfo name for __rw::__rw_numpunct_impl_data<char>
    main.o(.constdata__ZTIN4__rw23__rw_numpunct_impl_dataIcEE) refers to main.o(.constdata__ZTIN4__rw23__rw_numpunct_impl_baseE) for typeinfo for __rw::__rw_numpunct_impl_base
    main.o(.constdata__ZTIN4__rw23__rw_numpunct_impl_dataIcEE) refers to main.o(.constdata__ZTIN4__rw15__rw_punct_dataIcEE) for typeinfo for __rw::__rw_punct_data<char>
    main.o(.constdata__ZTIN4__rw19__rw_digit_map_baseE) refers to lib_rtti_impl.o(.constdata__ZTVN10__cxxabiv117__class_type_infoE) for vtable for __cxxabiv1::__class_type_info
    main.o(.constdata__ZTIN4__rw19__rw_digit_map_baseE) refers to main.o(.constdata__ZTSN4__rw19__rw_digit_map_baseE) for typeinfo name for __rw::__rw_digit_map_base
    main.o(.constdata__ZTIN4__rw25__rw_digit_handler_base_1IcEE) refers to lib_rtti_impl.o(.constdata__ZTVN10__cxxabiv120__si_class_type_infoE) for vtable for __cxxabiv1::__si_class_type_info
    main.o(.constdata__ZTIN4__rw25__rw_digit_handler_base_1IcEE) refers to main.o(.constdata__ZTSN4__rw25__rw_digit_handler_base_1IcEE) for typeinfo name for __rw::__rw_digit_handler_base_1<char>
    main.o(.constdata__ZTIN4__rw25__rw_digit_handler_base_1IcEE) refers to main.o(.constdata__ZTIN4__rw20__rw_keyword_crackerIcEE) for typeinfo for __rw::__rw_keyword_cracker<char>
    main.o(.constdata__ZTIN4__rw23__rw_numpunct_impl_baseE) refers to lib_rtti_impl.o(.constdata__ZTVN10__cxxabiv117__class_type_infoE) for vtable for __cxxabiv1::__class_type_info
    main.o(.constdata__ZTIN4__rw23__rw_numpunct_impl_baseE) refers to main.o(.constdata__ZTSN4__rw23__rw_numpunct_impl_baseE) for typeinfo name for __rw::__rw_numpunct_impl_base
    main.o(.constdata__ZTIN4__rw15__rw_punct_dataIcEE) refers to lib_rtti_impl.o(.constdata__ZTVN10__cxxabiv117__class_type_infoE) for vtable for __cxxabiv1::__class_type_info
    main.o(.constdata__ZTIN4__rw15__rw_punct_dataIcEE) refers to main.o(.constdata__ZTSN4__rw15__rw_punct_dataIcEE) for typeinfo name for __rw::__rw_punct_data<char>
    main.o(.constdata__ZTIN4__rw20__rw_keyword_crackerIcEE) refers to lib_rtti_impl.o(.constdata__ZTVN10__cxxabiv117__class_type_infoE) for vtable for __cxxabiv1::__class_type_info
    main.o(.constdata__ZTIN4__rw20__rw_keyword_crackerIcEE) refers to main.o(.constdata__ZTSN4__rw20__rw_keyword_crackerIcEE) for typeinfo name for __rw::__rw_keyword_cracker<char>
    main.o(.ARM.exidx) refers to main.o(i._ZN4__rw15__rw_facet_baseD1Ev) for i._ZN4__rw15__rw_facet_baseD1Ev
    main.o(i._ZNSt15numpunct_bynameIcED1Ev) refers to char.o(i._ZNSt8numpunctIcED1Ev) for std::numpunct<char>::~numpunct()
    main.o(.ARM.exidx) refers to main.o(i._ZNSt15numpunct_bynameIcED1Ev) for i._ZNSt15numpunct_bynameIcED1Ev
    main.o(i._ZNSt15numpunct_bynameIcED0Ev) refers to main.o(i._ZNSt15numpunct_bynameIcED1Ev) for std::numpunct_byname<char>::~numpunct_byname()
    main.o(i._ZNSt15numpunct_bynameIcED0Ev) refers to delete.o(i._ZdlPv) for operator delete (void*)
    main.o(.ARM.exidx) refers to main.o(i._ZNSt15numpunct_bynameIcED0Ev) for i._ZNSt15numpunct_bynameIcED0Ev
    main.o(i._ZN4__rw15__rw_facet_baseD0Ev) refers to delete.o(i._ZdlPv) for operator delete (void*)
    main.o(.ARM.exidx) refers to main.o(i._ZN4__rw15__rw_facet_baseD0Ev) for i._ZN4__rw15__rw_facet_baseD0Ev
    main.o(i._ZN4__rw22__rw_digit_writer_baseD0Ev) refers to main.o(i._ZN4__rw22__rw_digit_writer_baseD1Ev) for __rw::__rw_digit_writer_base::~__rw_digit_writer_base()
    main.o(i._ZN4__rw22__rw_digit_writer_baseD0Ev) refers to delete.o(i._ZdlPv) for operator delete (void*)
    main.o(.ARM.exidx) refers to main.o(i._ZN4__rw22__rw_digit_writer_baseD0Ev) for i._ZN4__rw22__rw_digit_writer_baseD0Ev
    main.o(i._ZN4__rw24__rw_digit_writer_base_1IcED0Ev) refers to main.o(i._ZN4__rw24__rw_digit_writer_base_1IcED1Ev) for __rw::__rw_digit_writer_base_1<char>::~__rw_digit_writer_base_1()
    main.o(i._ZN4__rw24__rw_digit_writer_base_1IcED0Ev) refers to delete.o(i._ZdlPv) for operator delete (void*)
    main.o(.ARM.exidx) refers to main.o(i._ZN4__rw24__rw_digit_writer_base_1IcED0Ev) for i._ZN4__rw24__rw_digit_writer_base_1IcED0Ev
    main.o(i._ZN4__rw17__rw_digit_writerIcSt19ostreambuf_iteratorIcSt11char_traitsIcEEED0Ev) refers to main.o(i._ZN4__rw17__rw_digit_writerIcSt19ostreambuf_iteratorIcSt11char_traitsIcEEED1Ev) for __rw::__rw_digit_writer<char, std::ostreambuf_iterator<char, std::char_traits<char>>>::~__rw_digit_writer()
    main.o(i._ZN4__rw17__rw_digit_writerIcSt19ostreambuf_iteratorIcSt11char_traitsIcEEED0Ev) refers to delete.o(i._ZdlPv) for operator delete (void*)
    main.o(.ARM.exidx) refers to main.o(i._ZN4__rw17__rw_digit_writerIcSt19ostreambuf_iteratorIcSt11char_traitsIcEEED0Ev) for i._ZN4__rw17__rw_digit_writerIcSt19ostreambuf_iteratorIcSt11char_traitsIcEEED0Ev
    char.o(.constdata__ZTVSt5ctypeIcE) refers to char.o(.constdata__ZTISt5ctypeIcE) for typeinfo for std::ctype<char>
    char.o(.constdata__ZTVSt5ctypeIcE) refers to char.o(i._ZNSt5ctypeIcED1Ev) for std::ctype<char>::~ctype()
    char.o(.constdata__ZTVSt5ctypeIcE) refers to char.o(i._ZNSt5ctypeIcED0Ev) for std::ctype<char>::~ctype__deallocating()
    char.o(.constdata__ZTVSt5ctypeIcE) refers to char.o(i._ZNSt5ctypeIcE12_C_initfacetERKSt6locale) for std::ctype<char>::_C_initfacet(const std::locale&)
    char.o(.constdata__ZTVSt5ctypeIcE) refers to char.o(i._ZNKSt5ctypeIcE10do_toupperEPcPKc) for std::ctype<char>::do_toupper(char*, const char*) const
    char.o(.constdata__ZTVSt5ctypeIcE) refers to char.o(i._ZNKSt5ctypeIcE10do_tolowerEPcPKc) for std::ctype<char>::do_tolower(char*, const char*) const
    char.o(.constdata__ZTVSt5ctypeIcE) refers to char.o(i._ZNKSt5ctypeIcE10do_toupperEc) for std::ctype<char>::do_toupper(char) const
    char.o(.constdata__ZTVSt5ctypeIcE) refers to char.o(i._ZNKSt5ctypeIcE10do_tolowerEc) for std::ctype<char>::do_tolower(char) const
    char.o(.constdata__ZTVSt5ctypeIcE) refers to char.o(i._ZNKSt5ctypeIcE8do_widenEc) for std::ctype<char>::do_widen(char) const
    char.o(.constdata__ZTVSt5ctypeIcE) refers to char.o(i._ZNKSt5ctypeIcE8do_widenEPKcS2_Pc) for std::ctype<char>::do_widen(const char*, const char*, char*) const
    char.o(.constdata__ZTVSt5ctypeIcE) refers to char.o(i._ZNKSt5ctypeIcE9do_narrowEcc) for std::ctype<char>::do_narrow(char, char) const
    char.o(.constdata__ZTVSt5ctypeIcE) refers to char.o(i._ZNKSt5ctypeIcE9do_narrowEPKcS2_cPc) for std::ctype<char>::do_narrow(const char*, const char*, char, char*) const
    char.o(.constdata__ZTVSt7collateIcE) refers to char.o(.constdata__ZTISt7collateIcE) for typeinfo for std::collate<char>
    char.o(.constdata__ZTVSt7collateIcE) refers to char.o(i._ZNSt7collateIcED1Ev) for std::collate<char>::~collate()
    char.o(.constdata__ZTVSt7collateIcE) refers to char.o(i._ZNSt7collateIcED0Ev) for std::collate<char>::~collate__deallocating()
    char.o(.constdata__ZTVSt7collateIcE) refers to main.o(i._ZN4__rw15__rw_facet_base12_C_initfacetERKSt6locale) for __rw::__rw_facet_base::_C_initfacet(const std::locale&)
    char.o(.constdata__ZTVSt7collateIcE) refers to char.o(t._ZNKSt7collateIcE10do_compareEPKcS2_S2_S2_) for std::collate<char>::do_compare(const char*, const char*, const char*, const char*) const
    char.o(.constdata__ZTVSt7collateIcE) refers to char.o(t._ZNKSt7collateIcE12do_transformEPKcS2_) for std::collate<char>::do_transform(const char*, const char*) const
    char.o(.constdata__ZTVSt7collateIcE) refers to char.o(t._ZNKSt7collateIcE7do_hashEPKcS2_) for std::collate<char>::do_hash(const char*, const char*) const
    char.o(.constdata__ZTVSt14collate_bynameIcE) refers to char.o(.constdata__ZTISt14collate_bynameIcE) for typeinfo for std::collate_byname<char>
    char.o(.constdata__ZTVSt14collate_bynameIcE) refers to char.o(i._ZNSt14collate_bynameIcED1Ev) for std::collate_byname<char>::~collate_byname()
    char.o(.constdata__ZTVSt14collate_bynameIcE) refers to char.o(i._ZNSt14collate_bynameIcED0Ev) for std::collate_byname<char>::~collate_byname__deallocating()
    char.o(.constdata__ZTVSt14collate_bynameIcE) refers to main.o(i._ZN4__rw15__rw_facet_base12_C_initfacetERKSt6locale) for __rw::__rw_facet_base::_C_initfacet(const std::locale&)
    char.o(.constdata__ZTVSt14collate_bynameIcE) refers to char.o(i._ZNKSt14collate_bynameIcE10do_compareEPKcS2_S2_S2_) for std::collate_byname<char>::do_compare(const char*, const char*, const char*, const char*) const
    char.o(.constdata__ZTVSt14collate_bynameIcE) refers to char.o(i._ZNKSt14collate_bynameIcE12do_transformEPKcS2_) for std::collate_byname<char>::do_transform(const char*, const char*) const
    char.o(.constdata__ZTVSt14collate_bynameIcE) refers to char.o(t._ZNKSt7collateIcE7do_hashEPKcS2_) for std::collate<char>::do_hash(const char*, const char*) const
    char.o(t._ZNSs9_C_getRepEjj) refers to rwstdexcept.o(i._ZN4__rw10__rw_throwEiz) for __rw::__rw_throw(int, ...)
    char.o(t._ZNSs9_C_getRepEjj) refers to rwalloc.o(i._ZN4__rw13__rw_allocateEji) for __rw::__rw_allocate(unsigned, int)
    char.o(t._ZNSs9_C_getRepEjj) refers to main.o(.constdata__ZZNSs9_C_getRepEjjEs) for std::basic_string<char, std::char_traits<char>, std::allocator<char>>::_C_getRep(unsigned, unsigned)::string
    char.o(t._ZNSs9_C_getRepEjj) refers to messages.o(.bss__ZNSs9__nullrefE) for std::basic_string<char, std::char_traits<char>, std::allocator<char>>::__nullref
    char.o(.ARM.exidx) refers to char.o(t._ZNSs9_C_getRepEjj) for t._ZNSs9_C_getRepEjj
    char.o(.ARM.exidx) refers to unwind_pr0.o(.text) for __aeabi_unwind_cpp_pr0
    char.o(t._ZNSsC1ERKSs) refers to main.o(t._ZN4__rw12__string_refIcSt11char_traitsIcESaIcEE10_C_inc_refEv) for __rw::__string_ref<char, std::char_traits<char>, std::allocator<char>>::_C_inc_ref()
    char.o(t._ZNSsC1ERKSs) refers to char.o(t._ZNSs9_C_getRepEjj) for std::basic_string<char, std::char_traits<char>, std::allocator<char>>::_C_getRep(unsigned, unsigned)
    char.o(t._ZNSsC1ERKSs) refers to char.o(i._ZNSt11char_traitsIcE4copyEPcPKcj) for std::char_traits<char>::copy(char*, const char*, unsigned)
    char.o(.ARM.exidx) refers to char.o(t._ZNSsC1ERKSs) for t._ZNSsC1ERKSs
    char.o(.ARM.exidx) refers to unwind_pr0.o(.text) for __aeabi_unwind_cpp_pr0
    char.o(t._ZNSsC1EPKcjRKSaIcE) refers to rwstdexcept.o(i._ZN4__rw10__rw_throwEiz) for __rw::__rw_throw(int, ...)
    char.o(t._ZNSsC1EPKcjRKSaIcE) refers to char.o(t._ZSt3maxIjERKT_S2_S2_) for const T1& std::max<unsigned>(const T1&, const T1&)
    char.o(t._ZNSsC1EPKcjRKSaIcE) refers to char.o(t._ZNSs9_C_getRepEjj) for std::basic_string<char, std::char_traits<char>, std::allocator<char>>::_C_getRep(unsigned, unsigned)
    char.o(t._ZNSsC1EPKcjRKSaIcE) refers to char.o(i._ZNSt11char_traitsIcE4copyEPcPKcj) for std::char_traits<char>::copy(char*, const char*, unsigned)
    char.o(t._ZNSsC1EPKcjRKSaIcE) refers to char.o(.constdata__ZZNSsC1EPKcjRKSaIcEEs) for std::basic_string<char, std::char_traits<char>, std::allocator<char>>::basic_string(const char*, unsigned, const std::allocator<char>&)::string
    char.o(t._ZNSsC1EPKcjRKSaIcE) refers to messages.o(.bss__ZNSs9__nullrefE) for std::basic_string<char, std::char_traits<char>, std::allocator<char>>::__nullref
    char.o(.ARM.exidx) refers to char.o(t._ZNSsC1EPKcjRKSaIcE) for t._ZNSsC1EPKcjRKSaIcE
    char.o(.ARM.exidx) refers to unwind_pr0.o(.text) for __aeabi_unwind_cpp_pr0
    char.o(t._ZNSs9_C_unlinkEv) refers to rwalloc.o(i._ZN4__rw15__rw_deallocateEPvji) for __rw::__rw_deallocate(void*, unsigned, int)
    char.o(t._ZNSs9_C_unlinkEv) refers to messages.o(.bss__ZNSs9__nullrefE) for std::basic_string<char, std::char_traits<char>, std::allocator<char>>::__nullref
    char.o(.ARM.exidx) refers to char.o(t._ZNSs9_C_unlinkEv) for t._ZNSs9_C_unlinkEv
    char.o(.ARM.exidx) refers to unwind_pr0.o(.text) for __aeabi_unwind_cpp_pr0
    char.o(t._ZNSs7replaceEjjPKcjjj) refers to rwstdexcept.o(i._ZN4__rw10__rw_throwEiz) for __rw::__rw_throw(int, ...)
    char.o(t._ZNSs7replaceEjjPKcjjj) refers to char.o(t._ZSt3maxIjERKT_S2_S2_) for const T1& std::max<unsigned>(const T1&, const T1&)
    char.o(t._ZNSs7replaceEjjPKcjjj) refers to char.o(t._ZNSs9_C_getRepEjj) for std::basic_string<char, std::char_traits<char>, std::allocator<char>>::_C_getRep(unsigned, unsigned)
    char.o(t._ZNSs7replaceEjjPKcjjj) refers to char.o(i._ZNSt11char_traitsIcE4copyEPcPKcj) for std::char_traits<char>::copy(char*, const char*, unsigned)
    char.o(t._ZNSs7replaceEjjPKcjjj) refers to char.o(t._ZNSs9_C_unlinkEv) for std::basic_string<char, std::char_traits<char>, std::allocator<char>>::_C_unlink()
    char.o(t._ZNSs7replaceEjjPKcjjj) refers to rt_memmove_v6.o(.text) for __aeabi_memmove
    char.o(t._ZNSs7replaceEjjPKcjjj) refers to main.o(.constdata__ZZNSs7replaceEjjPKcjjjEs) for std::basic_string<char, std::char_traits<char>, std::allocator<char>>::replace(unsigned, unsigned, const char*, unsigned, unsigned, unsigned)::string
    char.o(t._ZNSs7replaceEjjPKcjjj) refers to messages.o(.bss__ZNSs9__nullrefE) for std::basic_string<char, std::char_traits<char>, std::allocator<char>>::__nullref
    char.o(.ARM.exidx) refers to char.o(t._ZNSs7replaceEjjPKcjjj) for t._ZNSs7replaceEjjPKcjjj
    char.o(.ARM.exidx) refers to unwind_pr1.o(.text) for __aeabi_unwind_cpp_pr1
    char.o(.ARM.exidx) refers to char.o(.ARM.extab) for .extab._ZNSs7replaceEjjPKcjjj
    char.o(t._ZNSs5beginEv) refers to char.o(t._ZNSs9_C_getRepEjj) for std::basic_string<char, std::char_traits<char>, std::allocator<char>>::_C_getRep(unsigned, unsigned)
    char.o(t._ZNSs5beginEv) refers to char.o(i._ZNSt11char_traitsIcE4copyEPcPKcj) for std::char_traits<char>::copy(char*, const char*, unsigned)
    char.o(t._ZNSs5beginEv) refers to char.o(t._ZNSs9_C_unlinkEv) for std::basic_string<char, std::char_traits<char>, std::allocator<char>>::_C_unlink()
    char.o(t._ZNSs5beginEv) refers to messages.o(.bss__ZNSs9__nullrefE) for std::basic_string<char, std::char_traits<char>, std::allocator<char>>::__nullref
    char.o(.ARM.exidx) refers to char.o(t._ZNSs5beginEv) for t._ZNSs5beginEv
    char.o(.ARM.exidx) refers to unwind_pr0.o(.text) for __aeabi_unwind_cpp_pr0
    char.o(i._ZNSt5ctypeIcED1Ev) refers to array_del.o(i._ZdaPv) for operator delete[] (void*)
    char.o(i._ZNSt5ctypeIcED1Ev) refers to char.o(.constdata__ZTVSt5ctypeIcE) for vtable for std::ctype<char>
    char.o(.ARM.exidx) refers to char.o(i._ZNSt5ctypeIcED1Ev) for i._ZNSt5ctypeIcED1Ev
    char.o(.ARM.exidx) refers to char.o(t._ZNK4__rw17__rw_collate_dataIcE13_C_coll_orderEc) for t._ZNK4__rw17__rw_collate_dataIcE13_C_coll_orderEc
    char.o(t._ZNKSt7collateIcE10do_compareEPKcS2_S2_S2_) refers to char.o(t._ZNK4__rw17__rw_collate_dataIcE13_C_coll_orderEc) for __rw::__rw_collate_data<char>::_C_coll_order(char) const
    char.o(.ARM.exidx) refers to char.o(t._ZNKSt7collateIcE10do_compareEPKcS2_S2_S2_) for t._ZNKSt7collateIcE10do_compareEPKcS2_S2_S2_
    char.o(.ARM.exidx) refers to unwind_pr1.o(.text) for __aeabi_unwind_cpp_pr1
    char.o(.ARM.exidx) refers to char.o(.ARM.extab) for .extab._ZNKSt7collateIcE10do_compareEPKcS2_S2_S2_
    char.o(t._ZNKSt7collateIcE12do_transformEPKcS2_) refers to char.o(t._ZNSsC1EPKcjRKSaIcE) for std::basic_string<char, std::char_traits<char>, std::allocator<char>>::basic_string(const char*, unsigned, const std::allocator<char>&)
    char.o(t._ZNKSt7collateIcE12do_transformEPKcS2_) refers to char.o(t._ZNSs5beginEv) for std::basic_string<char, std::char_traits<char>, std::allocator<char>>::begin()
    char.o(t._ZNKSt7collateIcE12do_transformEPKcS2_) refers to char.o(t._ZNK4__rw17__rw_collate_dataIcE13_C_coll_orderEc) for __rw::__rw_collate_data<char>::_C_coll_order(char) const
    char.o(t._ZNKSt7collateIcE12do_transformEPKcS2_.clean) refers to char.o(t._ZNSsD1Ev) for std::basic_string<char, std::char_traits<char>, std::allocator<char>>::~basic_string()
    char.o(t._ZNKSt7collateIcE12do_transformEPKcS2_.clean) refers to arm_exceptions_cleanup.o(.emb_text) for __cxa_end_cleanup
    char.o(.ARM.extab) refers to char.o(t._ZNKSt7collateIcE12do_transformEPKcS2_.clean) for t._ZNKSt7collateIcE12do_transformEPKcS2_.clean
    char.o(.ARM.exidx) refers to char.o(t._ZNKSt7collateIcE12do_transformEPKcS2_) for t._ZNKSt7collateIcE12do_transformEPKcS2_
    char.o(.ARM.exidx) refers to unwind_pr0.o(.text) for __aeabi_unwind_cpp_pr0
    char.o(.ARM.exidx) refers to char.o(.ARM.extab) for .extab._ZNKSt7collateIcE12do_transformEPKcS2_
    char.o(.ARM.exidx) refers to char.o(t._ZNKSt7collateIcE12do_transformEPKcS2_.clean) for t._ZNKSt7collateIcE12do_transformEPKcS2_.clean
    char.o(t._ZNKSt7collateIcE7do_hashEPKcS2_) refers to char.o(t._ZNSsD1Ev) for std::basic_string<char, std::char_traits<char>, std::allocator<char>>::~basic_string()
    char.o(t._ZNKSt7collateIcE7do_hashEPKcS2_.clean) refers to arm_exceptions_cleanup.o(.emb_text) for __cxa_end_cleanup
    char.o(.ARM.exidx) refers to char.o(t._ZNKSt7collateIcE7do_hashEPKcS2_) for t._ZNKSt7collateIcE7do_hashEPKcS2_
    char.o(.ARM.exidx) refers to unwind_pr0.o(.text) for __aeabi_unwind_cpp_pr0
    char.o(.ARM.exidx) refers to char.o(t._ZNKSt7collateIcE7do_hashEPKcS2_.clean) for t._ZNKSt7collateIcE7do_hashEPKcS2_.clean
    char.o(.ARM.exidx) refers to char.o(i._ZNSt7collateIcED1Ev) for i._ZNSt7collateIcED1Ev
    char.o(i._ZNSt14collate_bynameIcED1Ev) refers to char.o(t._ZNSsD1Ev) for std::basic_string<char, std::char_traits<char>, std::allocator<char>>::~basic_string()
    char.o(i._ZNSt14collate_bynameIcED1Ev) refers to char.o(i._ZNSt7collateIcED1Ev) for std::collate<char>::~collate()
    char.o(i._ZNSt14collate_bynameIcED1Ev) refers to char.o(.constdata__ZTVSt14collate_bynameIcE) for vtable for std::collate_byname<char>
    char.o(.ARM.exidx) refers to char.o(i._ZNSt14collate_bynameIcED1Ev) for i._ZNSt14collate_bynameIcED1Ev
    char.o(t._ZNSt8numpunctIcE12_C_initfacetERKSt6locale) refers to locale.o(t._ZNSsaSERKSs) for std::basic_string<char, std::char_traits<char>, std::allocator<char>>::operator =(const std::basic_string<char, std::char_traits<char>, std::allocator<char>>&)
    char.o(t._ZNSt8numpunctIcE12_C_initfacetERKSt6locale) refers to char.o(t._ZNSsD1Ev) for std::basic_string<char, std::char_traits<char>, std::allocator<char>>::~basic_string()
    char.o(t._ZNSt8numpunctIcE12_C_initfacetERKSt6locale.clean) refers to char.o(t._ZNSsD1Ev) for std::basic_string<char, std::char_traits<char>, std::allocator<char>>::~basic_string()
    char.o(t._ZNSt8numpunctIcE12_C_initfacetERKSt6locale.clean) refers to arm_exceptions_cleanup.o(.emb_text) for __cxa_end_cleanup
    char.o(.ARM.extab) refers to char.o(t._ZNSt8numpunctIcE12_C_initfacetERKSt6locale.clean) for t._ZNSt8numpunctIcE12_C_initfacetERKSt6locale.clean
    char.o(.ARM.exidx) refers to char.o(t._ZNSt8numpunctIcE12_C_initfacetERKSt6locale) for t._ZNSt8numpunctIcE12_C_initfacetERKSt6locale
    char.o(.ARM.exidx) refers to unwind_pr0.o(.text) for __aeabi_unwind_cpp_pr0
    char.o(.ARM.exidx) refers to char.o(.ARM.extab) for .extab._ZNSt8numpunctIcE12_C_initfacetERKSt6locale
    char.o(.ARM.exidx) refers to char.o(t._ZNSt8numpunctIcE12_C_initfacetERKSt6locale.clean) for t._ZNSt8numpunctIcE12_C_initfacetERKSt6locale.clean
    char.o(i._ZNSt8numpunctIcED1Ev) refers to char.o(i._ZN4__rw18__rw_numpunct_implIcED1Ev) for __rw::__rw_numpunct_impl<char>::~__rw_numpunct_impl()
    char.o(.ARM.exidx) refers to char.o(i._ZNSt8numpunctIcED1Ev) for i._ZNSt8numpunctIcED1Ev
    char.o(.ARM.exidx) refers to char.o(i._ZnwjPv) for i._ZnwjPv
    char.o(i._ZNSt11char_traitsIcE4copyEPcPKcj) refers to rt_memcpy_v6.o(.text) for __aeabi_memcpy
    char.o(.ARM.exidx) refers to char.o(i._ZNSt11char_traitsIcE4copyEPcPKcj) for i._ZNSt11char_traitsIcE4copyEPcPKcj
    char.o(.ARM.exidx) refers to char.o(t._ZNSaIcEC1Ev) for t._ZNSaIcEC1Ev
    char.o(.ARM.exidx) refers to char.o(t._ZNSaIcEC1ERKS_) for t._ZNSaIcEC1ERKS_
    char.o(.ARM.exidx) refers to char.o(t._ZSt3maxIjERKT_S2_S2_) for t._ZSt3maxIjERKT_S2_S2_
    char.o(.ARM.exidx) refers to char.o(t._ZNSaIN4__rw12__string_refIcSt11char_traitsIcESaIcEEEEC1IcEERKSaIT_E) for t._ZNSaIN4__rw12__string_refIcSt11char_traitsIcESaIcEEEEC1IcEERKSaIT_E
    char.o(t._ZNSsD1Ev) refers to char.o(t._ZNSs9_C_unlinkEv) for std::basic_string<char, std::char_traits<char>, std::allocator<char>>::_C_unlink()
    char.o(.ARM.extab) refers to arm_callunex_noexceptions.o(.text) for __cxa_call_unexpected
    char.o(.ARM.exidx) refers to char.o(t._ZNSsD1Ev) for t._ZNSsD1Ev
    char.o(.ARM.exidx) refers to unwind_pr0.o(.text) for __aeabi_unwind_cpp_pr0
    char.o(.ARM.exidx) refers to char.o(.ARM.extab) for .extab._ZNSsD1Ev
    char.o(.ARM.exidx) refers to char.o(i._ZNSt6locale5facetD1Ev) for i._ZNSt6locale5facetD1Ev
    char.o(.ARM.exidx) refers to char.o(i._ZNKSt5ctypeIcE2isENSt10ctype_base4maskEc) for i._ZNKSt5ctypeIcE2isENSt10ctype_base4maskEc
    char.o(i._ZNSt5ctypeIcED0Ev) refers to char.o(i._ZNSt5ctypeIcED1Ev) for std::ctype<char>::~ctype()
    char.o(i._ZNSt5ctypeIcED0Ev) refers to delete.o(i._ZdlPv) for operator delete (void*)
    char.o(.ARM.exidx) refers to char.o(i._ZNSt5ctypeIcED0Ev) for i._ZNSt5ctypeIcED0Ev
    char.o(i._ZNKSt5ctypeIcE10do_toupperEPcPKc) refers to char.o(i._ZNKSt5ctypeIcE2isENSt10ctype_base4maskEc) for std::ctype<char>::is(std::ctype_base::mask, char) const
    char.o(.ARM.exidx) refers to char.o(i._ZNKSt5ctypeIcE10do_toupperEPcPKc) for i._ZNKSt5ctypeIcE10do_toupperEPcPKc
    char.o(.ARM.exidx) refers to unwind_pr0.o(.text) for __aeabi_unwind_cpp_pr0
    char.o(i._ZNKSt5ctypeIcE10do_tolowerEPcPKc) refers to char.o(i._ZNKSt5ctypeIcE2isENSt10ctype_base4maskEc) for std::ctype<char>::is(std::ctype_base::mask, char) const
    char.o(.ARM.exidx) refers to char.o(i._ZNKSt5ctypeIcE10do_tolowerEPcPKc) for i._ZNKSt5ctypeIcE10do_tolowerEPcPKc
    char.o(.ARM.exidx) refers to unwind_pr0.o(.text) for __aeabi_unwind_cpp_pr0
    char.o(i._ZNKSt5ctypeIcE10do_toupperEc) refers to char.o(i._ZNKSt5ctypeIcE2isENSt10ctype_base4maskEc) for std::ctype<char>::is(std::ctype_base::mask, char) const
    char.o(.ARM.exidx) refers to char.o(i._ZNKSt5ctypeIcE10do_toupperEc) for i._ZNKSt5ctypeIcE10do_toupperEc
    char.o(.ARM.exidx) refers to unwind_pr0.o(.text) for __aeabi_unwind_cpp_pr0
    char.o(i._ZNKSt5ctypeIcE10do_tolowerEc) refers to char.o(i._ZNKSt5ctypeIcE2isENSt10ctype_base4maskEc) for std::ctype<char>::is(std::ctype_base::mask, char) const
    char.o(.ARM.exidx) refers to char.o(i._ZNKSt5ctypeIcE10do_tolowerEc) for i._ZNKSt5ctypeIcE10do_tolowerEc
    char.o(.ARM.exidx) refers to unwind_pr0.o(.text) for __aeabi_unwind_cpp_pr0
    char.o(.ARM.exidx) refers to char.o(i._ZNKSt5ctypeIcE8do_widenEc) for i._ZNKSt5ctypeIcE8do_widenEc
    char.o(i._ZNKSt5ctypeIcE8do_widenEPKcS2_Pc) refers to rt_memcpy_v6.o(.text) for __aeabi_memcpy
    char.o(.ARM.exidx) refers to char.o(i._ZNKSt5ctypeIcE8do_widenEPKcS2_Pc) for i._ZNKSt5ctypeIcE8do_widenEPKcS2_Pc
    char.o(.ARM.exidx) refers to char.o(i._ZNKSt5ctypeIcE9do_narrowEcc) for i._ZNKSt5ctypeIcE9do_narrowEcc
    char.o(i._ZNKSt5ctypeIcE9do_narrowEPKcS2_cPc) refers to rt_memcpy_v6.o(.text) for __aeabi_memcpy
    char.o(.ARM.exidx) refers to char.o(i._ZNKSt5ctypeIcE9do_narrowEPKcS2_cPc) for i._ZNKSt5ctypeIcE9do_narrowEPKcS2_cPc
    char.o(i._ZN4__rw21__rw_use_c_lib_localeD1Ev) refers to locale.o(.text) for setlocale
    char.o(i._ZN4__rw21__rw_use_c_lib_localeD1Ev) refers to array_del.o(i._ZdaPv) for operator delete[] (void*)
    char.o(.ARM.exidx) refers to char.o(i._ZN4__rw21__rw_use_c_lib_localeD1Ev) for i._ZN4__rw21__rw_use_c_lib_localeD1Ev
    char.o(i._ZNSt7collateIcED0Ev) refers to char.o(i._ZNSt7collateIcED1Ev) for std::collate<char>::~collate()
    char.o(i._ZNSt7collateIcED0Ev) refers to delete.o(i._ZdlPv) for operator delete (void*)
    char.o(.ARM.exidx) refers to char.o(i._ZNSt7collateIcED0Ev) for i._ZNSt7collateIcED0Ev
    char.o(i._ZNSt14collate_bynameIcED0Ev) refers to char.o(i._ZNSt14collate_bynameIcED1Ev) for std::collate_byname<char>::~collate_byname()
    char.o(i._ZNSt14collate_bynameIcED0Ev) refers to delete.o(i._ZdlPv) for operator delete (void*)
    char.o(.ARM.exidx) refers to char.o(i._ZNSt14collate_bynameIcED0Ev) for i._ZNSt14collate_bynameIcED0Ev
    char.o(.ARM.exidx) refers to char.o(t._ZNKSt8numpunctIcE16do_decimal_pointEv) for t._ZNKSt8numpunctIcE16do_decimal_pointEv
    char.o(.ARM.exidx) refers to char.o(t._ZNKSt8numpunctIcE16do_thousands_sepEv) for t._ZNKSt8numpunctIcE16do_thousands_sepEv
    char.o(t._ZNKSt8numpunctIcE11do_groupingEv) refers to char.o(t._ZNSsC1ERKSs) for std::basic_string<char, std::char_traits<char>, std::allocator<char>>::basic_string(const std::basic_string<char, std::char_traits<char>, std::allocator<char>>&)
    char.o(.ARM.exidx) refers to char.o(t._ZNKSt8numpunctIcE11do_groupingEv) for t._ZNKSt8numpunctIcE11do_groupingEv
    char.o(t._ZNKSt8numpunctIcE11do_truenameEv) refers to char.o(t._ZNSsC1ERKSs) for std::basic_string<char, std::char_traits<char>, std::allocator<char>>::basic_string(const std::basic_string<char, std::char_traits<char>, std::allocator<char>>&)
    char.o(.ARM.exidx) refers to char.o(t._ZNKSt8numpunctIcE11do_truenameEv) for t._ZNKSt8numpunctIcE11do_truenameEv
    char.o(t._ZNKSt8numpunctIcE12do_falsenameEv) refers to char.o(t._ZNSsC1ERKSs) for std::basic_string<char, std::char_traits<char>, std::allocator<char>>::basic_string(const std::basic_string<char, std::char_traits<char>, std::allocator<char>>&)
    char.o(.ARM.exidx) refers to char.o(t._ZNKSt8numpunctIcE12do_falsenameEv) for t._ZNKSt8numpunctIcE12do_falsenameEv
    char.o(i._ZN4__rw18__rw_numpunct_implIcED1Ev) refers to char.o(i._ZN4__rw23__rw_numpunct_impl_dataIcED1Ev) for __rw::__rw_numpunct_impl_data<char>::~__rw_numpunct_impl_data()
    char.o(.ARM.exidx) refers to char.o(i._ZN4__rw18__rw_numpunct_implIcED1Ev) for i._ZN4__rw18__rw_numpunct_implIcED1Ev
    char.o(i._ZNSt8numpunctIcED0Ev) refers to char.o(i._ZNSt8numpunctIcED1Ev) for std::numpunct<char>::~numpunct()
    char.o(i._ZNSt8numpunctIcED0Ev) refers to delete.o(i._ZdlPv) for operator delete (void*)
    char.o(.ARM.exidx) refers to char.o(i._ZNSt8numpunctIcED0Ev) for i._ZNSt8numpunctIcED0Ev
    char.o(i._ZN4__rw23__rw_numpunct_impl_dataIcED1Ev) refers to char.o(t._ZNSsD1Ev) for std::basic_string<char, std::char_traits<char>, std::allocator<char>>::~basic_string()
    char.o(i._ZN4__rw23__rw_numpunct_impl_dataIcED1Ev) refers to char.o(i._ZN4__rw15__rw_punct_dataIcED1Ev) for __rw::__rw_punct_data<char>::~__rw_punct_data()
    char.o(.ARM.exidx) refers to char.o(i._ZN4__rw23__rw_numpunct_impl_dataIcED1Ev) for i._ZN4__rw23__rw_numpunct_impl_dataIcED1Ev
    char.o(i._ZN4__rw15__rw_punct_dataIcED1Ev) refers to char.o(t._ZNSsD1Ev) for std::basic_string<char, std::char_traits<char>, std::allocator<char>>::~basic_string()
    char.o(.ARM.exidx) refers to char.o(i._ZN4__rw15__rw_punct_dataIcED1Ev) for i._ZN4__rw15__rw_punct_dataIcED1Ev
    char.o(.constdata__ZTISt5ctypeIcE) refers to lib_rtti_impl.o(.constdata__ZTVN10__cxxabiv121__vmi_class_type_infoE) for vtable for __cxxabiv1::__vmi_class_type_info
    char.o(.constdata__ZTISt5ctypeIcE) refers to char.o(.constdata__ZTSSt5ctypeIcE) for typeinfo name for std::ctype<char>
    char.o(.constdata__ZTISt5ctypeIcE) refers to main.o(.constdata__ZTINSt6locale5facetE) for typeinfo for std::locale::facet
    char.o(.constdata__ZTISt5ctypeIcE) refers to char.o(.constdata__ZTISt10ctype_base) for typeinfo for std::ctype_base
    char.o(.constdata__ZTISt5ctypeIcE) refers to char.o(.constdata__ZTIN4__rw17__rw_ctype_helperIcEE) for typeinfo for __rw::__rw_ctype_helper<char>
    char.o(.constdata__ZTVSt12ctype_bynameIcE) refers to char.o(.constdata__ZTISt12ctype_bynameIcE) for typeinfo for std::ctype_byname<char>
    char.o(.constdata__ZTVSt12ctype_bynameIcE) refers to char.o(i._ZNSt12ctype_bynameIcED1Ev) for std::ctype_byname<char>::~ctype_byname()
    char.o(.constdata__ZTVSt12ctype_bynameIcE) refers to char.o(i._ZNSt12ctype_bynameIcED0Ev) for std::ctype_byname<char>::~ctype_byname__deallocating()
    char.o(.constdata__ZTVSt12ctype_bynameIcE) refers to char.o(i._ZNSt5ctypeIcE12_C_initfacetERKSt6locale) for std::ctype<char>::_C_initfacet(const std::locale&)
    char.o(.constdata__ZTVSt12ctype_bynameIcE) refers to char.o(i._ZNKSt5ctypeIcE10do_toupperEPcPKc) for std::ctype<char>::do_toupper(char*, const char*) const
    char.o(.constdata__ZTVSt12ctype_bynameIcE) refers to char.o(i._ZNKSt5ctypeIcE10do_tolowerEPcPKc) for std::ctype<char>::do_tolower(char*, const char*) const
    char.o(.constdata__ZTVSt12ctype_bynameIcE) refers to char.o(i._ZNKSt5ctypeIcE10do_toupperEc) for std::ctype<char>::do_toupper(char) const
    char.o(.constdata__ZTVSt12ctype_bynameIcE) refers to char.o(i._ZNKSt5ctypeIcE10do_tolowerEc) for std::ctype<char>::do_tolower(char) const
    char.o(.constdata__ZTVSt12ctype_bynameIcE) refers to char.o(i._ZNKSt5ctypeIcE8do_widenEc) for std::ctype<char>::do_widen(char) const
    char.o(.constdata__ZTVSt12ctype_bynameIcE) refers to char.o(i._ZNKSt5ctypeIcE8do_widenEPKcS2_Pc) for std::ctype<char>::do_widen(const char*, const char*, char*) const
    char.o(.constdata__ZTVSt12ctype_bynameIcE) refers to char.o(i._ZNKSt5ctypeIcE9do_narrowEcc) for std::ctype<char>::do_narrow(char, char) const
    char.o(.constdata__ZTVSt12ctype_bynameIcE) refers to char.o(i._ZNKSt5ctypeIcE9do_narrowEPKcS2_cPc) for std::ctype<char>::do_narrow(const char*, const char*, char, char*) const
    char.o(.constdata__ZTISt7collateIcE) refers to lib_rtti_impl.o(.constdata__ZTVN10__cxxabiv121__vmi_class_type_infoE) for vtable for __cxxabiv1::__vmi_class_type_info
    char.o(.constdata__ZTISt7collateIcE) refers to char.o(.constdata__ZTSSt7collateIcE) for typeinfo name for std::collate<char>
    char.o(.constdata__ZTISt7collateIcE) refers to main.o(.constdata__ZTINSt6locale5facetE) for typeinfo for std::locale::facet
    char.o(.constdata__ZTISt7collateIcE) refers to char.o(.constdata__ZTIN4__rw17__rw_collate_implIcEE) for typeinfo for __rw::__rw_collate_impl<char>
    char.o(.constdata__ZTISt14collate_bynameIcE) refers to lib_rtti_impl.o(.constdata__ZTVN10__cxxabiv120__si_class_type_infoE) for vtable for __cxxabiv1::__si_class_type_info
    char.o(.constdata__ZTISt14collate_bynameIcE) refers to char.o(.constdata__ZTSSt14collate_bynameIcE) for typeinfo name for std::collate_byname<char>
    char.o(.constdata__ZTISt14collate_bynameIcE) refers to char.o(.constdata__ZTISt7collateIcE) for typeinfo for std::collate<char>
    char.o(.constdata__ZTISt12ctype_bynameIcE) refers to lib_rtti_impl.o(.constdata__ZTVN10__cxxabiv120__si_class_type_infoE) for vtable for __cxxabiv1::__si_class_type_info
    char.o(.constdata__ZTISt12ctype_bynameIcE) refers to char.o(.constdata__ZTSSt12ctype_bynameIcE) for typeinfo name for std::ctype_byname<char>
    char.o(.constdata__ZTISt12ctype_bynameIcE) refers to char.o(.constdata__ZTISt5ctypeIcE) for typeinfo for std::ctype<char>
    char.o(.constdata__ZTISt10ctype_base) refers to lib_rtti_impl.o(.constdata__ZTVN10__cxxabiv117__class_type_infoE) for vtable for __cxxabiv1::__class_type_info
    char.o(.constdata__ZTISt10ctype_base) refers to char.o(.constdata__ZTSSt10ctype_base) for typeinfo name for std::ctype_base
    char.o(.constdata__ZTIN4__rw17__rw_ctype_helperIcEE) refers to lib_rtti_impl.o(.constdata__ZTVN10__cxxabiv117__class_type_infoE) for vtable for __cxxabiv1::__class_type_info
    char.o(.constdata__ZTIN4__rw17__rw_ctype_helperIcEE) refers to char.o(.constdata__ZTSN4__rw17__rw_ctype_helperIcEE) for typeinfo name for __rw::__rw_ctype_helper<char>
    char.o(.constdata__ZTIN4__rw17__rw_collate_implIcEE) refers to lib_rtti_impl.o(.constdata__ZTVN10__cxxabiv120__si_class_type_infoE) for vtable for __cxxabiv1::__si_class_type_info
    char.o(.constdata__ZTIN4__rw17__rw_collate_implIcEE) refers to char.o(.constdata__ZTSN4__rw17__rw_collate_implIcEE) for typeinfo name for __rw::__rw_collate_impl<char>
    char.o(.constdata__ZTIN4__rw17__rw_collate_implIcEE) refers to char.o(.constdata__ZTIN4__rw17__rw_collate_dataIcEE) for typeinfo for __rw::__rw_collate_data<char>
    char.o(.constdata__ZTIN4__rw17__rw_collate_dataIcEE) refers to lib_rtti_impl.o(.constdata__ZTVN10__cxxabiv117__class_type_infoE) for vtable for __cxxabiv1::__class_type_info
    char.o(.constdata__ZTIN4__rw17__rw_collate_dataIcEE) refers to char.o(.constdata__ZTSN4__rw17__rw_collate_dataIcEE) for typeinfo name for __rw::__rw_collate_data<char>
    char.o(i._ZNSt12ctype_bynameIcED1Ev) refers to char.o(i._ZNSt5ctypeIcED1Ev) for std::ctype<char>::~ctype()
    char.o(.ARM.exidx) refers to char.o(i._ZNSt12ctype_bynameIcED1Ev) for i._ZNSt12ctype_bynameIcED1Ev
    char.o(i._ZNSt12ctype_bynameIcED0Ev) refers to char.o(i._ZNSt12ctype_bynameIcED1Ev) for std::ctype_byname<char>::~ctype_byname()
    char.o(i._ZNSt12ctype_bynameIcED0Ev) refers to delete.o(i._ZdlPv) for operator delete (void*)
    char.o(.ARM.exidx) refers to char.o(i._ZNSt12ctype_bynameIcED0Ev) for i._ZNSt12ctype_bynameIcED0Ev
    char.o(i.__ARM_common_noexcept_landing) refers to arm_exceptions_callterm.o(.text) for __cxa_call_terminate
    char.o(.ARM.exidx) refers to char.o(i.__ARM_common_noexcept_landing) for i.__ARM_common_noexcept_landing
    ios.o(.constdata__ZTVSt13basic_filebufIcSt11char_traitsIcEE) refers to ios.o(.constdata__ZTISt13basic_filebufIcSt11char_traitsIcEE) for typeinfo for std::basic_filebuf<char, std::char_traits<char>>
    ios.o(.constdata__ZTVSt13basic_filebufIcSt11char_traitsIcEE) refers to ios.o(t._ZNSt13basic_filebufIcSt11char_traitsIcEED1Ev) for std::basic_filebuf<char, std::char_traits<char>>::~basic_filebuf()
    ios.o(.constdata__ZTVSt13basic_filebufIcSt11char_traitsIcEE) refers to ios.o(t._ZNSt13basic_filebufIcSt11char_traitsIcEED0Ev) for std::basic_filebuf<char, std::char_traits<char>>::~basic_filebuf__deallocating()
    ios.o(.constdata__ZTVSt13basic_filebufIcSt11char_traitsIcEE) refers to ios.o(t._ZNSt15basic_streambufIcSt11char_traitsIcEE5imbueERKSt6locale) for std::basic_streambuf<char, std::char_traits<char>>::imbue(const std::locale&)
    ios.o(.constdata__ZTVSt13basic_filebufIcSt11char_traitsIcEE) refers to ios.o(t._ZNSt13basic_filebufIcSt11char_traitsIcEE6setbufEPcl) for std::basic_filebuf<char, std::char_traits<char>>::setbuf(char*, long)
    ios.o(.constdata__ZTVSt13basic_filebufIcSt11char_traitsIcEE) refers to ios.o(t._ZNSt13basic_filebufIcSt11char_traitsIcEE7seekoffElNSt8ios_base10_C_seekdirEi) for std::basic_filebuf<char, std::char_traits<char>>::seekoff(long, std::ios_base::_C_seekdir, int)
    ios.o(.constdata__ZTVSt13basic_filebufIcSt11char_traitsIcEE) refers to ios.o(t._ZNSt13basic_filebufIcSt11char_traitsIcEE7seekposESt4fposISt11__mbstate_tEi) for std::basic_filebuf<char, std::char_traits<char>>::seekpos(std::fpos<std::__mbstate_t>, int)
    ios.o(.constdata__ZTVSt13basic_filebufIcSt11char_traitsIcEE) refers to ios.o(t._ZNSt13basic_filebufIcSt11char_traitsIcEE9showmanycEv) for std::basic_filebuf<char, std::char_traits<char>>::showmanyc()
    ios.o(.constdata__ZTVSt13basic_filebufIcSt11char_traitsIcEE) refers to ios.o(t._ZNSt15basic_streambufIcSt11char_traitsIcEE6xsgetnEPcl) for std::basic_streambuf<char, std::char_traits<char>>::xsgetn(char*, long)
    ios.o(.constdata__ZTVSt13basic_filebufIcSt11char_traitsIcEE) refers to ios.o(t._ZNSt13basic_filebufIcSt11char_traitsIcEE9underflowEv) for std::basic_filebuf<char, std::char_traits<char>>::underflow()
    ios.o(.constdata__ZTVSt13basic_filebufIcSt11char_traitsIcEE) refers to ios.o(t._ZNSt13basic_filebufIcSt11char_traitsIcEE5uflowEv) for std::basic_filebuf<char, std::char_traits<char>>::uflow()
    ios.o(.constdata__ZTVSt13basic_filebufIcSt11char_traitsIcEE) refers to ios.o(t._ZNSt13basic_filebufIcSt11char_traitsIcEE8overflowEi) for std::basic_filebuf<char, std::char_traits<char>>::overflow(int)
    ios.o(.constdata__ZTVSt13basic_filebufIcSt11char_traitsIcEE) refers to ios.o(t._ZNSt13basic_filebufIcSt11char_traitsIcEE9pbackfailEi) for std::basic_filebuf<char, std::char_traits<char>>::pbackfail(int)
    ios.o(.constdata__ZTVSt13basic_filebufIcSt11char_traitsIcEE) refers to ios.o(t._ZNSt13basic_filebufIcSt11char_traitsIcEE6xsputnEPKcl) for std::basic_filebuf<char, std::char_traits<char>>::xsputn(const char*, long)
    ios.o(.constdata__ZTVSt13basic_filebufIcSt11char_traitsIcEE) refers to ios.o(t._ZNSt13basic_filebufIcSt11char_traitsIcEE4syncEv) for std::basic_filebuf<char, std::char_traits<char>>::sync()
    ios.o(.constdata__ZTVSt13basic_filebufIwSt11char_traitsIwEE) refers to ios.o(.constdata__ZTISt13basic_filebufIwSt11char_traitsIwEE) for typeinfo for std::basic_filebuf<wchar_t, std::char_traits<wchar_t>>
    ios.o(.constdata__ZTVSt13basic_filebufIwSt11char_traitsIwEE) refers to ios.o(t._ZNSt13basic_filebufIwSt11char_traitsIwEED1Ev) for std::basic_filebuf<wchar_t, std::char_traits<wchar_t>>::~basic_filebuf()
    ios.o(.constdata__ZTVSt13basic_filebufIwSt11char_traitsIwEE) refers to ios.o(t._ZNSt13basic_filebufIwSt11char_traitsIwEED0Ev) for std::basic_filebuf<wchar_t, std::char_traits<wchar_t>>::~basic_filebuf__deallocating()
    ios.o(.constdata__ZTVSt13basic_filebufIwSt11char_traitsIwEE) refers to ios.o(t._ZNSt15basic_streambufIwSt11char_traitsIwEE5imbueERKSt6locale) for std::basic_streambuf<wchar_t, std::char_traits<wchar_t>>::imbue(const std::locale&)
    ios.o(.constdata__ZTVSt13basic_filebufIwSt11char_traitsIwEE) refers to ios.o(t._ZNSt13basic_filebufIwSt11char_traitsIwEE6setbufEPwl) for std::basic_filebuf<wchar_t, std::char_traits<wchar_t>>::setbuf(wchar_t*, long)
    ios.o(.constdata__ZTVSt13basic_filebufIwSt11char_traitsIwEE) refers to ios.o(t._ZNSt13basic_filebufIwSt11char_traitsIwEE7seekoffElNSt8ios_base10_C_seekdirEi) for std::basic_filebuf<wchar_t, std::char_traits<wchar_t>>::seekoff(long, std::ios_base::_C_seekdir, int)
    ios.o(.constdata__ZTVSt13basic_filebufIwSt11char_traitsIwEE) refers to ios.o(t._ZNSt13basic_filebufIwSt11char_traitsIwEE7seekposESt4fposISt11__mbstate_tEi) for std::basic_filebuf<wchar_t, std::char_traits<wchar_t>>::seekpos(std::fpos<std::__mbstate_t>, int)
    ios.o(.constdata__ZTVSt13basic_filebufIwSt11char_traitsIwEE) refers to ios.o(t._ZNSt13basic_filebufIwSt11char_traitsIwEE9showmanycEv) for std::basic_filebuf<wchar_t, std::char_traits<wchar_t>>::showmanyc()
    ios.o(.constdata__ZTVSt13basic_filebufIwSt11char_traitsIwEE) refers to ios.o(t._ZNSt15basic_streambufIwSt11char_traitsIwEE6xsgetnEPwl) for std::basic_streambuf<wchar_t, std::char_traits<wchar_t>>::xsgetn(wchar_t*, long)
    ios.o(.constdata__ZTVSt13basic_filebufIwSt11char_traitsIwEE) refers to ios.o(t._ZNSt13basic_filebufIwSt11char_traitsIwEE9underflowEv) for std::basic_filebuf<wchar_t, std::char_traits<wchar_t>>::underflow()
    ios.o(.constdata__ZTVSt13basic_filebufIwSt11char_traitsIwEE) refers to ios.o(t._ZNSt13basic_filebufIwSt11char_traitsIwEE5uflowEv) for std::basic_filebuf<wchar_t, std::char_traits<wchar_t>>::uflow()
    ios.o(.constdata__ZTVSt13basic_filebufIwSt11char_traitsIwEE) refers to ios.o(t._ZNSt13basic_filebufIwSt11char_traitsIwEE8overflowEi) for std::basic_filebuf<wchar_t, std::char_traits<wchar_t>>::overflow(int)
    ios.o(.constdata__ZTVSt13basic_filebufIwSt11char_traitsIwEE) refers to ios.o(t._ZNSt13basic_filebufIwSt11char_traitsIwEE9pbackfailEi) for std::basic_filebuf<wchar_t, std::char_traits<wchar_t>>::pbackfail(int)
    ios.o(.constdata__ZTVSt13basic_filebufIwSt11char_traitsIwEE) refers to ios.o(t._ZNSt13basic_filebufIwSt11char_traitsIwEE6xsputnEPKwl) for std::basic_filebuf<wchar_t, std::char_traits<wchar_t>>::xsputn(const wchar_t*, long)
    ios.o(.constdata__ZTVSt13basic_filebufIwSt11char_traitsIwEE) refers to ios.o(t._ZNSt13basic_filebufIwSt11char_traitsIwEE4syncEv) for std::basic_filebuf<wchar_t, std::char_traits<wchar_t>>::sync()
    ios.o(i._ZNSt6localeD1Ev) refers to ios.o(i._ZN4__rw15__rw_locale_impD1Ev) for __rw::__rw_locale_imp::~__rw_locale_imp()
    ios.o(i._ZNSt6localeD1Ev) refers to delete.o(i._ZdlPv) for operator delete (void*)
    ios.o(.ARM.exidx) refers to ios.o(i._ZNSt6localeD1Ev) for i._ZNSt6localeD1Ev
    ios.o(i._ZNKSt6locale12_C_use_facetERKNS_2idEbiPFPN4__rw15__rw_facet_baseEiPKcjE) refers to locale.o(i._ZNKSt6locale13_C_make_facetERKNS_2idEbiPFPN4__rw15__rw_facet_baseEiPKcjE) for std::locale::_C_make_facet(const std::locale::id&, bool, int, __rw::__rw_facet_base*(*)(int, const char*, unsigned)) const
    ios.o(.ARM.exidx) refers to ios.o(i._ZNKSt6locale12_C_use_facetERKNS_2idEbiPFPN4__rw15__rw_facet_baseEiPKcjE) for i._ZNKSt6locale12_C_use_facetERKNS_2idEbiPFPN4__rw15__rw_facet_baseEiPKcjE
    ios.o(.ARM.exidx) refers to unwind_pr0.o(.text) for __aeabi_unwind_cpp_pr0
    ios.o(i._ZN4__rw27__rw_reallocate_temp_bufferEPvj) refers to cxa_guard_acquire.o(i.__cxa_guard_acquire) for __cxa_guard_acquire
    ios.o(i._ZN4__rw27__rw_reallocate_temp_bufferEPvj) refers to delete.o(i._ZdlPv) for operator delete (void*)
    ios.o(i._ZN4__rw27__rw_reallocate_temp_bufferEPvj) refers to new.o(i._Znwj) for operator new(unsigned)
    ios.o(i._ZN4__rw27__rw_reallocate_temp_bufferEPvj) refers to ios.o(.data__ZZN4__rw27__rw_reallocate_temp_bufferEPvjE6__busy) for __rw::__rw_reallocate_temp_buffer(void*, unsigned)::__busy
    ios.o(i._ZN4__rw27__rw_reallocate_temp_bufferEPvj) refers to ios.o(.data__ZZN4__rw27__rw_reallocate_temp_bufferEPvjE8__buffer) for guard variable for __rw::__rw_reallocate_temp_buffer(void*, unsigned)::__buffer
    ios.o(i._ZN4__rw27__rw_reallocate_temp_bufferEPvj) refers to ios.o(.bss__ZZN4__rw19__rw_get_static_bufEvE8__buffer) for __rw::__rw_get_static_buf()::__buffer
    ios.o(i._ZN4__rw27__rw_reallocate_temp_bufferEPvj.clean) refers to arm_exceptions_cleanup.o(.emb_text) for __cxa_end_cleanup
    ios.o(.ARM.extab) refers to ios.o(i._ZN4__rw27__rw_reallocate_temp_bufferEPvj) for i._ZN4__rw27__rw_reallocate_temp_bufferEPvj
    ios.o(.ARM.exidx) refers to ios.o(i._ZN4__rw27__rw_reallocate_temp_bufferEPvj) for i._ZN4__rw27__rw_reallocate_temp_bufferEPvj
    ios.o(.ARM.exidx) refers to unwind_pr0.o(.text) for __aeabi_unwind_cpp_pr0
    ios.o(.ARM.exidx) refers to ios.o(.ARM.extab) for .extab._ZN4__rw27__rw_reallocate_temp_bufferEPvj
    ios.o(.ARM.exidx) refers to ios.o(i._ZN4__rw27__rw_reallocate_temp_bufferEPvj.clean) for i._ZN4__rw27__rw_reallocate_temp_bufferEPvj.clean
    ios.o(i._ZNSt8ios_baseD1Ev) refers to ios.o(i._ZNSt8ios_base13_C_fire_eventENS_5eventEb) for std::ios_base::_C_fire_event(std::ios_base::event, bool)
    ios.o(i._ZNSt8ios_baseD1Ev) refers to array_del.o(i._ZdaPv) for operator delete[] (void*)
    ios.o(i._ZNSt8ios_baseD1Ev) refers to ios.o(i._ZNSt6localeD1Ev) for std::locale::~locale()
    ios.o(i._ZNSt8ios_baseD1Ev) refers to ios.o(.constdata__ZTVSt8ios_base) for vtable for std::ios_base
    ios.o(i._ZNSt8ios_baseD1Ev.clean) refers to ios.o(i._ZNSt6localeD1Ev) for std::locale::~locale()
    ios.o(i._ZNSt8ios_baseD1Ev.clean) refers to arm_exceptions_cleanup.o(.emb_text) for __cxa_end_cleanup
    ios.o(.ARM.extab) refers to arm_callunex_noexceptions.o(.text) for __cxa_call_unexpected
    ios.o(.ARM.extab) refers to arm_exceptions_callterm.o(.text) for __cxa_call_terminate
    ios.o(.ARM.extab) refers to ios.o(i._ZNSt8ios_baseD1Ev.clean) for i._ZNSt8ios_baseD1Ev.clean
    ios.o(.ARM.extab) refers to char.o(i.__ARM_common_noexcept_landing) for __ARM_common_noexcept_landing
    ios.o(.ARM.exidx) refers to ios.o(i._ZNSt8ios_baseD1Ev) for i._ZNSt8ios_baseD1Ev
    ios.o(.ARM.exidx) refers to unwind_pr0.o(.text) for __aeabi_unwind_cpp_pr0
    ios.o(.ARM.exidx) refers to ios.o(.ARM.extab) for .extab._ZNSt8ios_baseD1Ev
    ios.o(.ARM.exidx) refers to ios.o(i._ZNSt8ios_baseD1Ev.clean) for i._ZNSt8ios_baseD1Ev.clean
    ios.o(i._ZNSt8ios_baseC1Ev) refers to ios.o(i._ZNSt6localeC1Ev) for std::locale::locale()
    ios.o(i._ZNSt8ios_baseC1Ev) refers to ios.o(.constdata__ZTVSt8ios_base) for vtable for std::ios_base
    ios.o(.ARM.exidx) refers to ios.o(i._ZNSt8ios_baseC1Ev) for i._ZNSt8ios_baseC1Ev
    ios.o(t._ZN4__rw23__rw_create_named_facetISt5ctypeIwEEEPT_S4_PKcj) refers to new.o(i._Znwj) for operator new(unsigned)
    ios.o(t._ZN4__rw23__rw_create_named_facetISt5ctypeIwEEEPT_S4_PKcj) refers to ios.o(i._ZNSt5ctypeIwEC1Ej) for std::ctype<wchar_t>::ctype(unsigned)
    ios.o(t._ZN4__rw23__rw_create_named_facetISt5ctypeIwEEEPT_S4_PKcj.clean) refers to delete.o(i._ZdlPv) for operator delete (void*)
    ios.o(t._ZN4__rw23__rw_create_named_facetISt5ctypeIwEEEPT_S4_PKcj.clean) refers to arm_exceptions_cleanup.o(.emb_text) for __cxa_end_cleanup
    ios.o(.ARM.extab) refers to ios.o(t._ZN4__rw23__rw_create_named_facetISt5ctypeIwEEEPT_S4_PKcj.clean) for t._ZN4__rw23__rw_create_named_facetISt5ctypeIwEEEPT_S4_PKcj.clean
    ios.o(.ARM.exidx) refers to ios.o(t._ZN4__rw23__rw_create_named_facetISt5ctypeIwEEEPT_S4_PKcj) for t._ZN4__rw23__rw_create_named_facetISt5ctypeIwEEEPT_S4_PKcj
    ios.o(.ARM.exidx) refers to unwind_pr0.o(.text) for __aeabi_unwind_cpp_pr0
    ios.o(.ARM.exidx) refers to ios.o(.ARM.extab) for .extab._ZN4__rw23__rw_create_named_facetISt5ctypeIwEEEPT_S4_PKcj
    ios.o(.ARM.exidx) refers to ios.o(t._ZN4__rw23__rw_create_named_facetISt5ctypeIwEEEPT_S4_PKcj.clean) for t._ZN4__rw23__rw_create_named_facetISt5ctypeIwEEEPT_S4_PKcj.clean
    ios.o(t._ZNSt9basic_iosIwSt11char_traitsIwEE4initEPSt15basic_streambufIwS1_E) refers to ios.o(i._ZNSt6localeC1ERKS_) for std::locale::locale(const std::locale&)
    ios.o(t._ZNSt9basic_iosIwSt11char_traitsIwEE4initEPSt15basic_streambufIwS1_E) refers to ios.o(i._ZNKSt6locale12_C_use_facetERKNS_2idEbiPFPN4__rw15__rw_facet_baseEiPKcjE) for std::locale::_C_use_facet(const std::locale::id&, bool, int, __rw::__rw_facet_base*(*)(int, const char*, unsigned)) const
    ios.o(t._ZNSt9basic_iosIwSt11char_traitsIwEE4initEPSt15basic_streambufIwS1_E) refers to ios.o(i._ZNSt6localeD1Ev) for std::locale::~locale()
    ios.o(t._ZNSt9basic_iosIwSt11char_traitsIwEE4initEPSt15basic_streambufIwS1_E) refers to ios.o(t._ZN4__rw16__rw_facet_makerISt5ctypeIwEE13_C_maker_funcEiPKcj) for __rw::__rw_facet_maker<std::ctype<wchar_t>>::_C_maker_func(int, const char*, unsigned)
    ios.o(t._ZNSt9basic_iosIwSt11char_traitsIwEE4initEPSt15basic_streambufIwS1_E) refers to char.o(.data) for std::ctype<wchar_t>::id
    ios.o(t._ZNSt9basic_iosIwSt11char_traitsIwEE4initEPSt15basic_streambufIwS1_E.clean) refers to ios.o(i._ZNSt6localeD1Ev) for std::locale::~locale()
    ios.o(t._ZNSt9basic_iosIwSt11char_traitsIwEE4initEPSt15basic_streambufIwS1_E.clean) refers to arm_exceptions_cleanup.o(.emb_text) for __cxa_end_cleanup
    ios.o(.ARM.extab) refers to ios.o(t._ZNSt9basic_iosIwSt11char_traitsIwEE4initEPSt15basic_streambufIwS1_E.clean) for t._ZNSt9basic_iosIwSt11char_traitsIwEE4initEPSt15basic_streambufIwS1_E.clean
    ios.o(.ARM.exidx) refers to ios.o(t._ZNSt9basic_iosIwSt11char_traitsIwEE4initEPSt15basic_streambufIwS1_E) for t._ZNSt9basic_iosIwSt11char_traitsIwEE4initEPSt15basic_streambufIwS1_E
    ios.o(.ARM.exidx) refers to unwind_pr0.o(.text) for __aeabi_unwind_cpp_pr0
    ios.o(.ARM.exidx) refers to ios.o(.ARM.extab) for .extab._ZNSt9basic_iosIwSt11char_traitsIwEE4initEPSt15basic_streambufIwS1_E
    ios.o(.ARM.exidx) refers to ios.o(t._ZNSt9basic_iosIwSt11char_traitsIwEE4initEPSt15basic_streambufIwS1_E.clean) for t._ZNSt9basic_iosIwSt11char_traitsIwEE4initEPSt15basic_streambufIwS1_E.clean
    ios.o(t._ZNSt13basic_ostreamIwSt11char_traitsIwEEC1EPSt15basic_streambufIwS1_E) refers to ios.o(t._ZNSt9basic_iosIwSt11char_traitsIwEEC1Ev) for std::basic_ios<wchar_t, std::char_traits<wchar_t>>::basic_ios()
    ios.o(t._ZNSt13basic_ostreamIwSt11char_traitsIwEEC1EPSt15basic_streambufIwS1_E) refers to ios.o(t._ZNSt9basic_iosIwSt11char_traitsIwEE4initEPSt15basic_streambufIwS1_E) for std::basic_ios<wchar_t, std::char_traits<wchar_t>>::init(std::basic_streambuf<wchar_t, std::char_traits<wchar_t>>*)
    ios.o(t._ZNSt13basic_ostreamIwSt11char_traitsIwEEC1EPSt15basic_streambufIwS1_E) refers to ios.o(.constdata__ZTVSt13basic_ostreamIwSt11char_traitsIwEE) for VTT for std::basic_ostream<wchar_t, std::char_traits<wchar_t>>
    ios.o(t._ZNSt13basic_ostreamIwSt11char_traitsIwEEC1EPSt15basic_streambufIwS1_E.clean) refers to ios.o(i._ZNSt9basic_iosIwSt11char_traitsIwEED1Ev) for std::basic_ios<wchar_t, std::char_traits<wchar_t>>::~basic_ios()
    ios.o(t._ZNSt13basic_ostreamIwSt11char_traitsIwEEC1EPSt15basic_streambufIwS1_E.clean) refers to arm_exceptions_cleanup.o(.emb_text) for __cxa_end_cleanup
    ios.o(.ARM.extab) refers to ios.o(t._ZNSt13basic_ostreamIwSt11char_traitsIwEEC1EPSt15basic_streambufIwS1_E.clean) for t._ZNSt13basic_ostreamIwSt11char_traitsIwEEC1EPSt15basic_streambufIwS1_E.clean
    ios.o(.ARM.exidx) refers to ios.o(t._ZNSt13basic_ostreamIwSt11char_traitsIwEEC1EPSt15basic_streambufIwS1_E) for t._ZNSt13basic_ostreamIwSt11char_traitsIwEEC1EPSt15basic_streambufIwS1_E
    ios.o(.ARM.exidx) refers to unwind_pr0.o(.text) for __aeabi_unwind_cpp_pr0
    ios.o(.ARM.exidx) refers to ios.o(.ARM.extab) for .extab._ZNSt13basic_ostreamIwSt11char_traitsIwEEC1EPSt15basic_streambufIwS1_E
    ios.o(.ARM.exidx) refers to ios.o(t._ZNSt13basic_ostreamIwSt11char_traitsIwEEC1EPSt15basic_streambufIwS1_E.clean) for t._ZNSt13basic_ostreamIwSt11char_traitsIwEEC1EPSt15basic_streambufIwS1_E.clean
    ios.o(t._ZNSt13basic_filebufIwSt11char_traitsIwEE6setbufEPwl) refers to array_new.o(i._Znaj) for operator new[] (unsigned)
    ios.o(t._ZNSt13basic_filebufIwSt11char_traitsIwEE6setbufEPwl) refers to ios.o(t._ZNSt15basic_streambufIwSt11char_traitsIwEE10_C_own_bufEb) for std::basic_streambuf<wchar_t, std::char_traits<wchar_t>>::_C_own_buf(bool)
    ios.o(t._ZNSt13basic_filebufIwSt11char_traitsIwEE6setbufEPwl) refers to array_del.o(i._ZdaPv) for operator delete[] (void*)
    ios.o(t._ZNSt13basic_filebufIwSt11char_traitsIwEE6setbufEPwl) refers to ios.o(t._ZNSt15basic_streambufIwSt11char_traitsIwEE17_C_set_unbufferedEb) for std::basic_streambuf<wchar_t, std::char_traits<wchar_t>>::_C_set_unbuffered(bool)
    ios.o(.ARM.exidx) refers to ios.o(t._ZNSt13basic_filebufIwSt11char_traitsIwEE6setbufEPwl) for t._ZNSt13basic_filebufIwSt11char_traitsIwEE6setbufEPwl
    ios.o(.ARM.exidx) refers to unwind_pr0.o(.text) for __aeabi_unwind_cpp_pr0
    ios.o(t._ZNSt13basic_filebufIwSt11char_traitsIwEEC1EPSt6__FILEPwl) refers to ios.o(i._ZN4__rw11__rw_file_t11_C_get_modeEPSt6__FILE) for __rw::__rw_file_t::_C_get_mode(std::__FILE*)
    ios.o(t._ZNSt13basic_filebufIwSt11char_traitsIwEEC1EPSt6__FILEPwl) refers to ios.o(i._ZNSt6localeC1Ev) for std::locale::locale()
    ios.o(t._ZNSt13basic_filebufIwSt11char_traitsIwEEC1EPSt6__FILEPwl) refers to ios.o(t._ZNSt4fposISt11__mbstate_tEC1El) for std::fpos<std::__mbstate_t>::fpos(long)
    ios.o(t._ZNSt13basic_filebufIwSt11char_traitsIwEEC1EPSt6__FILEPwl) refers to ios.o(t._ZNSt13basic_filebufIwSt11char_traitsIwEE6setbufEPwl) for std::basic_filebuf<wchar_t, std::char_traits<wchar_t>>::setbuf(wchar_t*, long)
    ios.o(t._ZNSt13basic_filebufIwSt11char_traitsIwEEC1EPSt6__FILEPwl) refers to ios.o(.constdata__ZTVSt15basic_streambufIwSt11char_traitsIwEE) for vtable for std::basic_streambuf<wchar_t, std::char_traits<wchar_t>>
    ios.o(t._ZNSt13basic_filebufIwSt11char_traitsIwEEC1EPSt6__FILEPwl) refers to ios.o(.constdata__ZTVSt13basic_filebufIwSt11char_traitsIwEE) for vtable for std::basic_filebuf<wchar_t, std::char_traits<wchar_t>>
    ios.o(t._ZNSt13basic_filebufIwSt11char_traitsIwEEC1EPSt6__FILEPwl.clean) refers to ios.o(t._ZNSt15basic_streambufIwSt11char_traitsIwEED1Ev) for std::basic_streambuf<wchar_t, std::char_traits<wchar_t>>::~basic_streambuf()
    ios.o(t._ZNSt13basic_filebufIwSt11char_traitsIwEEC1EPSt6__FILEPwl.clean) refers to arm_exceptions_cleanup.o(.emb_text) for __cxa_end_cleanup
    ios.o(.ARM.extab) refers to ios.o(t._ZNSt13basic_filebufIwSt11char_traitsIwEEC1EPSt6__FILEPwl.clean) for t._ZNSt13basic_filebufIwSt11char_traitsIwEEC1EPSt6__FILEPwl.clean
    ios.o(.ARM.exidx) refers to ios.o(t._ZNSt13basic_filebufIwSt11char_traitsIwEEC1EPSt6__FILEPwl) for t._ZNSt13basic_filebufIwSt11char_traitsIwEEC1EPSt6__FILEPwl
    ios.o(.ARM.exidx) refers to unwind_pr0.o(.text) for __aeabi_unwind_cpp_pr0
    ios.o(.ARM.exidx) refers to ios.o(.ARM.extab) for .extab._ZNSt13basic_filebufIwSt11char_traitsIwEEC1EPSt6__FILEPwl
    ios.o(.ARM.exidx) refers to ios.o(t._ZNSt13basic_filebufIwSt11char_traitsIwEEC1EPSt6__FILEPwl.clean) for t._ZNSt13basic_filebufIwSt11char_traitsIwEEC1EPSt6__FILEPwl.clean
    ios.o(t._ZNSt9basic_iosIcSt11char_traitsIcEE4initEPSt15basic_streambufIcS1_E) refers to ios.o(i._ZNSt6localeC1ERKS_) for std::locale::locale(const std::locale&)
    ios.o(t._ZNSt9basic_iosIcSt11char_traitsIcEE4initEPSt15basic_streambufIcS1_E) refers to ios.o(i._ZNKSt6locale12_C_use_facetERKNS_2idEbiPFPN4__rw15__rw_facet_baseEiPKcjE) for std::locale::_C_use_facet(const std::locale::id&, bool, int, __rw::__rw_facet_base*(*)(int, const char*, unsigned)) const
    ios.o(t._ZNSt9basic_iosIcSt11char_traitsIcEE4initEPSt15basic_streambufIcS1_E) refers to ios.o(i._ZNSt6localeD1Ev) for std::locale::~locale()
    ios.o(t._ZNSt9basic_iosIcSt11char_traitsIcEE4initEPSt15basic_streambufIcS1_E) refers to ios.o(t._ZN4__rw16__rw_facet_makerISt5ctypeIcEE13_C_maker_funcEiPKcj) for __rw::__rw_facet_maker<std::ctype<char>>::_C_maker_func(int, const char*, unsigned)
    ios.o(t._ZNSt9basic_iosIcSt11char_traitsIcEE4initEPSt15basic_streambufIcS1_E) refers to char.o(.data) for std::ctype<char>::id
    ios.o(t._ZNSt9basic_iosIcSt11char_traitsIcEE4initEPSt15basic_streambufIcS1_E.clean) refers to ios.o(i._ZNSt6localeD1Ev) for std::locale::~locale()
    ios.o(t._ZNSt9basic_iosIcSt11char_traitsIcEE4initEPSt15basic_streambufIcS1_E.clean) refers to arm_exceptions_cleanup.o(.emb_text) for __cxa_end_cleanup
    ios.o(.ARM.extab) refers to ios.o(t._ZNSt9basic_iosIcSt11char_traitsIcEE4initEPSt15basic_streambufIcS1_E.clean) for t._ZNSt9basic_iosIcSt11char_traitsIcEE4initEPSt15basic_streambufIcS1_E.clean
    ios.o(.ARM.exidx) refers to ios.o(t._ZNSt9basic_iosIcSt11char_traitsIcEE4initEPSt15basic_streambufIcS1_E) for t._ZNSt9basic_iosIcSt11char_traitsIcEE4initEPSt15basic_streambufIcS1_E
    ios.o(.ARM.exidx) refers to unwind_pr0.o(.text) for __aeabi_unwind_cpp_pr0
    ios.o(.ARM.exidx) refers to ios.o(.ARM.extab) for .extab._ZNSt9basic_iosIcSt11char_traitsIcEE4initEPSt15basic_streambufIcS1_E
    ios.o(.ARM.exidx) refers to ios.o(t._ZNSt9basic_iosIcSt11char_traitsIcEE4initEPSt15basic_streambufIcS1_E.clean) for t._ZNSt9basic_iosIcSt11char_traitsIcEE4initEPSt15basic_streambufIcS1_E.clean
    ios.o(t._ZNSoC1EPSt15basic_streambufIcSt11char_traitsIcEE) refers to ios.o(t._ZNSt9basic_iosIcSt11char_traitsIcEEC1Ev) for std::basic_ios<char, std::char_traits<char>>::basic_ios()
    ios.o(t._ZNSoC1EPSt15basic_streambufIcSt11char_traitsIcEE) refers to ios.o(t._ZNSt9basic_iosIcSt11char_traitsIcEE4initEPSt15basic_streambufIcS1_E) for std::basic_ios<char, std::char_traits<char>>::init(std::basic_streambuf<char, std::char_traits<char>>*)
    ios.o(t._ZNSoC1EPSt15basic_streambufIcSt11char_traitsIcEE) refers to ios.o(.constdata__ZTVSo) for VTT for std::basic_ostream<char, std::char_traits<char>>
    ios.o(t._ZNSoC1EPSt15basic_streambufIcSt11char_traitsIcEE.clean) refers to ios.o(i._ZNSt9basic_iosIcSt11char_traitsIcEED1Ev) for std::basic_ios<char, std::char_traits<char>>::~basic_ios()
    ios.o(t._ZNSoC1EPSt15basic_streambufIcSt11char_traitsIcEE.clean) refers to arm_exceptions_cleanup.o(.emb_text) for __cxa_end_cleanup
    ios.o(.ARM.extab) refers to ios.o(t._ZNSoC1EPSt15basic_streambufIcSt11char_traitsIcEE.clean) for t._ZNSoC1EPSt15basic_streambufIcSt11char_traitsIcEE.clean
    ios.o(.ARM.exidx) refers to ios.o(t._ZNSoC1EPSt15basic_streambufIcSt11char_traitsIcEE) for t._ZNSoC1EPSt15basic_streambufIcSt11char_traitsIcEE
    ios.o(.ARM.exidx) refers to unwind_pr0.o(.text) for __aeabi_unwind_cpp_pr0
    ios.o(.ARM.exidx) refers to ios.o(.ARM.extab) for .extab._ZNSoC1EPSt15basic_streambufIcSt11char_traitsIcEE
    ios.o(.ARM.exidx) refers to ios.o(t._ZNSoC1EPSt15basic_streambufIcSt11char_traitsIcEE.clean) for t._ZNSoC1EPSt15basic_streambufIcSt11char_traitsIcEE.clean
    ios.o(t._ZNSt13basic_filebufIcSt11char_traitsIcEE6setbufEPcl) refers to array_new.o(i._Znaj) for operator new[] (unsigned)
    ios.o(t._ZNSt13basic_filebufIcSt11char_traitsIcEE6setbufEPcl) refers to ios.o(t._ZNSt15basic_streambufIcSt11char_traitsIcEE10_C_own_bufEb) for std::basic_streambuf<char, std::char_traits<char>>::_C_own_buf(bool)
    ios.o(t._ZNSt13basic_filebufIcSt11char_traitsIcEE6setbufEPcl) refers to array_del.o(i._ZdaPv) for operator delete[] (void*)
    ios.o(t._ZNSt13basic_filebufIcSt11char_traitsIcEE6setbufEPcl) refers to ios.o(t._ZNSt15basic_streambufIcSt11char_traitsIcEE17_C_set_unbufferedEb) for std::basic_streambuf<char, std::char_traits<char>>::_C_set_unbuffered(bool)
    ios.o(.ARM.exidx) refers to ios.o(t._ZNSt13basic_filebufIcSt11char_traitsIcEE6setbufEPcl) for t._ZNSt13basic_filebufIcSt11char_traitsIcEE6setbufEPcl
    ios.o(.ARM.exidx) refers to unwind_pr0.o(.text) for __aeabi_unwind_cpp_pr0
    ios.o(t._ZNSt13basic_filebufIcSt11char_traitsIcEEC1EPSt6__FILEPcl) refers to ios.o(i._ZN4__rw11__rw_file_t11_C_get_modeEPSt6__FILE) for __rw::__rw_file_t::_C_get_mode(std::__FILE*)
    ios.o(t._ZNSt13basic_filebufIcSt11char_traitsIcEEC1EPSt6__FILEPcl) refers to ios.o(i._ZNSt6localeC1Ev) for std::locale::locale()
    ios.o(t._ZNSt13basic_filebufIcSt11char_traitsIcEEC1EPSt6__FILEPcl) refers to ios.o(t._ZNSt4fposISt11__mbstate_tEC1El) for std::fpos<std::__mbstate_t>::fpos(long)
    ios.o(t._ZNSt13basic_filebufIcSt11char_traitsIcEEC1EPSt6__FILEPcl) refers to ios.o(t._ZNSt13basic_filebufIcSt11char_traitsIcEE6setbufEPcl) for std::basic_filebuf<char, std::char_traits<char>>::setbuf(char*, long)
    ios.o(t._ZNSt13basic_filebufIcSt11char_traitsIcEEC1EPSt6__FILEPcl) refers to ios.o(.constdata__ZTVSt15basic_streambufIcSt11char_traitsIcEE) for vtable for std::basic_streambuf<char, std::char_traits<char>>
    ios.o(t._ZNSt13basic_filebufIcSt11char_traitsIcEEC1EPSt6__FILEPcl) refers to ios.o(.constdata__ZTVSt13basic_filebufIcSt11char_traitsIcEE) for vtable for std::basic_filebuf<char, std::char_traits<char>>
    ios.o(t._ZNSt13basic_filebufIcSt11char_traitsIcEEC1EPSt6__FILEPcl.clean) refers to ios.o(t._ZNSt15basic_streambufIcSt11char_traitsIcEED1Ev) for std::basic_streambuf<char, std::char_traits<char>>::~basic_streambuf()
    ios.o(t._ZNSt13basic_filebufIcSt11char_traitsIcEEC1EPSt6__FILEPcl.clean) refers to arm_exceptions_cleanup.o(.emb_text) for __cxa_end_cleanup
    ios.o(.ARM.extab) refers to ios.o(t._ZNSt13basic_filebufIcSt11char_traitsIcEEC1EPSt6__FILEPcl.clean) for t._ZNSt13basic_filebufIcSt11char_traitsIcEEC1EPSt6__FILEPcl.clean
    ios.o(.ARM.exidx) refers to ios.o(t._ZNSt13basic_filebufIcSt11char_traitsIcEEC1EPSt6__FILEPcl) for t._ZNSt13basic_filebufIcSt11char_traitsIcEEC1EPSt6__FILEPcl
    ios.o(.ARM.exidx) refers to unwind_pr0.o(.text) for __aeabi_unwind_cpp_pr0
    ios.o(.ARM.exidx) refers to ios.o(.ARM.extab) for .extab._ZNSt13basic_filebufIcSt11char_traitsIcEEC1EPSt6__FILEPcl
    ios.o(.ARM.exidx) refers to ios.o(t._ZNSt13basic_filebufIcSt11char_traitsIcEEC1EPSt6__FILEPcl.clean) for t._ZNSt13basic_filebufIcSt11char_traitsIcEEC1EPSt6__FILEPcl.clean
    ios.o(.ARM.exidx) refers to ios.o(t._ZNSt15basic_streambufIcSt11char_traitsIcEE5sputcEc) for t._ZNSt15basic_streambufIcSt11char_traitsIcEE5sputcEc
    ios.o(i._ZNK4__rw11__rw_file_t9_C_is_stdEv) refers to uartbsp.o(.data) for __stdin
    ios.o(.ARM.exidx) refers to ios.o(i._ZNK4__rw11__rw_file_t9_C_is_stdEv) for i._ZNK4__rw11__rw_file_t9_C_is_stdEv
    ios.o(t._ZN4__rw23__rw_create_named_facetISt7codecvtIccSt11__mbstate_tEEEPT_S5_PKcj) refers to new.o(i._Znwj) for operator new(unsigned)
    ios.o(t._ZN4__rw23__rw_create_named_facetISt7codecvtIccSt11__mbstate_tEEEPT_S5_PKcj) refers to ios.o(i._ZNSt7codecvtIccSt11__mbstate_tEC1Ej) for std::codecvt<char, char, std::__mbstate_t>::codecvt(unsigned)
    ios.o(t._ZN4__rw23__rw_create_named_facetISt7codecvtIccSt11__mbstate_tEEEPT_S5_PKcj.clean) refers to delete.o(i._ZdlPv) for operator delete (void*)
    ios.o(t._ZN4__rw23__rw_create_named_facetISt7codecvtIccSt11__mbstate_tEEEPT_S5_PKcj.clean) refers to arm_exceptions_cleanup.o(.emb_text) for __cxa_end_cleanup
    ios.o(.ARM.extab) refers to ios.o(t._ZN4__rw23__rw_create_named_facetISt7codecvtIccSt11__mbstate_tEEEPT_S5_PKcj.clean) for t._ZN4__rw23__rw_create_named_facetISt7codecvtIccSt11__mbstate_tEEEPT_S5_PKcj.clean
    ios.o(.ARM.exidx) refers to ios.o(t._ZN4__rw23__rw_create_named_facetISt7codecvtIccSt11__mbstate_tEEEPT_S5_PKcj) for t._ZN4__rw23__rw_create_named_facetISt7codecvtIccSt11__mbstate_tEEEPT_S5_PKcj
    ios.o(.ARM.exidx) refers to unwind_pr0.o(.text) for __aeabi_unwind_cpp_pr0
    ios.o(.ARM.exidx) refers to ios.o(.ARM.extab) for .extab._ZN4__rw23__rw_create_named_facetISt7codecvtIccSt11__mbstate_tEEEPT_S5_PKcj
    ios.o(.ARM.exidx) refers to ios.o(t._ZN4__rw23__rw_create_named_facetISt7codecvtIccSt11__mbstate_tEEEPT_S5_PKcj.clean) for t._ZN4__rw23__rw_create_named_facetISt7codecvtIccSt11__mbstate_tEEEPT_S5_PKcj.clean
    ios.o(t._ZNSt13basic_filebufIcSt11char_traitsIcEE10_C_unshiftEv) refers to ios.o(t._ZSt9use_facetISt7codecvtIccSt11__mbstate_tEERKT_RKSt6locale) for const T1& std::use_facet<std::codecvt<char, char, std::__mbstate_t>>(const std::locale&)
    ios.o(t._ZNSt13basic_filebufIcSt11char_traitsIcEE10_C_unshiftEv) refers to ios.o(i._ZNKSt7codecvtIccSt11__mbstate_tE8encodingEv) for std::codecvt<char, char, std::__mbstate_t>::encoding() const
    ios.o(t._ZNSt13basic_filebufIcSt11char_traitsIcEE10_C_unshiftEv) refers to mbsinit.o(.text) for mbsinit
    ios.o(t._ZNSt13basic_filebufIcSt11char_traitsIcEE10_C_unshiftEv) refers to ios.o(i._ZN4__rw11__rw_file_t8_C_writeEPKvjj) for __rw::__rw_file_t::_C_write(const void*, unsigned, unsigned)
    ios.o(.ARM.exidx) refers to ios.o(t._ZNSt13basic_filebufIcSt11char_traitsIcEE10_C_unshiftEv) for t._ZNSt13basic_filebufIcSt11char_traitsIcEE10_C_unshiftEv
    ios.o(.ARM.exidx) refers to unwind_pr0.o(.text) for __aeabi_unwind_cpp_pr0
    ios.o(t._ZNSt13basic_filebufIcSt11char_traitsIcEED1Ev) refers to ios.o(t._ZNSt13basic_filebufIcSt11char_traitsIcEE5closeEv) for std::basic_filebuf<char, std::char_traits<char>>::close()
    ios.o(t._ZNSt13basic_filebufIcSt11char_traitsIcEED1Ev) refers to array_del.o(i._ZdaPv) for operator delete[] (void*)
    ios.o(t._ZNSt13basic_filebufIcSt11char_traitsIcEED1Ev) refers to ios.o(t._ZNSt15basic_streambufIcSt11char_traitsIcEED1Ev) for std::basic_streambuf<char, std::char_traits<char>>::~basic_streambuf()
    ios.o(t._ZNSt13basic_filebufIcSt11char_traitsIcEED1Ev) refers to ios.o(.constdata__ZTVSt13basic_filebufIcSt11char_traitsIcEE) for vtable for std::basic_filebuf<char, std::char_traits<char>>
    ios.o(t._ZNSt13basic_filebufIcSt11char_traitsIcEED1Ev.clean) refers to ios.o(t._ZNSt15basic_streambufIcSt11char_traitsIcEED1Ev) for std::basic_streambuf<char, std::char_traits<char>>::~basic_streambuf()
    ios.o(t._ZNSt13basic_filebufIcSt11char_traitsIcEED1Ev.clean) refers to arm_exceptions_cleanup.o(.emb_text) for __cxa_end_cleanup
    ios.o(.ARM.extab) refers to arm_callunex_noexceptions.o(.text) for __cxa_call_unexpected
    ios.o(.ARM.extab) refers to arm_exceptions_callterm.o(.text) for __cxa_call_terminate
    ios.o(.ARM.extab) refers to ios.o(t._ZNSt13basic_filebufIcSt11char_traitsIcEED1Ev.clean) for t._ZNSt13basic_filebufIcSt11char_traitsIcEED1Ev.clean
    ios.o(.ARM.extab) refers to char.o(i.__ARM_common_noexcept_landing) for __ARM_common_noexcept_landing
    ios.o(.ARM.exidx) refers to ios.o(t._ZNSt13basic_filebufIcSt11char_traitsIcEED1Ev) for t._ZNSt13basic_filebufIcSt11char_traitsIcEED1Ev
    ios.o(.ARM.exidx) refers to unwind_pr0.o(.text) for __aeabi_unwind_cpp_pr0
    ios.o(.ARM.exidx) refers to ios.o(.ARM.extab) for .extab._ZNSt13basic_filebufIcSt11char_traitsIcEED1Ev
    ios.o(.ARM.exidx) refers to ios.o(t._ZNSt13basic_filebufIcSt11char_traitsIcEED1Ev.clean) for t._ZNSt13basic_filebufIcSt11char_traitsIcEED1Ev.clean
    ios.o(t._ZNSt13basic_filebufIcSt11char_traitsIcEE9showmanycEv) refers to ios.o(t._ZNKSt13basic_filebufIcSt11char_traitsIcEE7is_openEv) for std::basic_filebuf<char, std::char_traits<char>>::is_open() const
    ios.o(t._ZNSt13basic_filebufIcSt11char_traitsIcEE9showmanycEv) refers to ios.o(t._ZNSt4fposISt11__mbstate_tEC1El) for std::fpos<std::__mbstate_t>::fpos(long)
    ios.o(t._ZNSt13basic_filebufIcSt11char_traitsIcEE9showmanycEv) refers to ios.o(t._ZNKSt4fposISt11__mbstate_tEeqERKS1_) for std::fpos<std::__mbstate_t>::operator ==(const std::fpos<std::__mbstate_t>&) const
    ios.o(t._ZNSt13basic_filebufIcSt11char_traitsIcEE9showmanycEv) refers to ios.o(t._ZNSt13basic_filebufIcSt11char_traitsIcEE12_C_file_seekEli) for std::basic_filebuf<char, std::char_traits<char>>::_C_file_seek(long, int)
    ios.o(t._ZNSt13basic_filebufIcSt11char_traitsIcEE9showmanycEv) refers to ios.o(t._ZNKSt4fposISt11__mbstate_tEneERKS1_) for std::fpos<std::__mbstate_t>::operator !=(const std::fpos<std::__mbstate_t>&) const
    ios.o(t._ZNSt13basic_filebufIcSt11char_traitsIcEE9showmanycEv) refers to ios.o(t._ZSt9use_facetISt7codecvtIccSt11__mbstate_tEERKT_RKSt6locale) for const T1& std::use_facet<std::codecvt<char, char, std::__mbstate_t>>(const std::locale&)
    ios.o(t._ZNSt13basic_filebufIcSt11char_traitsIcEE9showmanycEv) refers to ios.o(i._ZNKSt7codecvtIccSt11__mbstate_tE13always_noconvEv) for std::codecvt<char, char, std::__mbstate_t>::always_noconv() const
    ios.o(t._ZNSt13basic_filebufIcSt11char_traitsIcEE9showmanycEv) refers to ios.o(t._ZNKSt4fposISt11__mbstate_tEmiERKS1_) for std::fpos<std::__mbstate_t>::operator -(const std::fpos<std::__mbstate_t>&) const
    ios.o(t._ZNSt13basic_filebufIcSt11char_traitsIcEE9showmanycEv) refers to ios.o(i._ZNKSt7codecvtIccSt11__mbstate_tE10max_lengthEv) for std::codecvt<char, char, std::__mbstate_t>::max_length() const
    ios.o(.ARM.exidx) refers to ios.o(t._ZNSt13basic_filebufIcSt11char_traitsIcEE9showmanycEv) for t._ZNSt13basic_filebufIcSt11char_traitsIcEE9showmanycEv
    ios.o(.ARM.exidx) refers to unwind_pr0.o(.text) for __aeabi_unwind_cpp_pr0
    ios.o(t._ZNSt13basic_filebufIcSt11char_traitsIcEE9underflowEv) refers to ios.o(t._ZNSt15basic_streambufIcSt11char_traitsIcEE11_C_out_lastEb) for std::basic_streambuf<char, std::char_traits<char>>::_C_out_last(bool)
    ios.o(t._ZNSt13basic_filebufIcSt11char_traitsIcEE9underflowEv) refers to ios.o(t._ZNKSt13basic_filebufIcSt11char_traitsIcEE7is_openEv) for std::basic_filebuf<char, std::char_traits<char>>::is_open() const
    ios.o(t._ZNSt13basic_filebufIcSt11char_traitsIcEE9underflowEv) refers to ios.o(t._ZNKSt15basic_streambufIcSt11char_traitsIcEE16_C_putback_availEv) for std::basic_streambuf<char, std::char_traits<char>>::_C_putback_avail() const
    ios.o(t._ZNSt13basic_filebufIcSt11char_traitsIcEE9underflowEv) refers to ios.o(t._ZSt3minIlERKT_S2_S2_) for const T1& std::min<long>(const T1&, const T1&)
    ios.o(t._ZNSt13basic_filebufIcSt11char_traitsIcEE9underflowEv) refers to ios.o(i._ZNSt11char_traitsIcE4moveEPcPKcj) for std::char_traits<char>::move(char*, const char*, unsigned)
    ios.o(t._ZNSt13basic_filebufIcSt11char_traitsIcEE9underflowEv) refers to ios.o(t._ZNSt4fposISt11__mbstate_tEaSERKS1_) for std::fpos<std::__mbstate_t>::operator =(const std::fpos<std::__mbstate_t>&)
    ios.o(t._ZNSt13basic_filebufIcSt11char_traitsIcEE9underflowEv) refers to ios.o(t._ZSt9use_facetISt7codecvtIccSt11__mbstate_tEERKT_RKSt6locale) for const T1& std::use_facet<std::codecvt<char, char, std::__mbstate_t>>(const std::locale&)
    ios.o(t._ZNSt13basic_filebufIcSt11char_traitsIcEE9underflowEv) refers to ios.o(i._ZNKSt7codecvtIccSt11__mbstate_tE13always_noconvEv) for std::codecvt<char, char, std::__mbstate_t>::always_noconv() const
    ios.o(t._ZNSt13basic_filebufIcSt11char_traitsIcEE9underflowEv) refers to ios.o(i._ZN4__rw11__rw_file_t7_C_readEPvjj) for __rw::__rw_file_t::_C_read(void*, unsigned, unsigned)
    ios.o(t._ZNSt13basic_filebufIcSt11char_traitsIcEE9underflowEv) refers to ios.o(t._ZSt3minIiERKT_S2_S2_) for const T1& std::min<int>(const T1&, const T1&)
    ios.o(t._ZNSt13basic_filebufIcSt11char_traitsIcEE9underflowEv) refers to rt_memmove_v6.o(.text) for __aeabi_memmove
    ios.o(.ARM.exidx) refers to ios.o(t._ZNSt13basic_filebufIcSt11char_traitsIcEE9underflowEv) for t._ZNSt13basic_filebufIcSt11char_traitsIcEE9underflowEv
    ios.o(.ARM.exidx) refers to unwind_pr0.o(.text) for __aeabi_unwind_cpp_pr0
    ios.o(t._ZNSt13basic_filebufIcSt11char_traitsIcEE5uflowEv) refers to ios.o(t._ZNKSt15basic_streambufIcSt11char_traitsIcEE9_C_is_eofEi) for std::basic_streambuf<char, std::char_traits<char>>::_C_is_eof(int) const
    ios.o(.ARM.exidx) refers to ios.o(t._ZNSt13basic_filebufIcSt11char_traitsIcEE5uflowEv) for t._ZNSt13basic_filebufIcSt11char_traitsIcEE5uflowEv
    ios.o(.ARM.exidx) refers to unwind_pr0.o(.text) for __aeabi_unwind_cpp_pr0
    ios.o(t._ZNSt13basic_filebufIcSt11char_traitsIcEE8overflowEi) refers to ios.o(t._ZNKSt13basic_filebufIcSt11char_traitsIcEE7is_openEv) for std::basic_filebuf<char, std::char_traits<char>>::is_open() const
    ios.o(t._ZNSt13basic_filebufIcSt11char_traitsIcEE8overflowEi) refers to ios.o(t._ZNKSt15basic_streambufIcSt11char_traitsIcEE9_C_is_eofEi) for std::basic_streambuf<char, std::char_traits<char>>::_C_is_eof(int) const
    ios.o(t._ZNSt13basic_filebufIcSt11char_traitsIcEE8overflowEi) refers to ios.o(t._ZNSt13basic_filebufIcSt11char_traitsIcEE12_C_file_seekEli) for std::basic_filebuf<char, std::char_traits<char>>::_C_file_seek(long, int)
    ios.o(t._ZNSt13basic_filebufIcSt11char_traitsIcEE8overflowEi) refers to ios.o(t._ZNSt4fposISt11__mbstate_tEaSERKS1_) for std::fpos<std::__mbstate_t>::operator =(const std::fpos<std::__mbstate_t>&)
    ios.o(t._ZNSt13basic_filebufIcSt11char_traitsIcEE8overflowEi) refers to ios.o(t._ZSt9use_facetISt7codecvtIccSt11__mbstate_tEERKT_RKSt6locale) for const T1& std::use_facet<std::codecvt<char, char, std::__mbstate_t>>(const std::locale&)
    ios.o(t._ZNSt13basic_filebufIcSt11char_traitsIcEE8overflowEi) refers to ios.o(i._ZNKSt7codecvtIccSt11__mbstate_tE13always_noconvEv) for std::codecvt<char, char, std::__mbstate_t>::always_noconv() const
    ios.o(t._ZNSt13basic_filebufIcSt11char_traitsIcEE8overflowEi) refers to ios.o(i._ZN4__rw11__rw_file_t8_C_writeEPKvjj) for __rw::__rw_file_t::_C_write(const void*, unsigned, unsigned)
    ios.o(t._ZNSt13basic_filebufIcSt11char_traitsIcEE8overflowEi) refers to ios.o(i._ZNKSt7codecvtIccSt11__mbstate_tE3outERS0_PKcS4_RS4_PcS6_RS6_) for std::codecvt<char, char, std::__mbstate_t>::out(std::__mbstate_t&, const char*, const char*, const char*&, char*, char*, char*&) const
    ios.o(t._ZNSt13basic_filebufIcSt11char_traitsIcEE8overflowEi) refers to ios.o(t._ZNSt15basic_streambufIcSt11char_traitsIcEE5sputcEc) for std::basic_streambuf<char, std::char_traits<char>>::sputc(char)
    ios.o(t._ZNSt13basic_filebufIcSt11char_traitsIcEE8overflowEi) refers to ios.o(t._ZNSt15basic_streambufIcSt11char_traitsIcEE11_C_out_lastEb) for std::basic_streambuf<char, std::char_traits<char>>::_C_out_last(bool)
    ios.o(t._ZNSt13basic_filebufIcSt11char_traitsIcEE8overflowEi) refers to ios.o(i._ZNSt11char_traitsIcE7not_eofERKi) for std::char_traits<char>::not_eof(const int&)
    ios.o(.ARM.exidx) refers to ios.o(t._ZNSt13basic_filebufIcSt11char_traitsIcEE8overflowEi) for t._ZNSt13basic_filebufIcSt11char_traitsIcEE8overflowEi
    ios.o(.ARM.exidx) refers to unwind_pr0.o(.text) for __aeabi_unwind_cpp_pr0
    ios.o(t._ZNSt13basic_filebufIcSt11char_traitsIcEE9pbackfailEi) refers to ios.o(t._ZNKSt13basic_filebufIcSt11char_traitsIcEE7is_openEv) for std::basic_filebuf<char, std::char_traits<char>>::is_open() const
    ios.o(t._ZNSt13basic_filebufIcSt11char_traitsIcEE9pbackfailEi) refers to ios.o(t._ZNKSt15basic_streambufIcSt11char_traitsIcEE16_C_putback_availEv) for std::basic_streambuf<char, std::char_traits<char>>::_C_putback_avail() const
    ios.o(t._ZNSt13basic_filebufIcSt11char_traitsIcEE9pbackfailEi) refers to ios.o(t._ZNSt4fposISt11__mbstate_tEC1El) for std::fpos<std::__mbstate_t>::fpos(long)
    ios.o(t._ZNSt13basic_filebufIcSt11char_traitsIcEE9pbackfailEi) refers to ios.o(t._ZNKSt4fposISt11__mbstate_tEeqERKS1_) for std::fpos<std::__mbstate_t>::operator ==(const std::fpos<std::__mbstate_t>&) const
    ios.o(t._ZNSt13basic_filebufIcSt11char_traitsIcEE9pbackfailEi) refers to ios.o(t._ZNKSt15basic_streambufIcSt11char_traitsIcEE9_C_is_eofEi) for std::basic_streambuf<char, std::char_traits<char>>::_C_is_eof(int) const
    ios.o(t._ZNSt13basic_filebufIcSt11char_traitsIcEE9pbackfailEi) refers to ios.o(i._ZNSt11char_traitsIcE7not_eofERKi) for std::char_traits<char>::not_eof(const int&)
    ios.o(.ARM.exidx) refers to ios.o(t._ZNSt13basic_filebufIcSt11char_traitsIcEE9pbackfailEi) for t._ZNSt13basic_filebufIcSt11char_traitsIcEE9pbackfailEi
    ios.o(.ARM.exidx) refers to unwind_pr0.o(.text) for __aeabi_unwind_cpp_pr0
    ios.o(t._ZNSt13basic_filebufIcSt11char_traitsIcEE7seekoffElNSt8ios_base10_C_seekdirEi) refers to ios.o(t._ZNKSt13basic_filebufIcSt11char_traitsIcEE7is_openEv) for std::basic_filebuf<char, std::char_traits<char>>::is_open() const
    ios.o(t._ZNSt13basic_filebufIcSt11char_traitsIcEE7seekoffElNSt8ios_base10_C_seekdirEi) refers to ios.o(t._ZSt9use_facetISt7codecvtIccSt11__mbstate_tEERKT_RKSt6locale) for const T1& std::use_facet<std::codecvt<char, char, std::__mbstate_t>>(const std::locale&)
    ios.o(t._ZNSt13basic_filebufIcSt11char_traitsIcEE7seekoffElNSt8ios_base10_C_seekdirEi) refers to ios.o(i._ZNKSt7codecvtIccSt11__mbstate_tE8encodingEv) for std::codecvt<char, char, std::__mbstate_t>::encoding() const
    ios.o(t._ZNSt13basic_filebufIcSt11char_traitsIcEE7seekoffElNSt8ios_base10_C_seekdirEi) refers to ios.o(t._ZNSt4fposISt11__mbstate_tEC1El) for std::fpos<std::__mbstate_t>::fpos(long)
    ios.o(t._ZNSt13basic_filebufIcSt11char_traitsIcEE7seekoffElNSt8ios_base10_C_seekdirEi) refers to ios.o(t._ZNSt13basic_filebufIcSt11char_traitsIcEE10_C_unshiftEv) for std::basic_filebuf<char, std::char_traits<char>>::_C_unshift()
    ios.o(t._ZNSt13basic_filebufIcSt11char_traitsIcEE7seekoffElNSt8ios_base10_C_seekdirEi) refers to ios.o(t._ZNSt13basic_filebufIcSt11char_traitsIcEE12_C_file_seekEli) for std::basic_filebuf<char, std::char_traits<char>>::_C_file_seek(long, int)
    ios.o(t._ZNSt13basic_filebufIcSt11char_traitsIcEE7seekoffElNSt8ios_base10_C_seekdirEi) refers to ios.o(t._ZNSt4fposISt11__mbstate_tEaSERKS1_) for std::fpos<std::__mbstate_t>::operator =(const std::fpos<std::__mbstate_t>&)
    ios.o(t._ZNSt13basic_filebufIcSt11char_traitsIcEE7seekoffElNSt8ios_base10_C_seekdirEi) refers to ios.o(t._ZNKSt4fposISt11__mbstate_tEneERKS1_) for std::fpos<std::__mbstate_t>::operator !=(const std::fpos<std::__mbstate_t>&) const
    ios.o(t._ZNSt13basic_filebufIcSt11char_traitsIcEE7seekoffElNSt8ios_base10_C_seekdirEi) refers to ios.o(t._ZNSt15basic_streambufIcSt11char_traitsIcEE11_C_out_lastEb) for std::basic_streambuf<char, std::char_traits<char>>::_C_out_last(bool)
    ios.o(t._ZNSt13basic_filebufIcSt11char_traitsIcEE7seekoffElNSt8ios_base10_C_seekdirEi) refers to ios.o(t._ZNSt4fposISt11__mbstate_tEC1ERKS1_) for std::fpos<std::__mbstate_t>::fpos(const std::fpos<std::__mbstate_t>&)
    ios.o(.ARM.exidx) refers to ios.o(t._ZNSt13basic_filebufIcSt11char_traitsIcEE7seekoffElNSt8ios_base10_C_seekdirEi) for t._ZNSt13basic_filebufIcSt11char_traitsIcEE7seekoffElNSt8ios_base10_C_seekdirEi
    ios.o(.ARM.exidx) refers to unwind_pr0.o(.text) for __aeabi_unwind_cpp_pr0
    ios.o(t._ZNSt13basic_filebufIcSt11char_traitsIcEE7seekposESt4fposISt11__mbstate_tEi) refers to ios.o(t._ZNKSt13basic_filebufIcSt11char_traitsIcEE7is_openEv) for std::basic_filebuf<char, std::char_traits<char>>::is_open() const
    ios.o(t._ZNSt13basic_filebufIcSt11char_traitsIcEE7seekposESt4fposISt11__mbstate_tEi) refers to ios.o(t._ZNKSt15basic_streambufIcSt11char_traitsIcEE9_C_is_eofEi) for std::basic_streambuf<char, std::char_traits<char>>::_C_is_eof(int) const
    ios.o(t._ZNSt13basic_filebufIcSt11char_traitsIcEE7seekposESt4fposISt11__mbstate_tEi) refers to ios.o(t._ZNSt4fposISt11__mbstate_tEC1El) for std::fpos<std::__mbstate_t>::fpos(long)
    ios.o(t._ZNSt13basic_filebufIcSt11char_traitsIcEE7seekposESt4fposISt11__mbstate_tEi) refers to ios.o(t._ZNSt13basic_filebufIcSt11char_traitsIcEE12_C_file_seekEli) for std::basic_filebuf<char, std::char_traits<char>>::_C_file_seek(long, int)
    ios.o(t._ZNSt13basic_filebufIcSt11char_traitsIcEE7seekposESt4fposISt11__mbstate_tEi) refers to ios.o(t._ZNKSt4fposISt11__mbstate_tEeqERKS1_) for std::fpos<std::__mbstate_t>::operator ==(const std::fpos<std::__mbstate_t>&) const
    ios.o(t._ZNSt13basic_filebufIcSt11char_traitsIcEE7seekposESt4fposISt11__mbstate_tEi) refers to ios.o(t._ZNSt4fposISt11__mbstate_tEaSERKS1_) for std::fpos<std::__mbstate_t>::operator =(const std::fpos<std::__mbstate_t>&)
    ios.o(t._ZNSt13basic_filebufIcSt11char_traitsIcEE7seekposESt4fposISt11__mbstate_tEi) refers to ios.o(t._ZNSt15basic_streambufIcSt11char_traitsIcEE11_C_out_lastEb) for std::basic_streambuf<char, std::char_traits<char>>::_C_out_last(bool)
    ios.o(t._ZNSt13basic_filebufIcSt11char_traitsIcEE7seekposESt4fposISt11__mbstate_tEi) refers to ios.o(t._ZNSt4fposISt11__mbstate_tEC1ERKS1_) for std::fpos<std::__mbstate_t>::fpos(const std::fpos<std::__mbstate_t>&)
    ios.o(.ARM.exidx) refers to ios.o(t._ZNSt13basic_filebufIcSt11char_traitsIcEE7seekposESt4fposISt11__mbstate_tEi) for t._ZNSt13basic_filebufIcSt11char_traitsIcEE7seekposESt4fposISt11__mbstate_tEi
    ios.o(.ARM.exidx) refers to unwind_pr0.o(.text) for __aeabi_unwind_cpp_pr0
    ios.o(t._ZNSt13basic_filebufIcSt11char_traitsIcEE4syncEv) refers to ios.o(t._ZNKSt15basic_streambufIcSt11char_traitsIcEE9_C_is_eofEi) for std::basic_streambuf<char, std::char_traits<char>>::_C_is_eof(int) const
    ios.o(t._ZNSt13basic_filebufIcSt11char_traitsIcEE4syncEv) refers to ios.o(t._ZSt9use_facetISt7codecvtIccSt11__mbstate_tEERKT_RKSt6locale) for const T1& std::use_facet<std::codecvt<char, char, std::__mbstate_t>>(const std::locale&)
    ios.o(t._ZNSt13basic_filebufIcSt11char_traitsIcEE4syncEv) refers to ios.o(i._ZNKSt7codecvtIccSt11__mbstate_tE8encodingEv) for std::codecvt<char, char, std::__mbstate_t>::encoding() const
    ios.o(t._ZNSt13basic_filebufIcSt11char_traitsIcEE4syncEv) refers to ios.o(t._ZNSt4fposISt11__mbstate_tEaSERKS1_) for std::fpos<std::__mbstate_t>::operator =(const std::fpos<std::__mbstate_t>&)
    ios.o(t._ZNSt13basic_filebufIcSt11char_traitsIcEE4syncEv) refers to ios.o(i._ZNKSt7codecvtIccSt11__mbstate_tE3outERS0_PKcS4_RS4_PcS6_RS6_) for std::codecvt<char, char, std::__mbstate_t>::out(std::__mbstate_t&, const char*, const char*, const char*&, char*, char*, char*&) const
    ios.o(t._ZNSt13basic_filebufIcSt11char_traitsIcEE4syncEv) refers to ios.o(t._ZNKSt4fposISt11__mbstate_tEplEl) for std::fpos<std::__mbstate_t>::operator +(long) const
    ios.o(t._ZNSt13basic_filebufIcSt11char_traitsIcEE4syncEv) refers to ios.o(t._ZNSt4fposISt11__mbstate_tEC1El) for std::fpos<std::__mbstate_t>::fpos(long)
    ios.o(t._ZNSt13basic_filebufIcSt11char_traitsIcEE4syncEv) refers to ios.o(t._ZNSt13basic_filebufIcSt11char_traitsIcEE12_C_file_seekEli) for std::basic_filebuf<char, std::char_traits<char>>::_C_file_seek(long, int)
    ios.o(t._ZNSt13basic_filebufIcSt11char_traitsIcEE4syncEv) refers to ios.o(t._ZNKSt4fposISt11__mbstate_tEeqERKS1_) for std::fpos<std::__mbstate_t>::operator ==(const std::fpos<std::__mbstate_t>&) const
    ios.o(t._ZNSt13basic_filebufIcSt11char_traitsIcEE4syncEv) refers to ios.o(i._ZNSt11char_traitsIcE4moveEPcPKcj) for std::char_traits<char>::move(char*, const char*, unsigned)
    ios.o(.ARM.exidx) refers to ios.o(t._ZNSt13basic_filebufIcSt11char_traitsIcEE4syncEv) for t._ZNSt13basic_filebufIcSt11char_traitsIcEE4syncEv
    ios.o(.ARM.exidx) refers to unwind_pr0.o(.text) for __aeabi_unwind_cpp_pr0
    ios.o(t._ZNSt13basic_filebufIcSt11char_traitsIcEE6xsputnEPKcl) refers to char.o(i._ZNSt11char_traitsIcE4copyEPcPKcj) for std::char_traits<char>::copy(char*, const char*, unsigned)
    ios.o(t._ZNSt13basic_filebufIcSt11char_traitsIcEE6xsputnEPKcl) refers to ios.o(t._ZNSt15basic_streambufIcSt11char_traitsIcEE5sputcEc) for std::basic_streambuf<char, std::char_traits<char>>::sputc(char)
    ios.o(t._ZNSt13basic_filebufIcSt11char_traitsIcEE6xsputnEPKcl) refers to ios.o(t._ZNKSt15basic_streambufIcSt11char_traitsIcEE9_C_is_eofEi) for std::basic_streambuf<char, std::char_traits<char>>::_C_is_eof(int) const
    ios.o(.ARM.exidx) refers to ios.o(t._ZNSt13basic_filebufIcSt11char_traitsIcEE6xsputnEPKcl) for t._ZNSt13basic_filebufIcSt11char_traitsIcEE6xsputnEPKcl
    ios.o(.ARM.exidx) refers to unwind_pr0.o(.text) for __aeabi_unwind_cpp_pr0
    ios.o(.ARM.exidx) refers to ios.o(t._ZNSt15basic_streambufIwSt11char_traitsIwEE5sputcEw) for t._ZNSt15basic_streambufIwSt11char_traitsIwEE5sputcEw
    ios.o(t._ZN4__rw23__rw_create_named_facetISt7codecvtIwcSt11__mbstate_tEEEPT_S5_PKcj) refers to new.o(i._Znwj) for operator new(unsigned)
    ios.o(t._ZN4__rw23__rw_create_named_facetISt7codecvtIwcSt11__mbstate_tEEEPT_S5_PKcj) refers to ios.o(i._ZNSt7codecvtIwcSt11__mbstate_tEC1Ej) for std::codecvt<wchar_t, char, std::__mbstate_t>::codecvt(unsigned)
    ios.o(t._ZN4__rw23__rw_create_named_facetISt7codecvtIwcSt11__mbstate_tEEEPT_S5_PKcj.clean) refers to delete.o(i._ZdlPv) for operator delete (void*)
    ios.o(t._ZN4__rw23__rw_create_named_facetISt7codecvtIwcSt11__mbstate_tEEEPT_S5_PKcj.clean) refers to arm_exceptions_cleanup.o(.emb_text) for __cxa_end_cleanup
    ios.o(.ARM.extab) refers to ios.o(t._ZN4__rw23__rw_create_named_facetISt7codecvtIwcSt11__mbstate_tEEEPT_S5_PKcj.clean) for t._ZN4__rw23__rw_create_named_facetISt7codecvtIwcSt11__mbstate_tEEEPT_S5_PKcj.clean
    ios.o(.ARM.exidx) refers to ios.o(t._ZN4__rw23__rw_create_named_facetISt7codecvtIwcSt11__mbstate_tEEEPT_S5_PKcj) for t._ZN4__rw23__rw_create_named_facetISt7codecvtIwcSt11__mbstate_tEEEPT_S5_PKcj
    ios.o(.ARM.exidx) refers to unwind_pr0.o(.text) for __aeabi_unwind_cpp_pr0
    ios.o(.ARM.exidx) refers to ios.o(.ARM.extab) for .extab._ZN4__rw23__rw_create_named_facetISt7codecvtIwcSt11__mbstate_tEEEPT_S5_PKcj
    ios.o(.ARM.exidx) refers to ios.o(t._ZN4__rw23__rw_create_named_facetISt7codecvtIwcSt11__mbstate_tEEEPT_S5_PKcj.clean) for t._ZN4__rw23__rw_create_named_facetISt7codecvtIwcSt11__mbstate_tEEEPT_S5_PKcj.clean
    ios.o(t._ZNSt13basic_filebufIwSt11char_traitsIwEE10_C_unshiftEv) refers to ios.o(t._ZSt9use_facetISt7codecvtIwcSt11__mbstate_tEERKT_RKSt6locale) for const T1& std::use_facet<std::codecvt<wchar_t, char, std::__mbstate_t>>(const std::locale&)
    ios.o(t._ZNSt13basic_filebufIwSt11char_traitsIwEE10_C_unshiftEv) refers to ios.o(i._ZNKSt7codecvtIwcSt11__mbstate_tE8encodingEv) for std::codecvt<wchar_t, char, std::__mbstate_t>::encoding() const
    ios.o(t._ZNSt13basic_filebufIwSt11char_traitsIwEE10_C_unshiftEv) refers to mbsinit.o(.text) for mbsinit
    ios.o(t._ZNSt13basic_filebufIwSt11char_traitsIwEE10_C_unshiftEv) refers to ios.o(i._ZN4__rw11__rw_file_t8_C_writeEPKvjj) for __rw::__rw_file_t::_C_write(const void*, unsigned, unsigned)
    ios.o(.ARM.exidx) refers to ios.o(t._ZNSt13basic_filebufIwSt11char_traitsIwEE10_C_unshiftEv) for t._ZNSt13basic_filebufIwSt11char_traitsIwEE10_C_unshiftEv
    ios.o(.ARM.exidx) refers to unwind_pr0.o(.text) for __aeabi_unwind_cpp_pr0
    ios.o(t._ZNSt13basic_filebufIwSt11char_traitsIwEED1Ev) refers to ios.o(t._ZNSt13basic_filebufIwSt11char_traitsIwEE5closeEv) for std::basic_filebuf<wchar_t, std::char_traits<wchar_t>>::close()
    ios.o(t._ZNSt13basic_filebufIwSt11char_traitsIwEED1Ev) refers to array_del.o(i._ZdaPv) for operator delete[] (void*)
    ios.o(t._ZNSt13basic_filebufIwSt11char_traitsIwEED1Ev) refers to ios.o(t._ZNSt15basic_streambufIwSt11char_traitsIwEED1Ev) for std::basic_streambuf<wchar_t, std::char_traits<wchar_t>>::~basic_streambuf()
    ios.o(t._ZNSt13basic_filebufIwSt11char_traitsIwEED1Ev) refers to ios.o(.constdata__ZTVSt13basic_filebufIwSt11char_traitsIwEE) for vtable for std::basic_filebuf<wchar_t, std::char_traits<wchar_t>>
    ios.o(t._ZNSt13basic_filebufIwSt11char_traitsIwEED1Ev.clean) refers to ios.o(t._ZNSt15basic_streambufIwSt11char_traitsIwEED1Ev) for std::basic_streambuf<wchar_t, std::char_traits<wchar_t>>::~basic_streambuf()
    ios.o(t._ZNSt13basic_filebufIwSt11char_traitsIwEED1Ev.clean) refers to arm_exceptions_cleanup.o(.emb_text) for __cxa_end_cleanup
    ios.o(.ARM.extab) refers to arm_callunex_noexceptions.o(.text) for __cxa_call_unexpected
    ios.o(.ARM.extab) refers to arm_exceptions_callterm.o(.text) for __cxa_call_terminate
    ios.o(.ARM.extab) refers to ios.o(t._ZNSt13basic_filebufIwSt11char_traitsIwEED1Ev.clean) for t._ZNSt13basic_filebufIwSt11char_traitsIwEED1Ev.clean
    ios.o(.ARM.extab) refers to char.o(i.__ARM_common_noexcept_landing) for __ARM_common_noexcept_landing
    ios.o(.ARM.exidx) refers to ios.o(t._ZNSt13basic_filebufIwSt11char_traitsIwEED1Ev) for t._ZNSt13basic_filebufIwSt11char_traitsIwEED1Ev
    ios.o(.ARM.exidx) refers to unwind_pr0.o(.text) for __aeabi_unwind_cpp_pr0
    ios.o(.ARM.exidx) refers to ios.o(.ARM.extab) for .extab._ZNSt13basic_filebufIwSt11char_traitsIwEED1Ev
    ios.o(.ARM.exidx) refers to ios.o(t._ZNSt13basic_filebufIwSt11char_traitsIwEED1Ev.clean) for t._ZNSt13basic_filebufIwSt11char_traitsIwEED1Ev.clean
    ios.o(t._ZNSt13basic_filebufIwSt11char_traitsIwEE9showmanycEv) refers to ios.o(t._ZNKSt13basic_filebufIwSt11char_traitsIwEE7is_openEv) for std::basic_filebuf<wchar_t, std::char_traits<wchar_t>>::is_open() const
    ios.o(t._ZNSt13basic_filebufIwSt11char_traitsIwEE9showmanycEv) refers to ios.o(t._ZNSt4fposISt11__mbstate_tEC1El) for std::fpos<std::__mbstate_t>::fpos(long)
    ios.o(t._ZNSt13basic_filebufIwSt11char_traitsIwEE9showmanycEv) refers to ios.o(t._ZNKSt4fposISt11__mbstate_tEeqERKS1_) for std::fpos<std::__mbstate_t>::operator ==(const std::fpos<std::__mbstate_t>&) const
    ios.o(t._ZNSt13basic_filebufIwSt11char_traitsIwEE9showmanycEv) refers to ios.o(t._ZNSt13basic_filebufIwSt11char_traitsIwEE12_C_file_seekEli) for std::basic_filebuf<wchar_t, std::char_traits<wchar_t>>::_C_file_seek(long, int)
    ios.o(t._ZNSt13basic_filebufIwSt11char_traitsIwEE9showmanycEv) refers to ios.o(t._ZNKSt4fposISt11__mbstate_tEneERKS1_) for std::fpos<std::__mbstate_t>::operator !=(const std::fpos<std::__mbstate_t>&) const
    ios.o(t._ZNSt13basic_filebufIwSt11char_traitsIwEE9showmanycEv) refers to ios.o(t._ZSt9use_facetISt7codecvtIwcSt11__mbstate_tEERKT_RKSt6locale) for const T1& std::use_facet<std::codecvt<wchar_t, char, std::__mbstate_t>>(const std::locale&)
    ios.o(t._ZNSt13basic_filebufIwSt11char_traitsIwEE9showmanycEv) refers to ios.o(i._ZNKSt7codecvtIwcSt11__mbstate_tE13always_noconvEv) for std::codecvt<wchar_t, char, std::__mbstate_t>::always_noconv() const
    ios.o(t._ZNSt13basic_filebufIwSt11char_traitsIwEE9showmanycEv) refers to ios.o(t._ZNKSt4fposISt11__mbstate_tEmiERKS1_) for std::fpos<std::__mbstate_t>::operator -(const std::fpos<std::__mbstate_t>&) const
    ios.o(t._ZNSt13basic_filebufIwSt11char_traitsIwEE9showmanycEv) refers to ios.o(i._ZNKSt7codecvtIwcSt11__mbstate_tE10max_lengthEv) for std::codecvt<wchar_t, char, std::__mbstate_t>::max_length() const
    ios.o(.ARM.exidx) refers to ios.o(t._ZNSt13basic_filebufIwSt11char_traitsIwEE9showmanycEv) for t._ZNSt13basic_filebufIwSt11char_traitsIwEE9showmanycEv
    ios.o(.ARM.exidx) refers to unwind_pr0.o(.text) for __aeabi_unwind_cpp_pr0
    ios.o(t._ZNSt13basic_filebufIwSt11char_traitsIwEE9underflowEv) refers to ios.o(t._ZNSt15basic_streambufIwSt11char_traitsIwEE11_C_out_lastEb) for std::basic_streambuf<wchar_t, std::char_traits<wchar_t>>::_C_out_last(bool)
    ios.o(t._ZNSt13basic_filebufIwSt11char_traitsIwEE9underflowEv) refers to ios.o(t._ZNKSt13basic_filebufIwSt11char_traitsIwEE7is_openEv) for std::basic_filebuf<wchar_t, std::char_traits<wchar_t>>::is_open() const
    ios.o(t._ZNSt13basic_filebufIwSt11char_traitsIwEE9underflowEv) refers to ios.o(t._ZNKSt15basic_streambufIwSt11char_traitsIwEE16_C_putback_availEv) for std::basic_streambuf<wchar_t, std::char_traits<wchar_t>>::_C_putback_avail() const
    ios.o(t._ZNSt13basic_filebufIwSt11char_traitsIwEE9underflowEv) refers to ios.o(t._ZSt3minIlERKT_S2_S2_) for const T1& std::min<long>(const T1&, const T1&)
    ios.o(t._ZNSt13basic_filebufIwSt11char_traitsIwEE9underflowEv) refers to ios.o(i._ZNSt11char_traitsIwE4moveEPwPKwj) for std::char_traits<wchar_t>::move(wchar_t*, const wchar_t*, unsigned)
    ios.o(t._ZNSt13basic_filebufIwSt11char_traitsIwEE9underflowEv) refers to ios.o(t._ZNSt4fposISt11__mbstate_tEaSERKS1_) for std::fpos<std::__mbstate_t>::operator =(const std::fpos<std::__mbstate_t>&)
    ios.o(t._ZNSt13basic_filebufIwSt11char_traitsIwEE9underflowEv) refers to ios.o(t._ZSt9use_facetISt7codecvtIwcSt11__mbstate_tEERKT_RKSt6locale) for const T1& std::use_facet<std::codecvt<wchar_t, char, std::__mbstate_t>>(const std::locale&)
    ios.o(t._ZNSt13basic_filebufIwSt11char_traitsIwEE9underflowEv) refers to ios.o(i._ZNKSt7codecvtIwcSt11__mbstate_tE13always_noconvEv) for std::codecvt<wchar_t, char, std::__mbstate_t>::always_noconv() const
    ios.o(t._ZNSt13basic_filebufIwSt11char_traitsIwEE9underflowEv) refers to ios.o(i._ZN4__rw11__rw_file_t7_C_readEPvjj) for __rw::__rw_file_t::_C_read(void*, unsigned, unsigned)
    ios.o(t._ZNSt13basic_filebufIwSt11char_traitsIwEE9underflowEv) refers to ios.o(t._ZSt3minIiERKT_S2_S2_) for const T1& std::min<int>(const T1&, const T1&)
    ios.o(t._ZNSt13basic_filebufIwSt11char_traitsIwEE9underflowEv) refers to rt_memmove_v6.o(.text) for __aeabi_memmove
    ios.o(.ARM.exidx) refers to ios.o(t._ZNSt13basic_filebufIwSt11char_traitsIwEE9underflowEv) for t._ZNSt13basic_filebufIwSt11char_traitsIwEE9underflowEv
    ios.o(.ARM.exidx) refers to unwind_pr0.o(.text) for __aeabi_unwind_cpp_pr0
    ios.o(t._ZNSt13basic_filebufIwSt11char_traitsIwEE5uflowEv) refers to ios.o(t._ZNKSt15basic_streambufIwSt11char_traitsIwEE9_C_is_eofEi) for std::basic_streambuf<wchar_t, std::char_traits<wchar_t>>::_C_is_eof(int) const
    ios.o(.ARM.exidx) refers to ios.o(t._ZNSt13basic_filebufIwSt11char_traitsIwEE5uflowEv) for t._ZNSt13basic_filebufIwSt11char_traitsIwEE5uflowEv
    ios.o(.ARM.exidx) refers to unwind_pr0.o(.text) for __aeabi_unwind_cpp_pr0
    ios.o(t._ZNSt13basic_filebufIwSt11char_traitsIwEE8overflowEi) refers to ios.o(t._ZNKSt13basic_filebufIwSt11char_traitsIwEE7is_openEv) for std::basic_filebuf<wchar_t, std::char_traits<wchar_t>>::is_open() const
    ios.o(t._ZNSt13basic_filebufIwSt11char_traitsIwEE8overflowEi) refers to ios.o(t._ZNKSt15basic_streambufIwSt11char_traitsIwEE9_C_is_eofEi) for std::basic_streambuf<wchar_t, std::char_traits<wchar_t>>::_C_is_eof(int) const
    ios.o(t._ZNSt13basic_filebufIwSt11char_traitsIwEE8overflowEi) refers to ios.o(t._ZNSt13basic_filebufIwSt11char_traitsIwEE12_C_file_seekEli) for std::basic_filebuf<wchar_t, std::char_traits<wchar_t>>::_C_file_seek(long, int)
    ios.o(t._ZNSt13basic_filebufIwSt11char_traitsIwEE8overflowEi) refers to ios.o(t._ZNSt4fposISt11__mbstate_tEaSERKS1_) for std::fpos<std::__mbstate_t>::operator =(const std::fpos<std::__mbstate_t>&)
    ios.o(t._ZNSt13basic_filebufIwSt11char_traitsIwEE8overflowEi) refers to ios.o(t._ZSt9use_facetISt7codecvtIwcSt11__mbstate_tEERKT_RKSt6locale) for const T1& std::use_facet<std::codecvt<wchar_t, char, std::__mbstate_t>>(const std::locale&)
    ios.o(t._ZNSt13basic_filebufIwSt11char_traitsIwEE8overflowEi) refers to ios.o(i._ZNKSt7codecvtIwcSt11__mbstate_tE13always_noconvEv) for std::codecvt<wchar_t, char, std::__mbstate_t>::always_noconv() const
    ios.o(t._ZNSt13basic_filebufIwSt11char_traitsIwEE8overflowEi) refers to ios.o(i._ZN4__rw11__rw_file_t8_C_writeEPKvjj) for __rw::__rw_file_t::_C_write(const void*, unsigned, unsigned)
    ios.o(t._ZNSt13basic_filebufIwSt11char_traitsIwEE8overflowEi) refers to ios.o(i._ZNKSt7codecvtIwcSt11__mbstate_tE3outERS0_PKwS4_RS4_PcS6_RS6_) for std::codecvt<wchar_t, char, std::__mbstate_t>::out(std::__mbstate_t&, const wchar_t*, const wchar_t*, const wchar_t*&, char*, char*, char*&) const
    ios.o(t._ZNSt13basic_filebufIwSt11char_traitsIwEE8overflowEi) refers to ios.o(t._ZNSt15basic_streambufIwSt11char_traitsIwEE5sputcEw) for std::basic_streambuf<wchar_t, std::char_traits<wchar_t>>::sputc(wchar_t)
    ios.o(t._ZNSt13basic_filebufIwSt11char_traitsIwEE8overflowEi) refers to ios.o(t._ZNSt15basic_streambufIwSt11char_traitsIwEE11_C_out_lastEb) for std::basic_streambuf<wchar_t, std::char_traits<wchar_t>>::_C_out_last(bool)
    ios.o(t._ZNSt13basic_filebufIwSt11char_traitsIwEE8overflowEi) refers to ios.o(i._ZNSt11char_traitsIwE7not_eofERKi) for std::char_traits<wchar_t>::not_eof(const int&)
    ios.o(.ARM.exidx) refers to ios.o(t._ZNSt13basic_filebufIwSt11char_traitsIwEE8overflowEi) for t._ZNSt13basic_filebufIwSt11char_traitsIwEE8overflowEi
    ios.o(.ARM.exidx) refers to unwind_pr0.o(.text) for __aeabi_unwind_cpp_pr0
    ios.o(t._ZNSt13basic_filebufIwSt11char_traitsIwEE9pbackfailEi) refers to ios.o(t._ZNKSt13basic_filebufIwSt11char_traitsIwEE7is_openEv) for std::basic_filebuf<wchar_t, std::char_traits<wchar_t>>::is_open() const
    ios.o(t._ZNSt13basic_filebufIwSt11char_traitsIwEE9pbackfailEi) refers to ios.o(t._ZNKSt15basic_streambufIwSt11char_traitsIwEE16_C_putback_availEv) for std::basic_streambuf<wchar_t, std::char_traits<wchar_t>>::_C_putback_avail() const
    ios.o(t._ZNSt13basic_filebufIwSt11char_traitsIwEE9pbackfailEi) refers to ios.o(t._ZNSt4fposISt11__mbstate_tEC1El) for std::fpos<std::__mbstate_t>::fpos(long)
    ios.o(t._ZNSt13basic_filebufIwSt11char_traitsIwEE9pbackfailEi) refers to ios.o(t._ZNKSt4fposISt11__mbstate_tEeqERKS1_) for std::fpos<std::__mbstate_t>::operator ==(const std::fpos<std::__mbstate_t>&) const
    ios.o(t._ZNSt13basic_filebufIwSt11char_traitsIwEE9pbackfailEi) refers to ios.o(t._ZNKSt15basic_streambufIwSt11char_traitsIwEE9_C_is_eofEi) for std::basic_streambuf<wchar_t, std::char_traits<wchar_t>>::_C_is_eof(int) const
    ios.o(t._ZNSt13basic_filebufIwSt11char_traitsIwEE9pbackfailEi) refers to ios.o(i._ZNSt11char_traitsIwE7not_eofERKi) for std::char_traits<wchar_t>::not_eof(const int&)
    ios.o(.ARM.exidx) refers to ios.o(t._ZNSt13basic_filebufIwSt11char_traitsIwEE9pbackfailEi) for t._ZNSt13basic_filebufIwSt11char_traitsIwEE9pbackfailEi
    ios.o(.ARM.exidx) refers to unwind_pr0.o(.text) for __aeabi_unwind_cpp_pr0
    ios.o(t._ZNSt13basic_filebufIwSt11char_traitsIwEE7seekoffElNSt8ios_base10_C_seekdirEi) refers to ios.o(t._ZNKSt13basic_filebufIwSt11char_traitsIwEE7is_openEv) for std::basic_filebuf<wchar_t, std::char_traits<wchar_t>>::is_open() const
    ios.o(t._ZNSt13basic_filebufIwSt11char_traitsIwEE7seekoffElNSt8ios_base10_C_seekdirEi) refers to ios.o(t._ZSt9use_facetISt7codecvtIwcSt11__mbstate_tEERKT_RKSt6locale) for const T1& std::use_facet<std::codecvt<wchar_t, char, std::__mbstate_t>>(const std::locale&)
    ios.o(t._ZNSt13basic_filebufIwSt11char_traitsIwEE7seekoffElNSt8ios_base10_C_seekdirEi) refers to ios.o(i._ZNKSt7codecvtIwcSt11__mbstate_tE8encodingEv) for std::codecvt<wchar_t, char, std::__mbstate_t>::encoding() const
    ios.o(t._ZNSt13basic_filebufIwSt11char_traitsIwEE7seekoffElNSt8ios_base10_C_seekdirEi) refers to ios.o(t._ZNSt4fposISt11__mbstate_tEC1El) for std::fpos<std::__mbstate_t>::fpos(long)
    ios.o(t._ZNSt13basic_filebufIwSt11char_traitsIwEE7seekoffElNSt8ios_base10_C_seekdirEi) refers to ios.o(t._ZNSt13basic_filebufIwSt11char_traitsIwEE10_C_unshiftEv) for std::basic_filebuf<wchar_t, std::char_traits<wchar_t>>::_C_unshift()
    ios.o(t._ZNSt13basic_filebufIwSt11char_traitsIwEE7seekoffElNSt8ios_base10_C_seekdirEi) refers to ios.o(t._ZNSt13basic_filebufIwSt11char_traitsIwEE12_C_file_seekEli) for std::basic_filebuf<wchar_t, std::char_traits<wchar_t>>::_C_file_seek(long, int)
    ios.o(t._ZNSt13basic_filebufIwSt11char_traitsIwEE7seekoffElNSt8ios_base10_C_seekdirEi) refers to ios.o(t._ZNSt4fposISt11__mbstate_tEaSERKS1_) for std::fpos<std::__mbstate_t>::operator =(const std::fpos<std::__mbstate_t>&)
    ios.o(t._ZNSt13basic_filebufIwSt11char_traitsIwEE7seekoffElNSt8ios_base10_C_seekdirEi) refers to ios.o(t._ZNKSt4fposISt11__mbstate_tEneERKS1_) for std::fpos<std::__mbstate_t>::operator !=(const std::fpos<std::__mbstate_t>&) const
    ios.o(t._ZNSt13basic_filebufIwSt11char_traitsIwEE7seekoffElNSt8ios_base10_C_seekdirEi) refers to ios.o(t._ZNSt15basic_streambufIwSt11char_traitsIwEE11_C_out_lastEb) for std::basic_streambuf<wchar_t, std::char_traits<wchar_t>>::_C_out_last(bool)
    ios.o(t._ZNSt13basic_filebufIwSt11char_traitsIwEE7seekoffElNSt8ios_base10_C_seekdirEi) refers to ios.o(t._ZNSt4fposISt11__mbstate_tEC1ERKS1_) for std::fpos<std::__mbstate_t>::fpos(const std::fpos<std::__mbstate_t>&)
    ios.o(.ARM.exidx) refers to ios.o(t._ZNSt13basic_filebufIwSt11char_traitsIwEE7seekoffElNSt8ios_base10_C_seekdirEi) for t._ZNSt13basic_filebufIwSt11char_traitsIwEE7seekoffElNSt8ios_base10_C_seekdirEi
    ios.o(.ARM.exidx) refers to unwind_pr0.o(.text) for __aeabi_unwind_cpp_pr0
    ios.o(t._ZNSt13basic_filebufIwSt11char_traitsIwEE7seekposESt4fposISt11__mbstate_tEi) refers to ios.o(t._ZNKSt13basic_filebufIwSt11char_traitsIwEE7is_openEv) for std::basic_filebuf<wchar_t, std::char_traits<wchar_t>>::is_open() const
    ios.o(t._ZNSt13basic_filebufIwSt11char_traitsIwEE7seekposESt4fposISt11__mbstate_tEi) refers to ios.o(t._ZNKSt15basic_streambufIwSt11char_traitsIwEE9_C_is_eofEi) for std::basic_streambuf<wchar_t, std::char_traits<wchar_t>>::_C_is_eof(int) const
    ios.o(t._ZNSt13basic_filebufIwSt11char_traitsIwEE7seekposESt4fposISt11__mbstate_tEi) refers to ios.o(t._ZNSt4fposISt11__mbstate_tEC1El) for std::fpos<std::__mbstate_t>::fpos(long)
    ios.o(t._ZNSt13basic_filebufIwSt11char_traitsIwEE7seekposESt4fposISt11__mbstate_tEi) refers to ios.o(t._ZNSt13basic_filebufIwSt11char_traitsIwEE12_C_file_seekEli) for std::basic_filebuf<wchar_t, std::char_traits<wchar_t>>::_C_file_seek(long, int)
    ios.o(t._ZNSt13basic_filebufIwSt11char_traitsIwEE7seekposESt4fposISt11__mbstate_tEi) refers to ios.o(t._ZNKSt4fposISt11__mbstate_tEeqERKS1_) for std::fpos<std::__mbstate_t>::operator ==(const std::fpos<std::__mbstate_t>&) const
    ios.o(t._ZNSt13basic_filebufIwSt11char_traitsIwEE7seekposESt4fposISt11__mbstate_tEi) refers to ios.o(t._ZNSt4fposISt11__mbstate_tEaSERKS1_) for std::fpos<std::__mbstate_t>::operator =(const std::fpos<std::__mbstate_t>&)
    ios.o(t._ZNSt13basic_filebufIwSt11char_traitsIwEE7seekposESt4fposISt11__mbstate_tEi) refers to ios.o(t._ZNSt15basic_streambufIwSt11char_traitsIwEE11_C_out_lastEb) for std::basic_streambuf<wchar_t, std::char_traits<wchar_t>>::_C_out_last(bool)
    ios.o(t._ZNSt13basic_filebufIwSt11char_traitsIwEE7seekposESt4fposISt11__mbstate_tEi) refers to ios.o(t._ZNSt4fposISt11__mbstate_tEC1ERKS1_) for std::fpos<std::__mbstate_t>::fpos(const std::fpos<std::__mbstate_t>&)
    ios.o(.ARM.exidx) refers to ios.o(t._ZNSt13basic_filebufIwSt11char_traitsIwEE7seekposESt4fposISt11__mbstate_tEi) for t._ZNSt13basic_filebufIwSt11char_traitsIwEE7seekposESt4fposISt11__mbstate_tEi
    ios.o(.ARM.exidx) refers to unwind_pr0.o(.text) for __aeabi_unwind_cpp_pr0
    ios.o(t._ZNSt13basic_filebufIwSt11char_traitsIwEE4syncEv) refers to ios.o(t._ZNKSt15basic_streambufIwSt11char_traitsIwEE9_C_is_eofEi) for std::basic_streambuf<wchar_t, std::char_traits<wchar_t>>::_C_is_eof(int) const
    ios.o(t._ZNSt13basic_filebufIwSt11char_traitsIwEE4syncEv) refers to ios.o(t._ZSt9use_facetISt7codecvtIwcSt11__mbstate_tEERKT_RKSt6locale) for const T1& std::use_facet<std::codecvt<wchar_t, char, std::__mbstate_t>>(const std::locale&)
    ios.o(t._ZNSt13basic_filebufIwSt11char_traitsIwEE4syncEv) refers to ios.o(i._ZNKSt7codecvtIwcSt11__mbstate_tE8encodingEv) for std::codecvt<wchar_t, char, std::__mbstate_t>::encoding() const
    ios.o(t._ZNSt13basic_filebufIwSt11char_traitsIwEE4syncEv) refers to ios.o(t._ZNSt4fposISt11__mbstate_tEaSERKS1_) for std::fpos<std::__mbstate_t>::operator =(const std::fpos<std::__mbstate_t>&)
    ios.o(t._ZNSt13basic_filebufIwSt11char_traitsIwEE4syncEv) refers to ios.o(i._ZNKSt7codecvtIwcSt11__mbstate_tE3outERS0_PKwS4_RS4_PcS6_RS6_) for std::codecvt<wchar_t, char, std::__mbstate_t>::out(std::__mbstate_t&, const wchar_t*, const wchar_t*, const wchar_t*&, char*, char*, char*&) const
    ios.o(t._ZNSt13basic_filebufIwSt11char_traitsIwEE4syncEv) refers to ios.o(t._ZNKSt4fposISt11__mbstate_tEplEl) for std::fpos<std::__mbstate_t>::operator +(long) const
    ios.o(t._ZNSt13basic_filebufIwSt11char_traitsIwEE4syncEv) refers to ios.o(t._ZNSt4fposISt11__mbstate_tEC1El) for std::fpos<std::__mbstate_t>::fpos(long)
    ios.o(t._ZNSt13basic_filebufIwSt11char_traitsIwEE4syncEv) refers to ios.o(t._ZNSt13basic_filebufIwSt11char_traitsIwEE12_C_file_seekEli) for std::basic_filebuf<wchar_t, std::char_traits<wchar_t>>::_C_file_seek(long, int)
    ios.o(t._ZNSt13basic_filebufIwSt11char_traitsIwEE4syncEv) refers to ios.o(t._ZNKSt4fposISt11__mbstate_tEeqERKS1_) for std::fpos<std::__mbstate_t>::operator ==(const std::fpos<std::__mbstate_t>&) const
    ios.o(t._ZNSt13basic_filebufIwSt11char_traitsIwEE4syncEv) refers to ios.o(i._ZNSt11char_traitsIwE4moveEPwPKwj) for std::char_traits<wchar_t>::move(wchar_t*, const wchar_t*, unsigned)
    ios.o(.ARM.exidx) refers to ios.o(t._ZNSt13basic_filebufIwSt11char_traitsIwEE4syncEv) for t._ZNSt13basic_filebufIwSt11char_traitsIwEE4syncEv
    ios.o(.ARM.exidx) refers to unwind_pr0.o(.text) for __aeabi_unwind_cpp_pr0
    ios.o(t._ZNSt13basic_filebufIwSt11char_traitsIwEE6xsputnEPKwl) refers to ios.o(i._ZNSt11char_traitsIwE4copyEPwPKwj) for std::char_traits<wchar_t>::copy(wchar_t*, const wchar_t*, unsigned)
    ios.o(t._ZNSt13basic_filebufIwSt11char_traitsIwEE6xsputnEPKwl) refers to ios.o(t._ZNSt15basic_streambufIwSt11char_traitsIwEE5sputcEw) for std::basic_streambuf<wchar_t, std::char_traits<wchar_t>>::sputc(wchar_t)
    ios.o(t._ZNSt13basic_filebufIwSt11char_traitsIwEE6xsputnEPKwl) refers to ios.o(t._ZNKSt15basic_streambufIwSt11char_traitsIwEE9_C_is_eofEi) for std::basic_streambuf<wchar_t, std::char_traits<wchar_t>>::_C_is_eof(int) const
    ios.o(.ARM.exidx) refers to ios.o(t._ZNSt13basic_filebufIwSt11char_traitsIwEE6xsputnEPKwl) for t._ZNSt13basic_filebufIwSt11char_traitsIwEE6xsputnEPKwl
    ios.o(.ARM.exidx) refers to unwind_pr0.o(.text) for __aeabi_unwind_cpp_pr0
    ios.o(.ARM.exidx) refers to ios.o(i._ZdlPvS_) for i._ZdlPvS_
    ios.o(i._ZNSt11char_traitsIcE4moveEPcPKcj) refers to rt_memmove_v6.o(.text) for __aeabi_memmove
    ios.o(.ARM.exidx) refers to ios.o(i._ZNSt11char_traitsIcE4moveEPcPKcj) for i._ZNSt11char_traitsIcE4moveEPcPKcj
    ios.o(i._ZNSt11char_traitsIcE7not_eofERKi) refers to ios.o(i._ZNSt11char_traitsIcE11eq_int_typeERKiS2_) for std::char_traits<char>::eq_int_type(const int&, const int&)
    ios.o(.ARM.exidx) refers to ios.o(i._ZNSt11char_traitsIcE7not_eofERKi) for i._ZNSt11char_traitsIcE7not_eofERKi
    ios.o(.ARM.exidx) refers to unwind_pr0.o(.text) for __aeabi_unwind_cpp_pr0
    ios.o(i._ZNSt11char_traitsIwE4copyEPwPKwj) refers to rt_memcpy_v6.o(.text) for __aeabi_memcpy
    ios.o(.ARM.exidx) refers to ios.o(i._ZNSt11char_traitsIwE4copyEPwPKwj) for i._ZNSt11char_traitsIwE4copyEPwPKwj
    ios.o(i._ZNSt11char_traitsIwE4moveEPwPKwj) refers to wmemmove.o(.text) for wmemmove
    ios.o(.ARM.exidx) refers to ios.o(i._ZNSt11char_traitsIwE4moveEPwPKwj) for i._ZNSt11char_traitsIwE4moveEPwPKwj
    ios.o(.ARM.exidx) refers to unwind_pr0.o(.text) for __aeabi_unwind_cpp_pr0
    ios.o(i._ZNSt11char_traitsIwE7not_eofERKi) refers to ios.o(i._ZNSt11char_traitsIwE11eq_int_typeERKiS2_) for std::char_traits<wchar_t>::eq_int_type(const int&, const int&)
    ios.o(.ARM.exidx) refers to ios.o(i._ZNSt11char_traitsIwE7not_eofERKi) for i._ZNSt11char_traitsIwE7not_eofERKi
    ios.o(.ARM.exidx) refers to unwind_pr0.o(.text) for __aeabi_unwind_cpp_pr0
    ios.o(i._ZNSt6localeC1Ev) refers to locale.o(i._ZNSt6locale7_C_initEv) for std::locale::_C_init()
    ios.o(i._ZNSt6localeC1Ev) refers to locale.o(.data) for std::locale::_C_global
    ios.o(.ARM.extab) refers to arm_callunex_noexceptions.o(.text) for __cxa_call_unexpected
    ios.o(.ARM.exidx) refers to ios.o(i._ZNSt6localeC1Ev) for i._ZNSt6localeC1Ev
    ios.o(.ARM.exidx) refers to unwind_pr0.o(.text) for __aeabi_unwind_cpp_pr0
    ios.o(.ARM.exidx) refers to ios.o(.ARM.extab) for .extab._ZNSt6localeC1Ev
    ios.o(.ARM.exidx) refers to ios.o(i._ZNSt6localeC1ERKS_) for i._ZNSt6localeC1ERKS_
    ios.o(i._ZN4__rw15__rw_locale_impD1Ev) refers to array_del.o(i._ZdaPv) for operator delete[] (void*)
    ios.o(i._ZN4__rw15__rw_locale_impD1Ev) refers to ios.o(t._ZN4__rw18__rw_locale_vectorIPNS_15__rw_facet_baseEED1Ev) for __rw::__rw_locale_vector<__rw::__rw_facet_base*>::~__rw_locale_vector()
    ios.o(i._ZN4__rw15__rw_locale_impD1Ev) refers to ios.o(t._ZN4__rw18__rw_locale_vectorISsED1Ev) for __rw::__rw_locale_vector<std::basic_string<char, std::char_traits<char>, std::allocator<char>>>::~__rw_locale_vector()
    ios.o(.ARM.exidx) refers to ios.o(i._ZN4__rw15__rw_locale_impD1Ev) for i._ZN4__rw15__rw_locale_impD1Ev
    ios.o(t._ZN4__rw17__rw_resize_arrayIljEEPT_S2_RT0_i) refers to array_new.o(i._Znaj) for operator new[] (unsigned)
    ios.o(t._ZN4__rw17__rw_resize_arrayIljEEPT_S2_RT0_i) refers to rt_memcpy_w.o(.text) for __aeabi_memcpy4
    ios.o(t._ZN4__rw17__rw_resize_arrayIljEEPT_S2_RT0_i) refers to rt_memclr_w.o(.text) for __aeabi_memclr4
    ios.o(t._ZN4__rw17__rw_resize_arrayIljEEPT_S2_RT0_i) refers to array_del.o(i._ZdaPv) for operator delete[] (void*)
    ios.o(.ARM.extab) refers to ios.o(t._ZN4__rw17__rw_resize_arrayIljEEPT_S2_RT0_i) for t._ZN4__rw17__rw_resize_arrayIljEEPT_S2_RT0_i
    ios.o(.ARM.exidx) refers to ios.o(t._ZN4__rw17__rw_resize_arrayIljEEPT_S2_RT0_i) for t._ZN4__rw17__rw_resize_arrayIljEEPT_S2_RT0_i
    ios.o(.ARM.exidx) refers to unwind_pr0.o(.text) for __aeabi_unwind_cpp_pr0
    ios.o(.ARM.exidx) refers to ios.o(.ARM.extab) for .extab._ZN4__rw17__rw_resize_arrayIljEEPT_S2_RT0_i
    ios.o(t._ZN4__rw17__rw_resize_arrayIPvjEEPT_S3_RT0_i) refers to array_new.o(i._Znaj) for operator new[] (unsigned)
    ios.o(t._ZN4__rw17__rw_resize_arrayIPvjEEPT_S3_RT0_i) refers to rt_memcpy_w.o(.text) for __aeabi_memcpy4
    ios.o(t._ZN4__rw17__rw_resize_arrayIPvjEEPT_S3_RT0_i) refers to rt_memclr_w.o(.text) for __aeabi_memclr4
    ios.o(t._ZN4__rw17__rw_resize_arrayIPvjEEPT_S3_RT0_i) refers to array_del.o(i._ZdaPv) for operator delete[] (void*)
    ios.o(.ARM.extab) refers to ios.o(t._ZN4__rw17__rw_resize_arrayIPvjEEPT_S3_RT0_i) for t._ZN4__rw17__rw_resize_arrayIPvjEEPT_S3_RT0_i
    ios.o(.ARM.exidx) refers to ios.o(t._ZN4__rw17__rw_resize_arrayIPvjEEPT_S3_RT0_i) for t._ZN4__rw17__rw_resize_arrayIPvjEEPT_S3_RT0_i
    ios.o(.ARM.exidx) refers to unwind_pr0.o(.text) for __aeabi_unwind_cpp_pr0
    ios.o(.ARM.exidx) refers to ios.o(.ARM.extab) for .extab._ZN4__rw17__rw_resize_arrayIPvjEEPT_S3_RT0_i
    ios.o(t._ZN4__rw17__rw_resize_arrayINSt8ios_base11_C_event_cbEjEEPT_S4_RT0_i) refers to array_new.o(i._Znaj) for operator new[] (unsigned)
    ios.o(t._ZN4__rw17__rw_resize_arrayINSt8ios_base11_C_event_cbEjEEPT_S4_RT0_i) refers to rt_memcpy_w.o(.text) for __aeabi_memcpy4
    ios.o(t._ZN4__rw17__rw_resize_arrayINSt8ios_base11_C_event_cbEjEEPT_S4_RT0_i) refers to rt_memclr_w.o(.text) for __aeabi_memclr4
    ios.o(t._ZN4__rw17__rw_resize_arrayINSt8ios_base11_C_event_cbEjEEPT_S4_RT0_i) refers to array_del.o(i._ZdaPv) for operator delete[] (void*)
    ios.o(.ARM.extab) refers to ios.o(t._ZN4__rw17__rw_resize_arrayINSt8ios_base11_C_event_cbEjEEPT_S4_RT0_i) for t._ZN4__rw17__rw_resize_arrayINSt8ios_base11_C_event_cbEjEEPT_S4_RT0_i
    ios.o(.ARM.exidx) refers to ios.o(t._ZN4__rw17__rw_resize_arrayINSt8ios_base11_C_event_cbEjEEPT_S4_RT0_i) for t._ZN4__rw17__rw_resize_arrayINSt8ios_base11_C_event_cbEjEEPT_S4_RT0_i
    ios.o(.ARM.exidx) refers to unwind_pr0.o(.text) for __aeabi_unwind_cpp_pr0
    ios.o(.ARM.exidx) refers to ios.o(.ARM.extab) for .extab._ZN4__rw17__rw_resize_arrayINSt8ios_base11_C_event_cbEjEEPT_S4_RT0_i
    ios.o(t._ZSt23return_temporary_bufferINSt8ios_base11_C_event_cbEEvPT_) refers to ios.o(i._ZN4__rw27__rw_reallocate_temp_bufferEPvj) for __rw::__rw_reallocate_temp_buffer(void*, unsigned)
    ios.o(.ARM.exidx) refers to ios.o(t._ZSt23return_temporary_bufferINSt8ios_base11_C_event_cbEEvPT_) for t._ZSt23return_temporary_bufferINSt8ios_base11_C_event_cbEEvPT_
    ios.o(.ARM.exidx) refers to unwind_pr0.o(.text) for __aeabi_unwind_cpp_pr0
    ios.o(i._ZNSt9basic_iosIwSt11char_traitsIwEED1Ev) refers to ios.o(i._ZNSt8ios_baseD1Ev) for std::ios_base::~ios_base()
    ios.o(.ARM.exidx) refers to ios.o(i._ZNSt9basic_iosIwSt11char_traitsIwEED1Ev) for i._ZNSt9basic_iosIwSt11char_traitsIwEED1Ev
    ios.o(i._ZNSt5ctypeIwEC1Ej) refers to ios.o(i._ZNSt6locale5facetC1Eji) for std::locale::facet::facet(unsigned, int)
    ios.o(i._ZNSt5ctypeIwEC1Ej) refers to ios.o(.constdata__ZTVSt5ctypeIwE) for vtable for std::ctype<wchar_t>
    ios.o(i._ZNSt5ctypeIwEC1Ej.clean) refers to arm_exceptions_cleanup.o(.emb_text) for __cxa_end_cleanup
    ios.o(.ARM.exidx) refers to ios.o(i._ZNSt5ctypeIwEC1Ej) for i._ZNSt5ctypeIwEC1Ej
    ios.o(.ARM.exidx) refers to unwind_pr0.o(.text) for __aeabi_unwind_cpp_pr0
    ios.o(.ARM.exidx) refers to ios.o(i._ZNSt5ctypeIwEC1Ej.clean) for i._ZNSt5ctypeIwEC1Ej.clean
    ios.o(t._ZN4__rw16__rw_facet_makerISt5ctypeIwEE13_C_maker_funcEiPKcj) refers to ios.o(t._ZN4__rw23__rw_create_named_facetISt5ctypeIwEEEPT_S4_PKcj) for T1* __rw::__rw_create_named_facet<std::ctype<wchar_t>>(T1*, const char*, unsigned)
    ios.o(t._ZN4__rw16__rw_facet_makerISt5ctypeIwEE13_C_maker_funcEiPKcj) refers to new.o(i._Znwj) for operator new(unsigned)
    ios.o(t._ZN4__rw16__rw_facet_makerISt5ctypeIwEE13_C_maker_funcEiPKcj) refers to ios.o(i._ZNSt5ctypeIwEC1Ej) for std::ctype<wchar_t>::ctype(unsigned)
    ios.o(t._ZN4__rw16__rw_facet_makerISt5ctypeIwEE13_C_maker_funcEiPKcj) refers to ios.o(.constdata__ZZN4__rw24__rw_create_native_facetISt5ctypeIwEEEPT_S4_Es) for T1* __rw::__rw_create_native_facet<std::ctype<wchar_t>>(T1*)::string
    ios.o(t._ZN4__rw16__rw_facet_makerISt5ctypeIwEE13_C_maker_funcEiPKcj.clean) refers to delete.o(i._ZdlPv) for operator delete (void*)
    ios.o(t._ZN4__rw16__rw_facet_makerISt5ctypeIwEE13_C_maker_funcEiPKcj.clean) refers to arm_exceptions_cleanup.o(.emb_text) for __cxa_end_cleanup
    ios.o(.ARM.extab) refers to ios.o(t._ZN4__rw16__rw_facet_makerISt5ctypeIwEE13_C_maker_funcEiPKcj.clean) for t._ZN4__rw16__rw_facet_makerISt5ctypeIwEE13_C_maker_funcEiPKcj.clean
    ios.o(.ARM.exidx) refers to ios.o(t._ZN4__rw16__rw_facet_makerISt5ctypeIwEE13_C_maker_funcEiPKcj) for t._ZN4__rw16__rw_facet_makerISt5ctypeIwEE13_C_maker_funcEiPKcj
    ios.o(.ARM.exidx) refers to unwind_pr0.o(.text) for __aeabi_unwind_cpp_pr0
    ios.o(.ARM.exidx) refers to ios.o(.ARM.extab) for .extab._ZN4__rw16__rw_facet_makerISt5ctypeIwEE13_C_maker_funcEiPKcj
    ios.o(.ARM.exidx) refers to ios.o(t._ZN4__rw16__rw_facet_makerISt5ctypeIwEE13_C_maker_funcEiPKcj.clean) for t._ZN4__rw16__rw_facet_makerISt5ctypeIwEE13_C_maker_funcEiPKcj.clean
    ios.o(t._ZNSt9basic_iosIwSt11char_traitsIwEEC1Ev) refers to ios.o(i._ZNSt8ios_baseC1Ev) for std::ios_base::ios_base()
    ios.o(t._ZNSt9basic_iosIwSt11char_traitsIwEEC1Ev) refers to ios.o(.constdata__ZTVSt9basic_iosIwSt11char_traitsIwEE) for vtable for std::basic_ios<wchar_t, std::char_traits<wchar_t>>
    ios.o(.ARM.exidx) refers to ios.o(t._ZNSt9basic_iosIwSt11char_traitsIwEEC1Ev) for t._ZNSt9basic_iosIwSt11char_traitsIwEEC1Ev
    ios.o(.ARM.exidx) refers to unwind_pr0.o(.text) for __aeabi_unwind_cpp_pr0
    ios.o(t._ZNSt15basic_streambufIwSt11char_traitsIwEED1Ev) refers to ios.o(i._ZNSt6localeD1Ev) for std::locale::~locale()
    ios.o(t._ZNSt15basic_streambufIwSt11char_traitsIwEED1Ev) refers to ios.o(.constdata__ZTVSt15basic_streambufIwSt11char_traitsIwEE) for vtable for std::basic_streambuf<wchar_t, std::char_traits<wchar_t>>
    ios.o(.ARM.exidx) refers to ios.o(t._ZNSt15basic_streambufIwSt11char_traitsIwEED1Ev) for t._ZNSt15basic_streambufIwSt11char_traitsIwEED1Ev
    ios.o(.ARM.exidx) refers to ios.o(t._ZNSt15basic_streambufIwSt11char_traitsIwEE17_C_set_unbufferedEb) for t._ZNSt15basic_streambufIwSt11char_traitsIwEE17_C_set_unbufferedEb
    ios.o(.ARM.exidx) refers to ios.o(t._ZNSt15basic_streambufIwSt11char_traitsIwEE10_C_own_bufEb) for t._ZNSt15basic_streambufIwSt11char_traitsIwEE10_C_own_bufEb
    ios.o(.ARM.exidx) refers to ios.o(t._ZNSt4fposISt11__mbstate_tEC1El) for t._ZNSt4fposISt11__mbstate_tEC1El
    ios.o(i._ZN4__rw11__rw_file_t11_C_get_modeEPSt6__FILE) refers to uartbsp.o(.data) for __stdin
    ios.o(.ARM.exidx) refers to ios.o(i._ZN4__rw11__rw_file_t11_C_get_modeEPSt6__FILE) for i._ZN4__rw11__rw_file_t11_C_get_modeEPSt6__FILE
    ios.o(i._ZNSt9basic_iosIcSt11char_traitsIcEED1Ev) refers to ios.o(i._ZNSt8ios_baseD1Ev) for std::ios_base::~ios_base()
    ios.o(.ARM.exidx) refers to ios.o(i._ZNSt9basic_iosIcSt11char_traitsIcEED1Ev) for i._ZNSt9basic_iosIcSt11char_traitsIcEED1Ev
    ios.o(t._ZN4__rw16__rw_facet_makerISt5ctypeIcEE13_C_maker_funcEiPKcj) refers to new.o(i._Znwj) for operator new(unsigned)
    ios.o(t._ZN4__rw16__rw_facet_makerISt5ctypeIcEE13_C_maker_funcEiPKcj) refers to char.o(i._ZNSt12ctype_bynameIcEC1EPKcj) for std::ctype_byname<char>::ctype_byname(const char*, unsigned)
    ios.o(t._ZN4__rw16__rw_facet_makerISt5ctypeIcEE13_C_maker_funcEiPKcj) refers to char.o(i._ZNSt5ctypeIcEC1EPKNSt10ctype_base4maskEbj) for std::ctype<char>::ctype(const std::ctype_base::mask*, bool, unsigned)
    ios.o(t._ZN4__rw16__rw_facet_makerISt5ctypeIcEE13_C_maker_funcEiPKcj.clean) refers to delete.o(i._ZdlPv) for operator delete (void*)
    ios.o(t._ZN4__rw16__rw_facet_makerISt5ctypeIcEE13_C_maker_funcEiPKcj.clean) refers to arm_exceptions_cleanup.o(.emb_text) for __cxa_end_cleanup
    ios.o(.ARM.extab) refers to ios.o(t._ZN4__rw16__rw_facet_makerISt5ctypeIcEE13_C_maker_funcEiPKcj.clean) for t._ZN4__rw16__rw_facet_makerISt5ctypeIcEE13_C_maker_funcEiPKcj.clean
    ios.o(.ARM.exidx) refers to ios.o(t._ZN4__rw16__rw_facet_makerISt5ctypeIcEE13_C_maker_funcEiPKcj) for t._ZN4__rw16__rw_facet_makerISt5ctypeIcEE13_C_maker_funcEiPKcj
    ios.o(.ARM.exidx) refers to unwind_pr0.o(.text) for __aeabi_unwind_cpp_pr0
    ios.o(.ARM.exidx) refers to ios.o(.ARM.extab) for .extab._ZN4__rw16__rw_facet_makerISt5ctypeIcEE13_C_maker_funcEiPKcj
    ios.o(.ARM.exidx) refers to ios.o(t._ZN4__rw16__rw_facet_makerISt5ctypeIcEE13_C_maker_funcEiPKcj.clean) for t._ZN4__rw16__rw_facet_makerISt5ctypeIcEE13_C_maker_funcEiPKcj.clean
    ios.o(t._ZNSt9basic_iosIcSt11char_traitsIcEEC1Ev) refers to ios.o(i._ZNSt8ios_baseC1Ev) for std::ios_base::ios_base()
    ios.o(t._ZNSt9basic_iosIcSt11char_traitsIcEEC1Ev) refers to ios.o(.constdata__ZTVSt9basic_iosIcSt11char_traitsIcEE) for vtable for std::basic_ios<char, std::char_traits<char>>
    ios.o(.ARM.exidx) refers to ios.o(t._ZNSt9basic_iosIcSt11char_traitsIcEEC1Ev) for t._ZNSt9basic_iosIcSt11char_traitsIcEEC1Ev
    ios.o(.ARM.exidx) refers to unwind_pr0.o(.text) for __aeabi_unwind_cpp_pr0
    ios.o(t._ZNSt15basic_streambufIcSt11char_traitsIcEED1Ev) refers to ios.o(i._ZNSt6localeD1Ev) for std::locale::~locale()
    ios.o(t._ZNSt15basic_streambufIcSt11char_traitsIcEED1Ev) refers to ios.o(.constdata__ZTVSt15basic_streambufIcSt11char_traitsIcEE) for vtable for std::basic_streambuf<char, std::char_traits<char>>
    ios.o(.ARM.exidx) refers to ios.o(t._ZNSt15basic_streambufIcSt11char_traitsIcEED1Ev) for t._ZNSt15basic_streambufIcSt11char_traitsIcEED1Ev
    ios.o(.ARM.exidx) refers to ios.o(t._ZNSt15basic_streambufIcSt11char_traitsIcEE17_C_set_unbufferedEb) for t._ZNSt15basic_streambufIcSt11char_traitsIcEE17_C_set_unbufferedEb
    ios.o(.ARM.exidx) refers to ios.o(t._ZNSt15basic_streambufIcSt11char_traitsIcEE10_C_own_bufEb) for t._ZNSt15basic_streambufIcSt11char_traitsIcEE10_C_own_bufEb
    ios.o(.ARM.exidx) refers to ios.o(t._ZNSt15basic_streambufIwSt11char_traitsIwEE9pubsetbufEPwl) for t._ZNSt15basic_streambufIwSt11char_traitsIwEE9pubsetbufEPwl
    ios.o(.ARM.exidx) refers to ios.o(t._ZNSt15basic_streambufIcSt11char_traitsIcEE9pubsetbufEPcl) for t._ZNSt15basic_streambufIcSt11char_traitsIcEE9pubsetbufEPcl
    ios.o(i._ZNSt7codecvtIccSt11__mbstate_tEC1Ej) refers to ios.o(i._ZNSt6locale5facetC1Eji) for std::locale::facet::facet(unsigned, int)
    ios.o(i._ZNSt7codecvtIccSt11__mbstate_tEC1Ej) refers to ios.o(.constdata__ZTVSt7codecvtIccSt11__mbstate_tE) for vtable for std::codecvt<char, char, std::__mbstate_t>
    ios.o(.ARM.exidx) refers to ios.o(i._ZNSt7codecvtIccSt11__mbstate_tEC1Ej) for i._ZNSt7codecvtIccSt11__mbstate_tEC1Ej
    ios.o(.ARM.exidx) refers to unwind_pr0.o(.text) for __aeabi_unwind_cpp_pr0
    ios.o(.ARM.exidx) refers to ios.o(i._ZNKSt7codecvtIccSt11__mbstate_tE3outERS0_PKcS4_RS4_PcS6_RS6_) for i._ZNKSt7codecvtIccSt11__mbstate_tE3outERS0_PKcS4_RS4_PcS6_RS6_
    ios.o(.ARM.exidx) refers to unwind_pr0.o(.text) for __aeabi_unwind_cpp_pr0
    ios.o(.ARM.extab) refers to arm_callunex_noexceptions.o(.text) for __cxa_call_unexpected
    ios.o(.ARM.exidx) refers to ios.o(i._ZNKSt7codecvtIccSt11__mbstate_tE8encodingEv) for i._ZNKSt7codecvtIccSt11__mbstate_tE8encodingEv
    ios.o(.ARM.exidx) refers to unwind_pr0.o(.text) for __aeabi_unwind_cpp_pr0
    ios.o(.ARM.exidx) refers to ios.o(.ARM.extab) for .extab._ZNKSt7codecvtIccSt11__mbstate_tE8encodingEv
    ios.o(.ARM.extab) refers to arm_callunex_noexceptions.o(.text) for __cxa_call_unexpected
    ios.o(.ARM.exidx) refers to ios.o(i._ZNKSt7codecvtIccSt11__mbstate_tE13always_noconvEv) for i._ZNKSt7codecvtIccSt11__mbstate_tE13always_noconvEv
    ios.o(.ARM.exidx) refers to unwind_pr0.o(.text) for __aeabi_unwind_cpp_pr0
    ios.o(.ARM.exidx) refers to ios.o(.ARM.extab) for .extab._ZNKSt7codecvtIccSt11__mbstate_tE13always_noconvEv
    ios.o(.ARM.extab) refers to arm_callunex_noexceptions.o(.text) for __cxa_call_unexpected
    ios.o(.ARM.exidx) refers to ios.o(i._ZNKSt7codecvtIccSt11__mbstate_tE10max_lengthEv) for i._ZNKSt7codecvtIccSt11__mbstate_tE10max_lengthEv
    ios.o(.ARM.exidx) refers to unwind_pr0.o(.text) for __aeabi_unwind_cpp_pr0
    ios.o(.ARM.exidx) refers to ios.o(.ARM.extab) for .extab._ZNKSt7codecvtIccSt11__mbstate_tE10max_lengthEv
    ios.o(i._ZNSt7codecvtIwcSt11__mbstate_tEC1Ej) refers to ios.o(i._ZNSt6locale5facetC1Eji) for std::locale::facet::facet(unsigned, int)
    ios.o(i._ZNSt7codecvtIwcSt11__mbstate_tEC1Ej) refers to ios.o(.constdata__ZTVSt7codecvtIwcSt11__mbstate_tE) for vtable for std::codecvt<wchar_t, char, std::__mbstate_t>
    ios.o(.ARM.exidx) refers to ios.o(i._ZNSt7codecvtIwcSt11__mbstate_tEC1Ej) for i._ZNSt7codecvtIwcSt11__mbstate_tEC1Ej
    ios.o(.ARM.exidx) refers to unwind_pr0.o(.text) for __aeabi_unwind_cpp_pr0
    ios.o(.ARM.exidx) refers to ios.o(i._ZNKSt7codecvtIwcSt11__mbstate_tE3outERS0_PKwS4_RS4_PcS6_RS6_) for i._ZNKSt7codecvtIwcSt11__mbstate_tE3outERS0_PKwS4_RS4_PcS6_RS6_
    ios.o(.ARM.exidx) refers to unwind_pr0.o(.text) for __aeabi_unwind_cpp_pr0
    ios.o(.ARM.extab) refers to arm_callunex_noexceptions.o(.text) for __cxa_call_unexpected
    ios.o(.ARM.exidx) refers to ios.o(i._ZNKSt7codecvtIwcSt11__mbstate_tE8encodingEv) for i._ZNKSt7codecvtIwcSt11__mbstate_tE8encodingEv
    ios.o(.ARM.exidx) refers to unwind_pr0.o(.text) for __aeabi_unwind_cpp_pr0
    ios.o(.ARM.exidx) refers to ios.o(.ARM.extab) for .extab._ZNKSt7codecvtIwcSt11__mbstate_tE8encodingEv
    ios.o(.ARM.extab) refers to arm_callunex_noexceptions.o(.text) for __cxa_call_unexpected
    ios.o(.ARM.exidx) refers to ios.o(i._ZNKSt7codecvtIwcSt11__mbstate_tE13always_noconvEv) for i._ZNKSt7codecvtIwcSt11__mbstate_tE13always_noconvEv
    ios.o(.ARM.exidx) refers to unwind_pr0.o(.text) for __aeabi_unwind_cpp_pr0
    ios.o(.ARM.exidx) refers to ios.o(.ARM.extab) for .extab._ZNKSt7codecvtIwcSt11__mbstate_tE13always_noconvEv
    ios.o(.ARM.extab) refers to arm_callunex_noexceptions.o(.text) for __cxa_call_unexpected
    ios.o(.ARM.exidx) refers to ios.o(i._ZNKSt7codecvtIwcSt11__mbstate_tE10max_lengthEv) for i._ZNKSt7codecvtIwcSt11__mbstate_tE10max_lengthEv
    ios.o(.ARM.exidx) refers to unwind_pr0.o(.text) for __aeabi_unwind_cpp_pr0
    ios.o(.ARM.exidx) refers to ios.o(.ARM.extab) for .extab._ZNKSt7codecvtIwcSt11__mbstate_tE10max_lengthEv
    ios.o(t._ZNSt15basic_streambufIcSt11char_traitsIcEE5imbueERKSt6locale) refers to locale.o(i._ZNSt6localeaSERKS_) for std::locale::operator =(const std::locale&)
    ios.o(.ARM.exidx) refers to ios.o(t._ZNSt15basic_streambufIcSt11char_traitsIcEE5imbueERKSt6locale) for t._ZNSt15basic_streambufIcSt11char_traitsIcEE5imbueERKSt6locale
    ios.o(t._ZNSt15basic_streambufIcSt11char_traitsIcEE6xsgetnEPcl) refers to char.o(i._ZNSt11char_traitsIcE4copyEPcPKcj) for std::char_traits<char>::copy(char*, const char*, unsigned)
    ios.o(.ARM.exidx) refers to ios.o(t._ZNSt15basic_streambufIcSt11char_traitsIcEE6xsgetnEPcl) for t._ZNSt15basic_streambufIcSt11char_traitsIcEE6xsgetnEPcl
    ios.o(.ARM.exidx) refers to unwind_pr0.o(.text) for __aeabi_unwind_cpp_pr0
    ios.o(t._ZNKSt15basic_streambufIcSt11char_traitsIcEE9_C_is_eofEi) refers to ios.o(i._ZNSt11char_traitsIcE11eq_int_typeERKiS2_) for std::char_traits<char>::eq_int_type(const int&, const int&)
    ios.o(.ARM.exidx) refers to ios.o(t._ZNKSt15basic_streambufIcSt11char_traitsIcEE9_C_is_eofEi) for t._ZNKSt15basic_streambufIcSt11char_traitsIcEE9_C_is_eofEi
    ios.o(.ARM.exidx) refers to unwind_pr0.o(.text) for __aeabi_unwind_cpp_pr0
    ios.o(.ARM.exidx) refers to ios.o(t._ZNKSt15basic_streambufIcSt11char_traitsIcEE16_C_putback_availEv) for t._ZNKSt15basic_streambufIcSt11char_traitsIcEE16_C_putback_availEv
    ios.o(.ARM.exidx) refers to ios.o(t._ZNSt15basic_streambufIcSt11char_traitsIcEE11_C_out_lastEb) for t._ZNSt15basic_streambufIcSt11char_traitsIcEE11_C_out_lastEb
    ios.o(.ARM.exidx) refers to ios.o(t._ZNSt4fposISt11__mbstate_tEC1ERKS1_) for t._ZNSt4fposISt11__mbstate_tEC1ERKS1_
    ios.o(.ARM.exidx) refers to ios.o(t._ZNSt4fposISt11__mbstate_tEaSERKS1_) for t._ZNSt4fposISt11__mbstate_tEaSERKS1_
    ios.o(t._ZNKSt4fposISt11__mbstate_tEmiERKS1_) refers to ios.o(t._ZNSt4fposISt11__mbstate_tEC1ERKS1_) for std::fpos<std::__mbstate_t>::fpos(const std::fpos<std::__mbstate_t>&)
    ios.o(.ARM.exidx) refers to ios.o(t._ZNKSt4fposISt11__mbstate_tEmiERKS1_) for t._ZNKSt4fposISt11__mbstate_tEmiERKS1_
    ios.o(.ARM.exidx) refers to unwind_pr0.o(.text) for __aeabi_unwind_cpp_pr0
    ios.o(t._ZNKSt4fposISt11__mbstate_tEplEl) refers to ios.o(t._ZNSt4fposISt11__mbstate_tEC1ERKS1_) for std::fpos<std::__mbstate_t>::fpos(const std::fpos<std::__mbstate_t>&)
    ios.o(t._ZNKSt4fposISt11__mbstate_tEplEl) refers to ios.o(t._ZNSt4fposISt11__mbstate_tEpLEl) for std::fpos<std::__mbstate_t>::operator +=(long)
    ios.o(.ARM.exidx) refers to ios.o(t._ZNKSt4fposISt11__mbstate_tEplEl) for t._ZNKSt4fposISt11__mbstate_tEplEl
    ios.o(.ARM.exidx) refers to unwind_pr0.o(.text) for __aeabi_unwind_cpp_pr0
    ios.o(.ARM.exidx) refers to ios.o(t._ZNKSt4fposISt11__mbstate_tEeqERKS1_) for t._ZNKSt4fposISt11__mbstate_tEeqERKS1_
    ios.o(t._ZNKSt4fposISt11__mbstate_tEneERKS1_) refers to ios.o(t._ZNKSt4fposISt11__mbstate_tEeqERKS1_) for std::fpos<std::__mbstate_t>::operator ==(const std::fpos<std::__mbstate_t>&) const
    ios.o(.ARM.exidx) refers to ios.o(t._ZNKSt4fposISt11__mbstate_tEneERKS1_) for t._ZNKSt4fposISt11__mbstate_tEneERKS1_
    ios.o(.ARM.exidx) refers to unwind_pr0.o(.text) for __aeabi_unwind_cpp_pr0
    ios.o(i._ZN4__rw11__rw_file_t8_C_writeEPKvjj) refers to fwrite.o(.text) for fwrite
    ios.o(.ARM.exidx) refers to ios.o(i._ZN4__rw11__rw_file_t8_C_writeEPKvjj) for i._ZN4__rw11__rw_file_t8_C_writeEPKvjj
    ios.o(t._ZSt9use_facetISt7codecvtIccSt11__mbstate_tEERKT_RKSt6locale) refers to ios.o(i._ZNKSt6locale12_C_use_facetERKNS_2idEbiPFPN4__rw15__rw_facet_baseEiPKcjE) for std::locale::_C_use_facet(const std::locale::id&, bool, int, __rw::__rw_facet_base*(*)(int, const char*, unsigned)) const
    ios.o(t._ZSt9use_facetISt7codecvtIccSt11__mbstate_tEERKT_RKSt6locale) refers to ios.o(t._ZN4__rw16__rw_facet_makerISt7codecvtIccSt11__mbstate_tEE13_C_maker_funcEiPKcj) for __rw::__rw_facet_maker<std::codecvt<char, char, std::__mbstate_t>>::_C_maker_func(int, const char*, unsigned)
    ios.o(t._ZSt9use_facetISt7codecvtIccSt11__mbstate_tEERKT_RKSt6locale) refers to locale.o(.data) for std::codecvt<char, char, std::__mbstate_t>::id
    ios.o(.ARM.exidx) refers to ios.o(t._ZSt9use_facetISt7codecvtIccSt11__mbstate_tEERKT_RKSt6locale) for t._ZSt9use_facetISt7codecvtIccSt11__mbstate_tEERKT_RKSt6locale
    ios.o(.ARM.exidx) refers to unwind_pr0.o(.text) for __aeabi_unwind_cpp_pr0
    ios.o(t._ZNKSt13basic_filebufIcSt11char_traitsIcEE7is_openEv) refers to ios.o(i._ZNK4__rw11__rw_file_t10_C_is_openEv) for __rw::__rw_file_t::_C_is_open() const
    ios.o(.ARM.exidx) refers to ios.o(t._ZNKSt13basic_filebufIcSt11char_traitsIcEE7is_openEv) for t._ZNKSt13basic_filebufIcSt11char_traitsIcEE7is_openEv
    ios.o(t._ZNSt13basic_filebufIcSt11char_traitsIcEE5closeEv) refers to ios.o(t._ZNKSt13basic_filebufIcSt11char_traitsIcEE7is_openEv) for std::basic_filebuf<char, std::char_traits<char>>::is_open() const
    ios.o(t._ZNSt13basic_filebufIcSt11char_traitsIcEE5closeEv) refers to ios.o(t._ZNKSt15basic_streambufIcSt11char_traitsIcEE9_C_is_eofEi) for std::basic_streambuf<char, std::char_traits<char>>::_C_is_eof(int) const
    ios.o(t._ZNSt13basic_filebufIcSt11char_traitsIcEE5closeEv) refers to ios.o(t._ZNSt13basic_filebufIcSt11char_traitsIcEE10_C_unshiftEv) for std::basic_filebuf<char, std::char_traits<char>>::_C_unshift()
    ios.o(t._ZNSt13basic_filebufIcSt11char_traitsIcEE5closeEv) refers to ios.o(t._ZNSt4fposISt11__mbstate_tEC1El) for std::fpos<std::__mbstate_t>::fpos(long)
    ios.o(t._ZNSt13basic_filebufIcSt11char_traitsIcEE5closeEv) refers to ios.o(t._ZNSt4fposISt11__mbstate_tEaSERKS1_) for std::fpos<std::__mbstate_t>::operator =(const std::fpos<std::__mbstate_t>&)
    ios.o(t._ZNSt13basic_filebufIcSt11char_traitsIcEE5closeEv) refers to ios.o(i._ZNK4__rw11__rw_file_t9_C_is_stdEv) for __rw::__rw_file_t::_C_is_std() const
    ios.o(t._ZNSt13basic_filebufIcSt11char_traitsIcEE5closeEv) refers to ios.o(i._ZN4__rw11__rw_file_t8_C_closeEv) for __rw::__rw_file_t::_C_close()
    ios.o(.ARM.exidx) refers to ios.o(t._ZNSt13basic_filebufIcSt11char_traitsIcEE5closeEv) for t._ZNSt13basic_filebufIcSt11char_traitsIcEE5closeEv
    ios.o(.ARM.exidx) refers to unwind_pr0.o(.text) for __aeabi_unwind_cpp_pr0
    ios.o(t._ZNSt13basic_filebufIcSt11char_traitsIcEED0Ev) refers to ios.o(t._ZNSt13basic_filebufIcSt11char_traitsIcEED1Ev) for std::basic_filebuf<char, std::char_traits<char>>::~basic_filebuf()
    ios.o(t._ZNSt13basic_filebufIcSt11char_traitsIcEED0Ev) refers to delete.o(i._ZdlPv) for operator delete (void*)
    ios.o(.ARM.exidx) refers to ios.o(t._ZNSt13basic_filebufIcSt11char_traitsIcEED0Ev) for t._ZNSt13basic_filebufIcSt11char_traitsIcEED0Ev
    ios.o(t._ZNSt13basic_filebufIcSt11char_traitsIcEE12_C_file_seekEli) refers to ios.o(i._ZN4__rw11__rw_file_t7_C_seekEli) for __rw::__rw_file_t::_C_seek(long, int)
    ios.o(t._ZNSt13basic_filebufIcSt11char_traitsIcEE12_C_file_seekEli) refers to ios.o(t._ZNSt4fposISt11__mbstate_tEC1El) for std::fpos<std::__mbstate_t>::fpos(long)
    ios.o(.ARM.exidx) refers to ios.o(t._ZNSt13basic_filebufIcSt11char_traitsIcEE12_C_file_seekEli) for t._ZNSt13basic_filebufIcSt11char_traitsIcEE12_C_file_seekEli
    ios.o(.ARM.exidx) refers to unwind_pr0.o(.text) for __aeabi_unwind_cpp_pr0
    ios.o(i._ZN4__rw11__rw_file_t7_C_readEPvjj) refers to fread_bytes_avail_replaced.o(.text) for __fread_bytes_avail
    ios.o(i._ZN4__rw11__rw_file_t7_C_readEPvjj) refers to uartbsp.o(i.ferror) for ferror
    ios.o(i._ZN4__rw11__rw_file_t7_C_readEPvjj) refers to clearerr.o(.text) for clearerr
    ios.o(.ARM.exidx) refers to ios.o(i._ZN4__rw11__rw_file_t7_C_readEPvjj) for i._ZN4__rw11__rw_file_t7_C_readEPvjj
    ios.o(.ARM.exidx) refers to ios.o(t._ZSt3minIiERKT_S2_S2_) for t._ZSt3minIiERKT_S2_S2_
    ios.o(.ARM.exidx) refers to ios.o(t._ZSt3minIlERKT_S2_S2_) for t._ZSt3minIlERKT_S2_S2_
    ios.o(t._ZNSt15basic_streambufIwSt11char_traitsIwEE5imbueERKSt6locale) refers to locale.o(i._ZNSt6localeaSERKS_) for std::locale::operator =(const std::locale&)
    ios.o(.ARM.exidx) refers to ios.o(t._ZNSt15basic_streambufIwSt11char_traitsIwEE5imbueERKSt6locale) for t._ZNSt15basic_streambufIwSt11char_traitsIwEE5imbueERKSt6locale
    ios.o(t._ZNSt15basic_streambufIwSt11char_traitsIwEE6xsgetnEPwl) refers to ios.o(i._ZNSt11char_traitsIwE4copyEPwPKwj) for std::char_traits<wchar_t>::copy(wchar_t*, const wchar_t*, unsigned)
    ios.o(.ARM.exidx) refers to ios.o(t._ZNSt15basic_streambufIwSt11char_traitsIwEE6xsgetnEPwl) for t._ZNSt15basic_streambufIwSt11char_traitsIwEE6xsgetnEPwl
    ios.o(.ARM.exidx) refers to unwind_pr0.o(.text) for __aeabi_unwind_cpp_pr0
    ios.o(t._ZNKSt15basic_streambufIwSt11char_traitsIwEE9_C_is_eofEi) refers to ios.o(i._ZNSt11char_traitsIwE11eq_int_typeERKiS2_) for std::char_traits<wchar_t>::eq_int_type(const int&, const int&)
    ios.o(.ARM.exidx) refers to ios.o(t._ZNKSt15basic_streambufIwSt11char_traitsIwEE9_C_is_eofEi) for t._ZNKSt15basic_streambufIwSt11char_traitsIwEE9_C_is_eofEi
    ios.o(.ARM.exidx) refers to unwind_pr0.o(.text) for __aeabi_unwind_cpp_pr0
    ios.o(.ARM.exidx) refers to ios.o(t._ZNKSt15basic_streambufIwSt11char_traitsIwEE16_C_putback_availEv) for t._ZNKSt15basic_streambufIwSt11char_traitsIwEE16_C_putback_availEv
    ios.o(.ARM.exidx) refers to ios.o(t._ZNSt15basic_streambufIwSt11char_traitsIwEE11_C_out_lastEb) for t._ZNSt15basic_streambufIwSt11char_traitsIwEE11_C_out_lastEb
    ios.o(t._ZSt9use_facetISt7codecvtIwcSt11__mbstate_tEERKT_RKSt6locale) refers to ios.o(i._ZNKSt6locale12_C_use_facetERKNS_2idEbiPFPN4__rw15__rw_facet_baseEiPKcjE) for std::locale::_C_use_facet(const std::locale::id&, bool, int, __rw::__rw_facet_base*(*)(int, const char*, unsigned)) const
    ios.o(t._ZSt9use_facetISt7codecvtIwcSt11__mbstate_tEERKT_RKSt6locale) refers to ios.o(t._ZN4__rw16__rw_facet_makerISt7codecvtIwcSt11__mbstate_tEE13_C_maker_funcEiPKcj) for __rw::__rw_facet_maker<std::codecvt<wchar_t, char, std::__mbstate_t>>::_C_maker_func(int, const char*, unsigned)
    ios.o(t._ZSt9use_facetISt7codecvtIwcSt11__mbstate_tEERKT_RKSt6locale) refers to locale.o(.data) for std::codecvt<wchar_t, char, std::__mbstate_t>::id
    ios.o(.ARM.exidx) refers to ios.o(t._ZSt9use_facetISt7codecvtIwcSt11__mbstate_tEERKT_RKSt6locale) for t._ZSt9use_facetISt7codecvtIwcSt11__mbstate_tEERKT_RKSt6locale
    ios.o(.ARM.exidx) refers to unwind_pr0.o(.text) for __aeabi_unwind_cpp_pr0
    ios.o(t._ZNKSt13basic_filebufIwSt11char_traitsIwEE7is_openEv) refers to ios.o(i._ZNK4__rw11__rw_file_t10_C_is_openEv) for __rw::__rw_file_t::_C_is_open() const
    ios.o(.ARM.exidx) refers to ios.o(t._ZNKSt13basic_filebufIwSt11char_traitsIwEE7is_openEv) for t._ZNKSt13basic_filebufIwSt11char_traitsIwEE7is_openEv
    ios.o(t._ZNSt13basic_filebufIwSt11char_traitsIwEE5closeEv) refers to ios.o(t._ZNKSt13basic_filebufIwSt11char_traitsIwEE7is_openEv) for std::basic_filebuf<wchar_t, std::char_traits<wchar_t>>::is_open() const
    ios.o(t._ZNSt13basic_filebufIwSt11char_traitsIwEE5closeEv) refers to ios.o(t._ZNKSt15basic_streambufIwSt11char_traitsIwEE9_C_is_eofEi) for std::basic_streambuf<wchar_t, std::char_traits<wchar_t>>::_C_is_eof(int) const
    ios.o(t._ZNSt13basic_filebufIwSt11char_traitsIwEE5closeEv) refers to ios.o(t._ZNSt13basic_filebufIwSt11char_traitsIwEE10_C_unshiftEv) for std::basic_filebuf<wchar_t, std::char_traits<wchar_t>>::_C_unshift()
    ios.o(t._ZNSt13basic_filebufIwSt11char_traitsIwEE5closeEv) refers to ios.o(t._ZNSt4fposISt11__mbstate_tEC1El) for std::fpos<std::__mbstate_t>::fpos(long)
    ios.o(t._ZNSt13basic_filebufIwSt11char_traitsIwEE5closeEv) refers to ios.o(t._ZNSt4fposISt11__mbstate_tEaSERKS1_) for std::fpos<std::__mbstate_t>::operator =(const std::fpos<std::__mbstate_t>&)
    ios.o(t._ZNSt13basic_filebufIwSt11char_traitsIwEE5closeEv) refers to ios.o(i._ZNK4__rw11__rw_file_t9_C_is_stdEv) for __rw::__rw_file_t::_C_is_std() const
    ios.o(t._ZNSt13basic_filebufIwSt11char_traitsIwEE5closeEv) refers to ios.o(i._ZN4__rw11__rw_file_t8_C_closeEv) for __rw::__rw_file_t::_C_close()
    ios.o(.ARM.exidx) refers to ios.o(t._ZNSt13basic_filebufIwSt11char_traitsIwEE5closeEv) for t._ZNSt13basic_filebufIwSt11char_traitsIwEE5closeEv
    ios.o(.ARM.exidx) refers to unwind_pr0.o(.text) for __aeabi_unwind_cpp_pr0
    ios.o(t._ZNSt13basic_filebufIwSt11char_traitsIwEED0Ev) refers to ios.o(t._ZNSt13basic_filebufIwSt11char_traitsIwEED1Ev) for std::basic_filebuf<wchar_t, std::char_traits<wchar_t>>::~basic_filebuf()
    ios.o(t._ZNSt13basic_filebufIwSt11char_traitsIwEED0Ev) refers to delete.o(i._ZdlPv) for operator delete (void*)
    ios.o(.ARM.exidx) refers to ios.o(t._ZNSt13basic_filebufIwSt11char_traitsIwEED0Ev) for t._ZNSt13basic_filebufIwSt11char_traitsIwEED0Ev
    ios.o(t._ZNSt13basic_filebufIwSt11char_traitsIwEE12_C_file_seekEli) refers to ios.o(i._ZN4__rw11__rw_file_t7_C_seekEli) for __rw::__rw_file_t::_C_seek(long, int)
    ios.o(t._ZNSt13basic_filebufIwSt11char_traitsIwEE12_C_file_seekEli) refers to ios.o(t._ZNSt4fposISt11__mbstate_tEC1El) for std::fpos<std::__mbstate_t>::fpos(long)
    ios.o(.ARM.exidx) refers to ios.o(t._ZNSt13basic_filebufIwSt11char_traitsIwEE12_C_file_seekEli) for t._ZNSt13basic_filebufIwSt11char_traitsIwEE12_C_file_seekEli
    ios.o(.ARM.exidx) refers to unwind_pr0.o(.text) for __aeabi_unwind_cpp_pr0
    ios.o(.ARM.exidx) refers to ios.o(i._ZNSt11char_traitsIcE11eq_int_typeERKiS2_) for i._ZNSt11char_traitsIcE11eq_int_typeERKiS2_
    ios.o(.ARM.exidx) refers to ios.o(i._ZNSt11char_traitsIwE11eq_int_typeERKiS2_) for i._ZNSt11char_traitsIwE11eq_int_typeERKiS2_
    ios.o(t._ZN4__rw18__rw_locale_vectorIPNS_15__rw_facet_baseEED1Ev) refers to array_del.o(i._ZdaPv) for operator delete[] (void*)
    ios.o(.ARM.exidx) refers to ios.o(t._ZN4__rw18__rw_locale_vectorIPNS_15__rw_facet_baseEED1Ev) for t._ZN4__rw18__rw_locale_vectorIPNS_15__rw_facet_baseEED1Ev
    ios.o(t._ZN4__rw18__rw_locale_vectorISsED1Ev) refers to aeabi_vec_delete_noexceptions.o(.text) for __aeabi_vec_delete
    ios.o(t._ZN4__rw18__rw_locale_vectorISsED1Ev) refers to char.o(t._ZNSsD1Ev) for std::basic_string<char, std::char_traits<char>, std::allocator<char>>::~basic_string()
    ios.o(.ARM.extab) refers to arm_callunex_noexceptions.o(.text) for __cxa_call_unexpected
    ios.o(.ARM.exidx) refers to ios.o(t._ZN4__rw18__rw_locale_vectorISsED1Ev) for t._ZN4__rw18__rw_locale_vectorISsED1Ev
    ios.o(.ARM.exidx) refers to unwind_pr0.o(.text) for __aeabi_unwind_cpp_pr0
    ios.o(.ARM.exidx) refers to ios.o(.ARM.extab) for .extab._ZN4__rw18__rw_locale_vectorISsED1Ev
    ios.o(i._ZNSt6locale5facetC1Eji) refers to main.o(.constdata__ZTVNSt6locale5facetE) for vtable for std::locale::facet
    ios.o(.ARM.exidx) refers to ios.o(i._ZNSt6locale5facetC1Eji) for i._ZNSt6locale5facetC1Eji
    ios.o(.ARM.exidx) refers to ios.o(t._ZNSt4fposISt11__mbstate_tEpLEl) for t._ZNSt4fposISt11__mbstate_tEpLEl
    ios.o(.ARM.exidx) refers to ios.o(i._ZNK4__rw11__rw_file_t10_C_is_openEv) for i._ZNK4__rw11__rw_file_t10_C_is_openEv
    ios.o(i._ZN4__rw11__rw_file_t8_C_closeEv) refers to ios.o(i._ZNK4__rw11__rw_file_t10_C_is_openEv) for __rw::__rw_file_t::_C_is_open() const
    ios.o(i._ZN4__rw11__rw_file_t8_C_closeEv) refers to uartbsp.o(i.fclose) for fclose
    ios.o(.ARM.exidx) refers to ios.o(i._ZN4__rw11__rw_file_t8_C_closeEv) for i._ZN4__rw11__rw_file_t8_C_closeEv
    ios.o(.ARM.exidx) refers to unwind_pr0.o(.text) for __aeabi_unwind_cpp_pr0
    ios.o(t._ZN4__rw16__rw_facet_makerISt7codecvtIccSt11__mbstate_tEE13_C_maker_funcEiPKcj) refers to ios.o(t._ZN4__rw23__rw_create_named_facetISt7codecvtIccSt11__mbstate_tEEEPT_S5_PKcj) for T1* __rw::__rw_create_named_facet<std::codecvt<char, char, std::__mbstate_t>>(T1*, const char*, unsigned)
    ios.o(t._ZN4__rw16__rw_facet_makerISt7codecvtIccSt11__mbstate_tEE13_C_maker_funcEiPKcj) refers to new.o(i._Znwj) for operator new(unsigned)
    ios.o(t._ZN4__rw16__rw_facet_makerISt7codecvtIccSt11__mbstate_tEE13_C_maker_funcEiPKcj) refers to ios.o(i._ZNSt7codecvtIccSt11__mbstate_tEC1Ej) for std::codecvt<char, char, std::__mbstate_t>::codecvt(unsigned)
    ios.o(t._ZN4__rw16__rw_facet_makerISt7codecvtIccSt11__mbstate_tEE13_C_maker_funcEiPKcj) refers to ios.o(.constdata__ZZN4__rw24__rw_create_native_facetISt7codecvtIccSt11__mbstate_tEEEPT_S5_Es) for T1* __rw::__rw_create_native_facet<std::codecvt<char, char, std::__mbstate_t>>(T1*)::string
    ios.o(t._ZN4__rw16__rw_facet_makerISt7codecvtIccSt11__mbstate_tEE13_C_maker_funcEiPKcj.clean) refers to delete.o(i._ZdlPv) for operator delete (void*)
    ios.o(t._ZN4__rw16__rw_facet_makerISt7codecvtIccSt11__mbstate_tEE13_C_maker_funcEiPKcj.clean) refers to arm_exceptions_cleanup.o(.emb_text) for __cxa_end_cleanup
    ios.o(.ARM.extab) refers to ios.o(t._ZN4__rw16__rw_facet_makerISt7codecvtIccSt11__mbstate_tEE13_C_maker_funcEiPKcj.clean) for t._ZN4__rw16__rw_facet_makerISt7codecvtIccSt11__mbstate_tEE13_C_maker_funcEiPKcj.clean
    ios.o(.ARM.exidx) refers to ios.o(t._ZN4__rw16__rw_facet_makerISt7codecvtIccSt11__mbstate_tEE13_C_maker_funcEiPKcj) for t._ZN4__rw16__rw_facet_makerISt7codecvtIccSt11__mbstate_tEE13_C_maker_funcEiPKcj
    ios.o(.ARM.exidx) refers to unwind_pr0.o(.text) for __aeabi_unwind_cpp_pr0
    ios.o(.ARM.exidx) refers to ios.o(.ARM.extab) for .extab._ZN4__rw16__rw_facet_makerISt7codecvtIccSt11__mbstate_tEE13_C_maker_funcEiPKcj
    ios.o(.ARM.exidx) refers to ios.o(t._ZN4__rw16__rw_facet_makerISt7codecvtIccSt11__mbstate_tEE13_C_maker_funcEiPKcj.clean) for t._ZN4__rw16__rw_facet_makerISt7codecvtIccSt11__mbstate_tEE13_C_maker_funcEiPKcj.clean
    ios.o(i._ZN4__rw11__rw_file_t7_C_seekEli) refers to uartbsp.o(i.fseek) for fseek
    ios.o(i._ZN4__rw11__rw_file_t7_C_seekEli) refers to uartbsp.o(i.ftell) for ftell
    ios.o(.ARM.exidx) refers to ios.o(i._ZN4__rw11__rw_file_t7_C_seekEli) for i._ZN4__rw11__rw_file_t7_C_seekEli
    ios.o(t._ZN4__rw16__rw_facet_makerISt7codecvtIwcSt11__mbstate_tEE13_C_maker_funcEiPKcj) refers to ios.o(t._ZN4__rw23__rw_create_named_facetISt7codecvtIwcSt11__mbstate_tEEEPT_S5_PKcj) for T1* __rw::__rw_create_named_facet<std::codecvt<wchar_t, char, std::__mbstate_t>>(T1*, const char*, unsigned)
    ios.o(t._ZN4__rw16__rw_facet_makerISt7codecvtIwcSt11__mbstate_tEE13_C_maker_funcEiPKcj) refers to new.o(i._Znwj) for operator new(unsigned)
    ios.o(t._ZN4__rw16__rw_facet_makerISt7codecvtIwcSt11__mbstate_tEE13_C_maker_funcEiPKcj) refers to ios.o(i._ZNSt7codecvtIwcSt11__mbstate_tEC1Ej) for std::codecvt<wchar_t, char, std::__mbstate_t>::codecvt(unsigned)
    ios.o(t._ZN4__rw16__rw_facet_makerISt7codecvtIwcSt11__mbstate_tEE13_C_maker_funcEiPKcj) refers to ios.o(.constdata__ZZN4__rw24__rw_create_native_facetISt7codecvtIwcSt11__mbstate_tEEEPT_S5_Es) for T1* __rw::__rw_create_native_facet<std::codecvt<wchar_t, char, std::__mbstate_t>>(T1*)::string
    ios.o(t._ZN4__rw16__rw_facet_makerISt7codecvtIwcSt11__mbstate_tEE13_C_maker_funcEiPKcj.clean) refers to delete.o(i._ZdlPv) for operator delete (void*)
    ios.o(t._ZN4__rw16__rw_facet_makerISt7codecvtIwcSt11__mbstate_tEE13_C_maker_funcEiPKcj.clean) refers to arm_exceptions_cleanup.o(.emb_text) for __cxa_end_cleanup
    ios.o(.ARM.extab) refers to ios.o(t._ZN4__rw16__rw_facet_makerISt7codecvtIwcSt11__mbstate_tEE13_C_maker_funcEiPKcj.clean) for t._ZN4__rw16__rw_facet_makerISt7codecvtIwcSt11__mbstate_tEE13_C_maker_funcEiPKcj.clean
    ios.o(.ARM.exidx) refers to ios.o(t._ZN4__rw16__rw_facet_makerISt7codecvtIwcSt11__mbstate_tEE13_C_maker_funcEiPKcj) for t._ZN4__rw16__rw_facet_makerISt7codecvtIwcSt11__mbstate_tEE13_C_maker_funcEiPKcj
    ios.o(.ARM.exidx) refers to unwind_pr0.o(.text) for __aeabi_unwind_cpp_pr0
    ios.o(.ARM.exidx) refers to ios.o(.ARM.extab) for .extab._ZN4__rw16__rw_facet_makerISt7codecvtIwcSt11__mbstate_tEE13_C_maker_funcEiPKcj
    ios.o(.ARM.exidx) refers to ios.o(t._ZN4__rw16__rw_facet_makerISt7codecvtIwcSt11__mbstate_tEE13_C_maker_funcEiPKcj.clean) for t._ZN4__rw16__rw_facet_makerISt7codecvtIwcSt11__mbstate_tEE13_C_maker_funcEiPKcj.clean
    ios.o(.constdata__ZTVSt8ios_base) refers to ios.o(.constdata__ZTISt8ios_base) for typeinfo for std::ios_base
    ios.o(.constdata__ZTVSt8ios_base) refers to ios.o(i._ZNSt8ios_baseD1Ev) for std::ios_base::~ios_base()
    ios.o(.constdata__ZTVSt8ios_base) refers to ios.o(i._ZNSt8ios_baseD0Ev) for std::ios_base::~ios_base__deallocating()
    ios.o(.constdata__ZTVSt5ctypeIwE) refers to ios.o(.constdata__ZTISt5ctypeIwE) for typeinfo for std::ctype<wchar_t>
    ios.o(.constdata__ZTVSt5ctypeIwE) refers to ios.o(i._ZNSt5ctypeIwED1Ev) for std::ctype<wchar_t>::~ctype()
    ios.o(.constdata__ZTVSt5ctypeIwE) refers to ios.o(i._ZNSt5ctypeIwED0Ev) for std::ctype<wchar_t>::~ctype__deallocating()
    ios.o(.constdata__ZTVSt5ctypeIwE) refers to main.o(i._ZN4__rw15__rw_facet_base12_C_initfacetERKSt6locale) for __rw::__rw_facet_base::_C_initfacet(const std::locale&)
    ios.o(.constdata__ZTVSt5ctypeIwE) refers to ios.o(i._ZNKSt5ctypeIwE5do_isENSt10ctype_base4maskEw) for std::ctype<wchar_t>::do_is(std::ctype_base::mask, wchar_t) const
    ios.o(.constdata__ZTVSt5ctypeIwE) refers to ios.o(i._ZNKSt5ctypeIwE5do_isEPKwS2_PNSt10ctype_base4maskE) for std::ctype<wchar_t>::do_is(const wchar_t*, const wchar_t*, std::ctype_base::mask*) const
    ios.o(.constdata__ZTVSt5ctypeIwE) refers to ios.o(i._ZNKSt5ctypeIwE10do_scan_isENSt10ctype_base4maskEPKwS4_) for std::ctype<wchar_t>::do_scan_is(std::ctype_base::mask, const wchar_t*, const wchar_t*) const
    ios.o(.constdata__ZTVSt5ctypeIwE) refers to ios.o(i._ZNKSt5ctypeIwE11do_scan_notENSt10ctype_base4maskEPKwS4_) for std::ctype<wchar_t>::do_scan_not(std::ctype_base::mask, const wchar_t*, const wchar_t*) const
    ios.o(.constdata__ZTVSt5ctypeIwE) refers to ios.o(i._ZNKSt5ctypeIwE10do_toupperEPwPKw) for std::ctype<wchar_t>::do_toupper(wchar_t*, const wchar_t*) const
    ios.o(.constdata__ZTVSt5ctypeIwE) refers to ios.o(i._ZNKSt5ctypeIwE10do_toupperEw) for std::ctype<wchar_t>::do_toupper(wchar_t) const
    ios.o(.constdata__ZTVSt5ctypeIwE) refers to ios.o(i._ZNKSt5ctypeIwE10do_tolowerEPwPKw) for std::ctype<wchar_t>::do_tolower(wchar_t*, const wchar_t*) const
    ios.o(.constdata__ZTVSt5ctypeIwE) refers to ios.o(i._ZNKSt5ctypeIwE10do_tolowerEw) for std::ctype<wchar_t>::do_tolower(wchar_t) const
    ios.o(.constdata__ZTVSt5ctypeIwE) refers to ios.o(i._ZNKSt5ctypeIwE8do_widenEPKcS2_Pw) for std::ctype<wchar_t>::do_widen(const char*, const char*, wchar_t*) const
    ios.o(.constdata__ZTVSt5ctypeIwE) refers to ios.o(i._ZNKSt5ctypeIwE8do_widenEc) for std::ctype<wchar_t>::do_widen(char) const
    ios.o(.constdata__ZTVSt5ctypeIwE) refers to ios.o(i._ZNKSt5ctypeIwE9do_narrowEPKwS2_cPc) for std::ctype<wchar_t>::do_narrow(const wchar_t*, const wchar_t*, char, char*) const
    ios.o(.constdata__ZTVSt5ctypeIwE) refers to ios.o(i._ZNKSt5ctypeIwE9do_narrowEwc) for std::ctype<wchar_t>::do_narrow(wchar_t, char) const
    ios.o(.constdata__ZTVSt9basic_iosIcSt11char_traitsIcEE) refers to ios.o(.constdata__ZTISt9basic_iosIcSt11char_traitsIcEE) for typeinfo for std::basic_ios<char, std::char_traits<char>>
    ios.o(.constdata__ZTVSt9basic_iosIcSt11char_traitsIcEE) refers to ios.o(i._ZNSt9basic_iosIcSt11char_traitsIcEED1Ev) for std::basic_ios<char, std::char_traits<char>>::~basic_ios()
    ios.o(.constdata__ZTVSt9basic_iosIcSt11char_traitsIcEE) refers to ios.o(i._ZNSt9basic_iosIcSt11char_traitsIcEED0Ev) for std::basic_ios<char, std::char_traits<char>>::~basic_ios__deallocating()
    ios.o(.constdata__ZTVSt9basic_iosIwSt11char_traitsIwEE) refers to ios.o(.constdata__ZTISt9basic_iosIwSt11char_traitsIwEE) for typeinfo for std::basic_ios<wchar_t, std::char_traits<wchar_t>>
    ios.o(.constdata__ZTVSt9basic_iosIwSt11char_traitsIwEE) refers to ios.o(i._ZNSt9basic_iosIwSt11char_traitsIwEED1Ev) for std::basic_ios<wchar_t, std::char_traits<wchar_t>>::~basic_ios()
    ios.o(.constdata__ZTVSt9basic_iosIwSt11char_traitsIwEE) refers to ios.o(i._ZNSt9basic_iosIwSt11char_traitsIwEED0Ev) for std::basic_ios<wchar_t, std::char_traits<wchar_t>>::~basic_ios__deallocating()
    ios.o(.constdata__ZTVSt7codecvtIccSt11__mbstate_tE) refers to ios.o(.constdata__ZTISt7codecvtIccSt11__mbstate_tE) for typeinfo for std::codecvt<char, char, std::__mbstate_t>
    ios.o(.constdata__ZTVSt7codecvtIccSt11__mbstate_tE) refers to ios.o(i._ZNSt7codecvtIccSt11__mbstate_tED1Ev) for std::codecvt<char, char, std::__mbstate_t>::~codecvt()
    ios.o(.constdata__ZTVSt7codecvtIccSt11__mbstate_tE) refers to ios.o(i._ZNSt7codecvtIccSt11__mbstate_tED0Ev) for std::codecvt<char, char, std::__mbstate_t>::~codecvt__deallocating()
    ios.o(.constdata__ZTVSt7codecvtIccSt11__mbstate_tE) refers to main.o(i._ZN4__rw15__rw_facet_base12_C_initfacetERKSt6locale) for __rw::__rw_facet_base::_C_initfacet(const std::locale&)
    ios.o(.constdata__ZTVSt7codecvtIccSt11__mbstate_tE) refers to ios.o(i._ZNKSt7codecvtIccSt11__mbstate_tE6do_outERS0_PKcS4_RS4_PcS6_RS6_) for std::codecvt<char, char, std::__mbstate_t>::do_out(std::__mbstate_t&, const char*, const char*, const char*&, char*, char*, char*&) const
    ios.o(.constdata__ZTVSt7codecvtIccSt11__mbstate_tE) refers to ios.o(i._ZNKSt7codecvtIccSt11__mbstate_tE5do_inERS0_PKcS4_RS4_PcS6_RS6_) for std::codecvt<char, char, std::__mbstate_t>::do_in(std::__mbstate_t&, const char*, const char*, const char*&, char*, char*, char*&) const
    ios.o(.constdata__ZTVSt7codecvtIccSt11__mbstate_tE) refers to ios.o(i._ZNKSt7codecvtIccSt11__mbstate_tE10do_unshiftERS0_PcS3_RS3_) for std::codecvt<char, char, std::__mbstate_t>::do_unshift(std::__mbstate_t&, char*, char*, char*&) const
    ios.o(.constdata__ZTVSt7codecvtIccSt11__mbstate_tE) refers to ios.o(i._ZNKSt7codecvtIccSt11__mbstate_tE11do_encodingEv) for std::codecvt<char, char, std::__mbstate_t>::do_encoding() const
    ios.o(.constdata__ZTVSt7codecvtIccSt11__mbstate_tE) refers to ios.o(i._ZNKSt7codecvtIccSt11__mbstate_tE16do_always_noconvEv) for std::codecvt<char, char, std::__mbstate_t>::do_always_noconv() const
    ios.o(.constdata__ZTVSt7codecvtIccSt11__mbstate_tE) refers to ios.o(i._ZNKSt7codecvtIccSt11__mbstate_tE9do_lengthERKS0_PKcS5_j) for std::codecvt<char, char, std::__mbstate_t>::do_length(const std::__mbstate_t&, const char*, const char*, unsigned) const
    ios.o(.constdata__ZTVSt7codecvtIccSt11__mbstate_tE) refers to ios.o(i._ZNKSt7codecvtIccSt11__mbstate_tE13do_max_lengthEv) for std::codecvt<char, char, std::__mbstate_t>::do_max_length() const
    ios.o(.constdata__ZTVSt7codecvtIwcSt11__mbstate_tE) refers to ios.o(.constdata__ZTISt7codecvtIwcSt11__mbstate_tE) for typeinfo for std::codecvt<wchar_t, char, std::__mbstate_t>
    ios.o(.constdata__ZTVSt7codecvtIwcSt11__mbstate_tE) refers to ios.o(i._ZNSt7codecvtIwcSt11__mbstate_tED1Ev) for std::codecvt<wchar_t, char, std::__mbstate_t>::~codecvt()
    ios.o(.constdata__ZTVSt7codecvtIwcSt11__mbstate_tE) refers to ios.o(i._ZNSt7codecvtIwcSt11__mbstate_tED0Ev) for std::codecvt<wchar_t, char, std::__mbstate_t>::~codecvt__deallocating()
    ios.o(.constdata__ZTVSt7codecvtIwcSt11__mbstate_tE) refers to main.o(i._ZN4__rw15__rw_facet_base12_C_initfacetERKSt6locale) for __rw::__rw_facet_base::_C_initfacet(const std::locale&)
    ios.o(.constdata__ZTVSt7codecvtIwcSt11__mbstate_tE) refers to ios.o(i._ZNKSt7codecvtIwcSt11__mbstate_tE6do_outERS0_PKwS4_RS4_PcS6_RS6_) for std::codecvt<wchar_t, char, std::__mbstate_t>::do_out(std::__mbstate_t&, const wchar_t*, const wchar_t*, const wchar_t*&, char*, char*, char*&) const
    ios.o(.constdata__ZTVSt7codecvtIwcSt11__mbstate_tE) refers to ios.o(i._ZNKSt7codecvtIwcSt11__mbstate_tE5do_inERS0_PKcS4_RS4_PwS6_RS6_) for std::codecvt<wchar_t, char, std::__mbstate_t>::do_in(std::__mbstate_t&, const char*, const char*, const char*&, wchar_t*, wchar_t*, wchar_t*&) const
    ios.o(.constdata__ZTVSt7codecvtIwcSt11__mbstate_tE) refers to ios.o(i._ZNKSt7codecvtIwcSt11__mbstate_tE10do_unshiftERS0_PcS3_RS3_) for std::codecvt<wchar_t, char, std::__mbstate_t>::do_unshift(std::__mbstate_t&, char*, char*, char*&) const
    ios.o(.constdata__ZTVSt7codecvtIwcSt11__mbstate_tE) refers to ios.o(i._ZNKSt7codecvtIwcSt11__mbstate_tE16do_always_noconvEv) for std::codecvt<wchar_t, char, std::__mbstate_t>::do_always_noconv() const
    ios.o(.constdata__ZTVSt7codecvtIwcSt11__mbstate_tE) refers to ios.o(i._ZNKSt7codecvtIwcSt11__mbstate_tE11do_encodingEv) for std::codecvt<wchar_t, char, std::__mbstate_t>::do_encoding() const
    ios.o(.constdata__ZTVSt7codecvtIwcSt11__mbstate_tE) refers to ios.o(i._ZNKSt7codecvtIwcSt11__mbstate_tE9do_lengthERKS0_PKcS5_j) for std::codecvt<wchar_t, char, std::__mbstate_t>::do_length(const std::__mbstate_t&, const char*, const char*, unsigned) const
    ios.o(.constdata__ZTVSt7codecvtIwcSt11__mbstate_tE) refers to ios.o(i._ZNKSt7codecvtIwcSt11__mbstate_tE13do_max_lengthEv) for std::codecvt<wchar_t, char, std::__mbstate_t>::do_max_length() const
    ios.o(.constdata__ZTVSt15basic_streambufIcSt11char_traitsIcEE) refers to ios.o(.constdata__ZTISt15basic_streambufIcSt11char_traitsIcEE) for typeinfo for std::basic_streambuf<char, std::char_traits<char>>
    ios.o(.constdata__ZTVSt15basic_streambufIcSt11char_traitsIcEE) refers to ios.o(t._ZNSt15basic_streambufIcSt11char_traitsIcEED1Ev) for std::basic_streambuf<char, std::char_traits<char>>::~basic_streambuf()
    ios.o(.constdata__ZTVSt15basic_streambufIcSt11char_traitsIcEE) refers to ios.o(t._ZNSt15basic_streambufIcSt11char_traitsIcEED0Ev) for std::basic_streambuf<char, std::char_traits<char>>::~basic_streambuf__deallocating()
    ios.o(.constdata__ZTVSt15basic_streambufIcSt11char_traitsIcEE) refers to ios.o(t._ZNSt15basic_streambufIcSt11char_traitsIcEE5imbueERKSt6locale) for std::basic_streambuf<char, std::char_traits<char>>::imbue(const std::locale&)
    ios.o(.constdata__ZTVSt15basic_streambufIcSt11char_traitsIcEE) refers to ios.o(t._ZNSt15basic_streambufIcSt11char_traitsIcEE6setbufEPcl) for std::basic_streambuf<char, std::char_traits<char>>::setbuf(char*, long)
    ios.o(.constdata__ZTVSt15basic_streambufIcSt11char_traitsIcEE) refers to ios.o(t._ZNSt15basic_streambufIcSt11char_traitsIcEE7seekoffElNSt8ios_base10_C_seekdirEi) for std::basic_streambuf<char, std::char_traits<char>>::seekoff(long, std::ios_base::_C_seekdir, int)
    ios.o(.constdata__ZTVSt15basic_streambufIcSt11char_traitsIcEE) refers to ios.o(t._ZNSt15basic_streambufIcSt11char_traitsIcEE7seekposESt4fposISt11__mbstate_tEi) for std::basic_streambuf<char, std::char_traits<char>>::seekpos(std::fpos<std::__mbstate_t>, int)
    ios.o(.constdata__ZTVSt15basic_streambufIcSt11char_traitsIcEE) refers to ios.o(t._ZNSt15basic_streambufIcSt11char_traitsIcEE9showmanycEv) for std::basic_streambuf<char, std::char_traits<char>>::showmanyc()
    ios.o(.constdata__ZTVSt15basic_streambufIcSt11char_traitsIcEE) refers to ios.o(t._ZNSt15basic_streambufIcSt11char_traitsIcEE6xsgetnEPcl) for std::basic_streambuf<char, std::char_traits<char>>::xsgetn(char*, long)
    ios.o(.constdata__ZTVSt15basic_streambufIcSt11char_traitsIcEE) refers to ios.o(t._ZNSt15basic_streambufIcSt11char_traitsIcEE9underflowEv) for std::basic_streambuf<char, std::char_traits<char>>::underflow()
    ios.o(.constdata__ZTVSt15basic_streambufIcSt11char_traitsIcEE) refers to ios.o(t._ZNSt15basic_streambufIcSt11char_traitsIcEE5uflowEv) for std::basic_streambuf<char, std::char_traits<char>>::uflow()
    ios.o(.constdata__ZTVSt15basic_streambufIcSt11char_traitsIcEE) refers to ios.o(t._ZNSt15basic_streambufIcSt11char_traitsIcEE8overflowEi) for std::basic_streambuf<char, std::char_traits<char>>::overflow(int)
    ios.o(.constdata__ZTVSt15basic_streambufIcSt11char_traitsIcEE) refers to ios.o(t._ZNSt15basic_streambufIcSt11char_traitsIcEE9pbackfailEi) for std::basic_streambuf<char, std::char_traits<char>>::pbackfail(int)
    ios.o(.constdata__ZTVSt15basic_streambufIcSt11char_traitsIcEE) refers to ios.o(t._ZNSt15basic_streambufIcSt11char_traitsIcEE6xsputnEPKcl) for std::basic_streambuf<char, std::char_traits<char>>::xsputn(const char*, long)
    ios.o(.constdata__ZTVSt15basic_streambufIcSt11char_traitsIcEE) refers to ios.o(t._ZNSt15basic_streambufIcSt11char_traitsIcEE4syncEv) for std::basic_streambuf<char, std::char_traits<char>>::sync()
    ios.o(.constdata__ZTVSi) refers to ios.o(.constdata__ZTVSi) for vtable for std::basic_istream<char, std::char_traits<char>>
    ios.o(.constdata__ZTVSi) refers to ios.o(.constdata__ZTISi) for typeinfo for std::basic_istream<char, std::char_traits<char>>
    ios.o(.constdata__ZTVSi) refers to ios.o(i._ZNSiD1Ev) for std::basic_istream<char, std::char_traits<char>>::~basic_istream()
    ios.o(.constdata__ZTVSi) refers to ios.o(i._ZNSiD0Ev) for std::basic_istream<char, std::char_traits<char>>::~basic_istream__deallocating()
    ios.o(.constdata__ZTVSi) refers to ios.o(i._ZTv0_n12_NSiD1Ev) for thunk{v:0,-12} to std::basic_istream<char, std::char_traits<char>>::~basic_istream()
    ios.o(.constdata__ZTVSi) refers to ios.o(i._ZTv0_n12_NSiD0Ev) for thunk{v:0,-12} to std::basic_istream<char, std::char_traits<char>>::~basic_istream__deallocating()
    ios.o(.constdata__ZTVSo) refers to ios.o(.constdata__ZTVSo) for vtable for std::basic_ostream<char, std::char_traits<char>>
    ios.o(.constdata__ZTVSo) refers to ios.o(.constdata__ZTISo) for typeinfo for std::basic_ostream<char, std::char_traits<char>>
    ios.o(.constdata__ZTVSo) refers to ios.o(i._ZNSoD1Ev) for std::basic_ostream<char, std::char_traits<char>>::~basic_ostream()
    ios.o(.constdata__ZTVSo) refers to ios.o(i._ZNSoD0Ev) for std::basic_ostream<char, std::char_traits<char>>::~basic_ostream__deallocating()
    ios.o(.constdata__ZTVSo) refers to ios.o(i._ZTv0_n12_NSoD1Ev) for thunk{v:0,-12} to std::basic_ostream<char, std::char_traits<char>>::~basic_ostream()
    ios.o(.constdata__ZTVSo) refers to ios.o(i._ZTv0_n12_NSoD0Ev) for thunk{v:0,-12} to std::basic_ostream<char, std::char_traits<char>>::~basic_ostream__deallocating()
    ios.o(.constdata__ZTVSt15basic_streambufIwSt11char_traitsIwEE) refers to ios.o(.constdata__ZTISt15basic_streambufIwSt11char_traitsIwEE) for typeinfo for std::basic_streambuf<wchar_t, std::char_traits<wchar_t>>
    ios.o(.constdata__ZTVSt15basic_streambufIwSt11char_traitsIwEE) refers to ios.o(t._ZNSt15basic_streambufIwSt11char_traitsIwEED1Ev) for std::basic_streambuf<wchar_t, std::char_traits<wchar_t>>::~basic_streambuf()
    ios.o(.constdata__ZTVSt15basic_streambufIwSt11char_traitsIwEE) refers to ios.o(t._ZNSt15basic_streambufIwSt11char_traitsIwEED0Ev) for std::basic_streambuf<wchar_t, std::char_traits<wchar_t>>::~basic_streambuf__deallocating()
    ios.o(.constdata__ZTVSt15basic_streambufIwSt11char_traitsIwEE) refers to ios.o(t._ZNSt15basic_streambufIwSt11char_traitsIwEE5imbueERKSt6locale) for std::basic_streambuf<wchar_t, std::char_traits<wchar_t>>::imbue(const std::locale&)
    ios.o(.constdata__ZTVSt15basic_streambufIwSt11char_traitsIwEE) refers to ios.o(t._ZNSt15basic_streambufIwSt11char_traitsIwEE6setbufEPwl) for std::basic_streambuf<wchar_t, std::char_traits<wchar_t>>::setbuf(wchar_t*, long)
    ios.o(.constdata__ZTVSt15basic_streambufIwSt11char_traitsIwEE) refers to ios.o(t._ZNSt15basic_streambufIwSt11char_traitsIwEE7seekoffElNSt8ios_base10_C_seekdirEi) for std::basic_streambuf<wchar_t, std::char_traits<wchar_t>>::seekoff(long, std::ios_base::_C_seekdir, int)
    ios.o(.constdata__ZTVSt15basic_streambufIwSt11char_traitsIwEE) refers to ios.o(t._ZNSt15basic_streambufIwSt11char_traitsIwEE7seekposESt4fposISt11__mbstate_tEi) for std::basic_streambuf<wchar_t, std::char_traits<wchar_t>>::seekpos(std::fpos<std::__mbstate_t>, int)
    ios.o(.constdata__ZTVSt15basic_streambufIwSt11char_traitsIwEE) refers to ios.o(t._ZNSt15basic_streambufIwSt11char_traitsIwEE9showmanycEv) for std::basic_streambuf<wchar_t, std::char_traits<wchar_t>>::showmanyc()
    ios.o(.constdata__ZTVSt15basic_streambufIwSt11char_traitsIwEE) refers to ios.o(t._ZNSt15basic_streambufIwSt11char_traitsIwEE6xsgetnEPwl) for std::basic_streambuf<wchar_t, std::char_traits<wchar_t>>::xsgetn(wchar_t*, long)
    ios.o(.constdata__ZTVSt15basic_streambufIwSt11char_traitsIwEE) refers to ios.o(t._ZNSt15basic_streambufIwSt11char_traitsIwEE9underflowEv) for std::basic_streambuf<wchar_t, std::char_traits<wchar_t>>::underflow()
    ios.o(.constdata__ZTVSt15basic_streambufIwSt11char_traitsIwEE) refers to ios.o(t._ZNSt15basic_streambufIwSt11char_traitsIwEE5uflowEv) for std::basic_streambuf<wchar_t, std::char_traits<wchar_t>>::uflow()
    ios.o(.constdata__ZTVSt15basic_streambufIwSt11char_traitsIwEE) refers to ios.o(t._ZNSt15basic_streambufIwSt11char_traitsIwEE8overflowEi) for std::basic_streambuf<wchar_t, std::char_traits<wchar_t>>::overflow(int)
    ios.o(.constdata__ZTVSt15basic_streambufIwSt11char_traitsIwEE) refers to ios.o(t._ZNSt15basic_streambufIwSt11char_traitsIwEE9pbackfailEi) for std::basic_streambuf<wchar_t, std::char_traits<wchar_t>>::pbackfail(int)
    ios.o(.constdata__ZTVSt15basic_streambufIwSt11char_traitsIwEE) refers to ios.o(t._ZNSt15basic_streambufIwSt11char_traitsIwEE6xsputnEPKwl) for std::basic_streambuf<wchar_t, std::char_traits<wchar_t>>::xsputn(const wchar_t*, long)
    ios.o(.constdata__ZTVSt15basic_streambufIwSt11char_traitsIwEE) refers to ios.o(t._ZNSt15basic_streambufIwSt11char_traitsIwEE4syncEv) for std::basic_streambuf<wchar_t, std::char_traits<wchar_t>>::sync()
    ios.o(.constdata__ZTVSt13basic_istreamIwSt11char_traitsIwEE) refers to ios.o(.constdata__ZTVSt13basic_istreamIwSt11char_traitsIwEE) for vtable for std::basic_istream<wchar_t, std::char_traits<wchar_t>>
    ios.o(.constdata__ZTVSt13basic_istreamIwSt11char_traitsIwEE) refers to ios.o(.constdata__ZTISt13basic_istreamIwSt11char_traitsIwEE) for typeinfo for std::basic_istream<wchar_t, std::char_traits<wchar_t>>
    ios.o(.constdata__ZTVSt13basic_istreamIwSt11char_traitsIwEE) refers to ios.o(i._ZNSt13basic_istreamIwSt11char_traitsIwEED1Ev) for std::basic_istream<wchar_t, std::char_traits<wchar_t>>::~basic_istream()
    ios.o(.constdata__ZTVSt13basic_istreamIwSt11char_traitsIwEE) refers to ios.o(i._ZNSt13basic_istreamIwSt11char_traitsIwEED0Ev) for std::basic_istream<wchar_t, std::char_traits<wchar_t>>::~basic_istream__deallocating()
    ios.o(.constdata__ZTVSt13basic_istreamIwSt11char_traitsIwEE) refers to ios.o(i._ZTv0_n12_NSt13basic_istreamIwSt11char_traitsIwEED1Ev) for thunk{v:0,-12} to std::basic_istream<wchar_t, std::char_traits<wchar_t>>::~basic_istream()
    ios.o(.constdata__ZTVSt13basic_istreamIwSt11char_traitsIwEE) refers to ios.o(i._ZTv0_n12_NSt13basic_istreamIwSt11char_traitsIwEED0Ev) for thunk{v:0,-12} to std::basic_istream<wchar_t, std::char_traits<wchar_t>>::~basic_istream__deallocating()
    ios.o(.constdata__ZTVSt13basic_ostreamIwSt11char_traitsIwEE) refers to ios.o(.constdata__ZTVSt13basic_ostreamIwSt11char_traitsIwEE) for vtable for std::basic_ostream<wchar_t, std::char_traits<wchar_t>>
    ios.o(.constdata__ZTVSt13basic_ostreamIwSt11char_traitsIwEE) refers to ios.o(.constdata__ZTISt13basic_ostreamIwSt11char_traitsIwEE) for typeinfo for std::basic_ostream<wchar_t, std::char_traits<wchar_t>>
    ios.o(.constdata__ZTVSt13basic_ostreamIwSt11char_traitsIwEE) refers to ios.o(i._ZNSt13basic_ostreamIwSt11char_traitsIwEED1Ev) for std::basic_ostream<wchar_t, std::char_traits<wchar_t>>::~basic_ostream()
    ios.o(.constdata__ZTVSt13basic_ostreamIwSt11char_traitsIwEE) refers to ios.o(i._ZNSt13basic_ostreamIwSt11char_traitsIwEED0Ev) for std::basic_ostream<wchar_t, std::char_traits<wchar_t>>::~basic_ostream__deallocating()
    ios.o(.constdata__ZTVSt13basic_ostreamIwSt11char_traitsIwEE) refers to ios.o(i._ZTv0_n12_NSt13basic_ostreamIwSt11char_traitsIwEED1Ev) for thunk{v:0,-12} to std::basic_ostream<wchar_t, std::char_traits<wchar_t>>::~basic_ostream()
    ios.o(.constdata__ZTVSt13basic_ostreamIwSt11char_traitsIwEE) refers to ios.o(i._ZTv0_n12_NSt13basic_ostreamIwSt11char_traitsIwEED0Ev) for thunk{v:0,-12} to std::basic_ostream<wchar_t, std::char_traits<wchar_t>>::~basic_ostream__deallocating()
    ios.o(.constdata__ZTISt13basic_filebufIcSt11char_traitsIcEE) refers to lib_rtti_impl.o(.constdata__ZTVN10__cxxabiv120__si_class_type_infoE) for vtable for __cxxabiv1::__si_class_type_info
    ios.o(.constdata__ZTISt13basic_filebufIcSt11char_traitsIcEE) refers to ios.o(.constdata__ZTSSt13basic_filebufIcSt11char_traitsIcEE) for typeinfo name for std::basic_filebuf<char, std::char_traits<char>>
    ios.o(.constdata__ZTISt13basic_filebufIcSt11char_traitsIcEE) refers to ios.o(.constdata__ZTISt15basic_streambufIcSt11char_traitsIcEE) for typeinfo for std::basic_streambuf<char, std::char_traits<char>>
    ios.o(.constdata__ZTISt13basic_filebufIwSt11char_traitsIwEE) refers to lib_rtti_impl.o(.constdata__ZTVN10__cxxabiv120__si_class_type_infoE) for vtable for __cxxabiv1::__si_class_type_info
    ios.o(.constdata__ZTISt13basic_filebufIwSt11char_traitsIwEE) refers to ios.o(.constdata__ZTSSt13basic_filebufIwSt11char_traitsIwEE) for typeinfo name for std::basic_filebuf<wchar_t, std::char_traits<wchar_t>>
    ios.o(.constdata__ZTISt13basic_filebufIwSt11char_traitsIwEE) refers to ios.o(.constdata__ZTISt15basic_streambufIwSt11char_traitsIwEE) for typeinfo for std::basic_streambuf<wchar_t, std::char_traits<wchar_t>>
    ios.o(.constdata__ZTISt5ctypeIwE) refers to lib_rtti_impl.o(.constdata__ZTVN10__cxxabiv121__vmi_class_type_infoE) for vtable for __cxxabiv1::__vmi_class_type_info
    ios.o(.constdata__ZTISt5ctypeIwE) refers to ios.o(.constdata__ZTSSt5ctypeIwE) for typeinfo name for std::ctype<wchar_t>
    ios.o(.constdata__ZTISt5ctypeIwE) refers to main.o(.constdata__ZTINSt6locale5facetE) for typeinfo for std::locale::facet
    ios.o(.constdata__ZTISt5ctypeIwE) refers to char.o(.constdata__ZTISt10ctype_base) for typeinfo for std::ctype_base
    ios.o(.constdata__ZTISt5ctypeIwE) refers to ios.o(.constdata__ZTIN4__rw17__rw_ctype_helperIwEE) for typeinfo for __rw::__rw_ctype_helper<wchar_t>
    ios.o(.constdata__ZTISt7codecvtIccSt11__mbstate_tE) refers to lib_rtti_impl.o(.constdata__ZTVN10__cxxabiv121__vmi_class_type_infoE) for vtable for __cxxabiv1::__vmi_class_type_info
    ios.o(.constdata__ZTISt7codecvtIccSt11__mbstate_tE) refers to ios.o(.constdata__ZTSSt7codecvtIccSt11__mbstate_tE) for typeinfo name for std::codecvt<char, char, std::__mbstate_t>
    ios.o(.constdata__ZTISt7codecvtIccSt11__mbstate_tE) refers to main.o(.constdata__ZTINSt6locale5facetE) for typeinfo for std::locale::facet
    ios.o(.constdata__ZTISt7codecvtIccSt11__mbstate_tE) refers to ios.o(.constdata__ZTISt12codecvt_base) for typeinfo for std::codecvt_base
    ios.o(.constdata__ZTISt7codecvtIwcSt11__mbstate_tE) refers to lib_rtti_impl.o(.constdata__ZTVN10__cxxabiv121__vmi_class_type_infoE) for vtable for __cxxabiv1::__vmi_class_type_info
    ios.o(.constdata__ZTISt7codecvtIwcSt11__mbstate_tE) refers to ios.o(.constdata__ZTSSt7codecvtIwcSt11__mbstate_tE) for typeinfo name for std::codecvt<wchar_t, char, std::__mbstate_t>
    ios.o(.constdata__ZTISt7codecvtIwcSt11__mbstate_tE) refers to main.o(.constdata__ZTINSt6locale5facetE) for typeinfo for std::locale::facet
    ios.o(.constdata__ZTISt7codecvtIwcSt11__mbstate_tE) refers to ios.o(.constdata__ZTISt12codecvt_base) for typeinfo for std::codecvt_base
    ios.o(.constdata__ZTISt15basic_streambufIcSt11char_traitsIcEE) refers to lib_rtti_impl.o(.constdata__ZTVN10__cxxabiv120__si_class_type_infoE) for vtable for __cxxabiv1::__si_class_type_info
    ios.o(.constdata__ZTISt15basic_streambufIcSt11char_traitsIcEE) refers to ios.o(.constdata__ZTSSt15basic_streambufIcSt11char_traitsIcEE) for typeinfo name for std::basic_streambuf<char, std::char_traits<char>>
    ios.o(.constdata__ZTISt15basic_streambufIcSt11char_traitsIcEE) refers to main.o(.constdata__ZTIN4__rw17__rw_synchronizedE) for typeinfo for __rw::__rw_synchronized
    ios.o(.constdata__ZTISt15basic_streambufIwSt11char_traitsIwEE) refers to lib_rtti_impl.o(.constdata__ZTVN10__cxxabiv120__si_class_type_infoE) for vtable for __cxxabiv1::__si_class_type_info
    ios.o(.constdata__ZTISt15basic_streambufIwSt11char_traitsIwEE) refers to ios.o(.constdata__ZTSSt15basic_streambufIwSt11char_traitsIwEE) for typeinfo name for std::basic_streambuf<wchar_t, std::char_traits<wchar_t>>
    ios.o(.constdata__ZTISt15basic_streambufIwSt11char_traitsIwEE) refers to main.o(.constdata__ZTIN4__rw17__rw_synchronizedE) for typeinfo for __rw::__rw_synchronized
    ios.o(.constdata__ZTISt8ios_base) refers to lib_rtti_impl.o(.constdata__ZTVN10__cxxabiv120__si_class_type_infoE) for vtable for __cxxabiv1::__si_class_type_info
    ios.o(.constdata__ZTISt8ios_base) refers to ios.o(.constdata__ZTSSt8ios_base) for typeinfo name for std::ios_base
    ios.o(.constdata__ZTISt8ios_base) refers to main.o(.constdata__ZTIN4__rw17__rw_synchronizedE) for typeinfo for __rw::__rw_synchronized
    ios.o(.constdata__ZTISt9basic_iosIcSt11char_traitsIcEE) refers to lib_rtti_impl.o(.constdata__ZTVN10__cxxabiv120__si_class_type_infoE) for vtable for __cxxabiv1::__si_class_type_info
    ios.o(.constdata__ZTISt9basic_iosIcSt11char_traitsIcEE) refers to ios.o(.constdata__ZTSSt9basic_iosIcSt11char_traitsIcEE) for typeinfo name for std::basic_ios<char, std::char_traits<char>>
    ios.o(.constdata__ZTISt9basic_iosIcSt11char_traitsIcEE) refers to ios.o(.constdata__ZTISt8ios_base) for typeinfo for std::ios_base
    ios.o(.constdata__ZTISt9basic_iosIwSt11char_traitsIwEE) refers to lib_rtti_impl.o(.constdata__ZTVN10__cxxabiv120__si_class_type_infoE) for vtable for __cxxabiv1::__si_class_type_info
    ios.o(.constdata__ZTISt9basic_iosIwSt11char_traitsIwEE) refers to ios.o(.constdata__ZTSSt9basic_iosIwSt11char_traitsIwEE) for typeinfo name for std::basic_ios<wchar_t, std::char_traits<wchar_t>>
    ios.o(.constdata__ZTISt9basic_iosIwSt11char_traitsIwEE) refers to ios.o(.constdata__ZTISt8ios_base) for typeinfo for std::ios_base
    ios.o(.constdata__ZTISo) refers to lib_rtti_impl.o(.constdata__ZTVN10__cxxabiv121__vmi_class_type_infoE) for vtable for __cxxabiv1::__vmi_class_type_info
    ios.o(.constdata__ZTISo) refers to ios.o(.constdata__ZTSSo) for typeinfo name for std::basic_ostream<char, std::char_traits<char>>
    ios.o(.constdata__ZTISo) refers to ios.o(.constdata__ZTISt9basic_iosIcSt11char_traitsIcEE) for typeinfo for std::basic_ios<char, std::char_traits<char>>
    ios.o(.constdata__ZTISt13basic_ostreamIwSt11char_traitsIwEE) refers to lib_rtti_impl.o(.constdata__ZTVN10__cxxabiv121__vmi_class_type_infoE) for vtable for __cxxabiv1::__vmi_class_type_info
    ios.o(.constdata__ZTISt13basic_ostreamIwSt11char_traitsIwEE) refers to ios.o(.constdata__ZTSSt13basic_ostreamIwSt11char_traitsIwEE) for typeinfo name for std::basic_ostream<wchar_t, std::char_traits<wchar_t>>
    ios.o(.constdata__ZTISt13basic_ostreamIwSt11char_traitsIwEE) refers to ios.o(.constdata__ZTISt9basic_iosIwSt11char_traitsIwEE) for typeinfo for std::basic_ios<wchar_t, std::char_traits<wchar_t>>
    ios.o(.constdata__ZTISi) refers to lib_rtti_impl.o(.constdata__ZTVN10__cxxabiv121__vmi_class_type_infoE) for vtable for __cxxabiv1::__vmi_class_type_info
    ios.o(.constdata__ZTISi) refers to ios.o(.constdata__ZTSSi) for typeinfo name for std::basic_istream<char, std::char_traits<char>>
    ios.o(.constdata__ZTISi) refers to ios.o(.constdata__ZTISt9basic_iosIcSt11char_traitsIcEE) for typeinfo for std::basic_ios<char, std::char_traits<char>>
    ios.o(.constdata__ZTISt13basic_istreamIwSt11char_traitsIwEE) refers to lib_rtti_impl.o(.constdata__ZTVN10__cxxabiv121__vmi_class_type_infoE) for vtable for __cxxabiv1::__vmi_class_type_info
    ios.o(.constdata__ZTISt13basic_istreamIwSt11char_traitsIwEE) refers to ios.o(.constdata__ZTSSt13basic_istreamIwSt11char_traitsIwEE) for typeinfo name for std::basic_istream<wchar_t, std::char_traits<wchar_t>>
    ios.o(.constdata__ZTISt13basic_istreamIwSt11char_traitsIwEE) refers to ios.o(.constdata__ZTISt9basic_iosIwSt11char_traitsIwEE) for typeinfo for std::basic_ios<wchar_t, std::char_traits<wchar_t>>
    ios.o(.constdata__ZTIN4__rw17__rw_ctype_helperIwEE) refers to lib_rtti_impl.o(.constdata__ZTVN10__cxxabiv117__class_type_infoE) for vtable for __cxxabiv1::__class_type_info
    ios.o(.constdata__ZTIN4__rw17__rw_ctype_helperIwEE) refers to ios.o(.constdata__ZTSN4__rw17__rw_ctype_helperIwEE) for typeinfo name for __rw::__rw_ctype_helper<wchar_t>
    ios.o(.constdata__ZTISt12codecvt_base) refers to lib_rtti_impl.o(.constdata__ZTVN10__cxxabiv117__class_type_infoE) for vtable for __cxxabiv1::__class_type_info
    ios.o(.constdata__ZTISt12codecvt_base) refers to ios.o(.constdata__ZTSSt12codecvt_base) for typeinfo name for std::codecvt_base
    ios.o(i._ZNSt6locale5facetD0Ev) refers to delete.o(i._ZdlPv) for operator delete (void*)
    ios.o(.ARM.exidx) refers to ios.o(i._ZNSt6locale5facetD0Ev) for i._ZNSt6locale5facetD0Ev
    ios.o(i._ZNSt8ios_baseD0Ev) refers to ios.o(i._ZNSt8ios_baseD1Ev) for std::ios_base::~ios_base()
    ios.o(i._ZNSt8ios_baseD0Ev) refers to delete.o(i._ZdlPv) for operator delete (void*)
    ios.o(.ARM.exidx) refers to ios.o(i._ZNSt8ios_baseD0Ev) for i._ZNSt8ios_baseD0Ev
    ios.o(i._ZNKSt5ctypeIwE5do_isENSt10ctype_base4maskEw) refers to ios.o(i._ZNSt5ctypeIwE7mask_ofEw) for std::ctype<wchar_t>::mask_of(wchar_t)
    ios.o(.ARM.exidx) refers to ios.o(i._ZNKSt5ctypeIwE5do_isENSt10ctype_base4maskEw) for i._ZNKSt5ctypeIwE5do_isENSt10ctype_base4maskEw
    ios.o(.ARM.exidx) refers to unwind_pr0.o(.text) for __aeabi_unwind_cpp_pr0
    ios.o(i._ZNKSt5ctypeIwE5do_isEPKwS2_PNSt10ctype_base4maskE) refers to ios.o(i._ZNSt5ctypeIwE7mask_ofEw) for std::ctype<wchar_t>::mask_of(wchar_t)
    ios.o(.ARM.exidx) refers to ios.o(i._ZNKSt5ctypeIwE5do_isEPKwS2_PNSt10ctype_base4maskE) for i._ZNKSt5ctypeIwE5do_isEPKwS2_PNSt10ctype_base4maskE
    ios.o(.ARM.exidx) refers to unwind_pr0.o(.text) for __aeabi_unwind_cpp_pr0
    ios.o(i._ZNKSt5ctypeIwE10do_scan_isENSt10ctype_base4maskEPKwS4_) refers to ios.o(i._ZNSt5ctypeIwE7mask_ofEw) for std::ctype<wchar_t>::mask_of(wchar_t)
    ios.o(.ARM.exidx) refers to ios.o(i._ZNKSt5ctypeIwE10do_scan_isENSt10ctype_base4maskEPKwS4_) for i._ZNKSt5ctypeIwE10do_scan_isENSt10ctype_base4maskEPKwS4_
    ios.o(.ARM.exidx) refers to unwind_pr0.o(.text) for __aeabi_unwind_cpp_pr0
    ios.o(i._ZNKSt5ctypeIwE11do_scan_notENSt10ctype_base4maskEPKwS4_) refers to ios.o(i._ZNSt5ctypeIwE7mask_ofEw) for std::ctype<wchar_t>::mask_of(wchar_t)
    ios.o(.ARM.exidx) refers to ios.o(i._ZNKSt5ctypeIwE11do_scan_notENSt10ctype_base4maskEPKwS4_) for i._ZNKSt5ctypeIwE11do_scan_notENSt10ctype_base4maskEPKwS4_
    ios.o(.ARM.exidx) refers to unwind_pr0.o(.text) for __aeabi_unwind_cpp_pr0
    ios.o(i._ZNKSt5ctypeIwE10do_toupperEPwPKw) refers to ios.o(i._ZNSt5ctypeIwE7mask_ofEw) for std::ctype<wchar_t>::mask_of(wchar_t)
    ios.o(.ARM.exidx) refers to ios.o(i._ZNKSt5ctypeIwE10do_toupperEPwPKw) for i._ZNKSt5ctypeIwE10do_toupperEPwPKw
    ios.o(.ARM.exidx) refers to unwind_pr0.o(.text) for __aeabi_unwind_cpp_pr0
    ios.o(i._ZNKSt5ctypeIwE10do_toupperEw) refers to ios.o(i._ZNSt5ctypeIwE7mask_ofEw) for std::ctype<wchar_t>::mask_of(wchar_t)
    ios.o(.ARM.exidx) refers to ios.o(i._ZNKSt5ctypeIwE10do_toupperEw) for i._ZNKSt5ctypeIwE10do_toupperEw
    ios.o(.ARM.exidx) refers to unwind_pr0.o(.text) for __aeabi_unwind_cpp_pr0
    ios.o(i._ZNKSt5ctypeIwE10do_tolowerEPwPKw) refers to ios.o(i._ZNSt5ctypeIwE7mask_ofEw) for std::ctype<wchar_t>::mask_of(wchar_t)
    ios.o(.ARM.exidx) refers to ios.o(i._ZNKSt5ctypeIwE10do_tolowerEPwPKw) for i._ZNKSt5ctypeIwE10do_tolowerEPwPKw
    ios.o(.ARM.exidx) refers to unwind_pr0.o(.text) for __aeabi_unwind_cpp_pr0
    ios.o(i._ZNKSt5ctypeIwE10do_tolowerEw) refers to ios.o(i._ZNSt5ctypeIwE7mask_ofEw) for std::ctype<wchar_t>::mask_of(wchar_t)
    ios.o(.ARM.exidx) refers to ios.o(i._ZNKSt5ctypeIwE10do_tolowerEw) for i._ZNKSt5ctypeIwE10do_tolowerEw
    ios.o(.ARM.exidx) refers to unwind_pr0.o(.text) for __aeabi_unwind_cpp_pr0
    ios.o(.ARM.exidx) refers to ios.o(i._ZNKSt5ctypeIwE8do_widenEPKcS2_Pw) for i._ZNKSt5ctypeIwE8do_widenEPKcS2_Pw
    ios.o(.ARM.exidx) refers to ios.o(i._ZNKSt5ctypeIwE8do_widenEc) for i._ZNKSt5ctypeIwE8do_widenEc
    ios.o(i._ZNKSt5ctypeIwE9do_narrowEPKwS2_cPc) refers to ios.o(i._ZNSt5ctypeIwE7_C_fitsEw) for std::ctype<wchar_t>::_C_fits(wchar_t)
    ios.o(.ARM.exidx) refers to ios.o(i._ZNKSt5ctypeIwE9do_narrowEPKwS2_cPc) for i._ZNKSt5ctypeIwE9do_narrowEPKwS2_cPc
    ios.o(.ARM.exidx) refers to unwind_pr0.o(.text) for __aeabi_unwind_cpp_pr0
    ios.o(i._ZNKSt5ctypeIwE9do_narrowEwc) refers to ios.o(i._ZNSt5ctypeIwE7_C_fitsEw) for std::ctype<wchar_t>::_C_fits(wchar_t)
    ios.o(.ARM.exidx) refers to ios.o(i._ZNKSt5ctypeIwE9do_narrowEwc) for i._ZNKSt5ctypeIwE9do_narrowEwc
    ios.o(.ARM.exidx) refers to unwind_pr0.o(.text) for __aeabi_unwind_cpp_pr0
    ios.o(.ARM.exidx) refers to ios.o(i._ZNSt5ctypeIwED1Ev) for i._ZNSt5ctypeIwED1Ev
    ios.o(i._ZNSt5ctypeIwED0Ev) refers to ios.o(i._ZNSt5ctypeIwED1Ev) for std::ctype<wchar_t>::~ctype()
    ios.o(i._ZNSt5ctypeIwED0Ev) refers to delete.o(i._ZdlPv) for operator delete (void*)
    ios.o(.ARM.exidx) refers to ios.o(i._ZNSt5ctypeIwED0Ev) for i._ZNSt5ctypeIwED0Ev
    ios.o(i._ZNSt9basic_iosIcSt11char_traitsIcEED0Ev) refers to ios.o(i._ZNSt9basic_iosIcSt11char_traitsIcEED1Ev) for std::basic_ios<char, std::char_traits<char>>::~basic_ios()
    ios.o(i._ZNSt9basic_iosIcSt11char_traitsIcEED0Ev) refers to delete.o(i._ZdlPv) for operator delete (void*)
    ios.o(.ARM.exidx) refers to ios.o(i._ZNSt9basic_iosIcSt11char_traitsIcEED0Ev) for i._ZNSt9basic_iosIcSt11char_traitsIcEED0Ev
    ios.o(i._ZNSoD1Ev) refers to ios.o(i._ZNSoD2Ev) for std::basic_ostream<char, std::char_traits<char>>::~basic_ostream__sub_object()
    ios.o(i._ZNSoD1Ev) refers to ios.o(i._ZNSt9basic_iosIcSt11char_traitsIcEED1Ev) for std::basic_ios<char, std::char_traits<char>>::~basic_ios()
    ios.o(i._ZNSoD1Ev) refers to ios.o(.constdata__ZTVSo) for VTT for std::basic_ostream<char, std::char_traits<char>>
    ios.o(.ARM.exidx) refers to ios.o(i._ZNSoD1Ev) for i._ZNSoD1Ev
    ios.o(i._ZNSoD0Ev) refers to ios.o(i._ZNSoD1Ev) for std::basic_ostream<char, std::char_traits<char>>::~basic_ostream()
    ios.o(i._ZNSoD0Ev) refers to delete.o(i._ZdlPv) for operator delete (void*)
    ios.o(.ARM.exidx) refers to ios.o(i._ZNSoD0Ev) for i._ZNSoD0Ev
    ios.o(i._ZTv0_n12_NSoD0Ev) refers to ios.o(i._ZNSoD0Ev) for std::basic_ostream<char, std::char_traits<char>>::~basic_ostream__deallocating()
    ios.o(.ARM.exidx) refers to ios.o(i._ZTv0_n12_NSoD0Ev) for i._ZTv0_n12_NSoD0Ev
    ios.o(i._ZTv0_n12_NSoD1Ev) refers to ios.o(i._ZNSoD1Ev) for std::basic_ostream<char, std::char_traits<char>>::~basic_ostream()
    ios.o(.ARM.exidx) refers to ios.o(i._ZTv0_n12_NSoD1Ev) for i._ZTv0_n12_NSoD1Ev
    ios.o(i._ZNSt9basic_iosIwSt11char_traitsIwEED0Ev) refers to ios.o(i._ZNSt9basic_iosIwSt11char_traitsIwEED1Ev) for std::basic_ios<wchar_t, std::char_traits<wchar_t>>::~basic_ios()
    ios.o(i._ZNSt9basic_iosIwSt11char_traitsIwEED0Ev) refers to delete.o(i._ZdlPv) for operator delete (void*)
    ios.o(.ARM.exidx) refers to ios.o(i._ZNSt9basic_iosIwSt11char_traitsIwEED0Ev) for i._ZNSt9basic_iosIwSt11char_traitsIwEED0Ev
    ios.o(i._ZNSt13basic_ostreamIwSt11char_traitsIwEED1Ev) refers to ios.o(i._ZNSt13basic_ostreamIwSt11char_traitsIwEED2Ev) for std::basic_ostream<wchar_t, std::char_traits<wchar_t>>::~basic_ostream__sub_object()
    ios.o(i._ZNSt13basic_ostreamIwSt11char_traitsIwEED1Ev) refers to ios.o(i._ZNSt9basic_iosIwSt11char_traitsIwEED1Ev) for std::basic_ios<wchar_t, std::char_traits<wchar_t>>::~basic_ios()
    ios.o(i._ZNSt13basic_ostreamIwSt11char_traitsIwEED1Ev) refers to ios.o(.constdata__ZTVSt13basic_ostreamIwSt11char_traitsIwEE) for VTT for std::basic_ostream<wchar_t, std::char_traits<wchar_t>>
    ios.o(.ARM.exidx) refers to ios.o(i._ZNSt13basic_ostreamIwSt11char_traitsIwEED1Ev) for i._ZNSt13basic_ostreamIwSt11char_traitsIwEED1Ev
    ios.o(i._ZNSt13basic_ostreamIwSt11char_traitsIwEED0Ev) refers to ios.o(i._ZNSt13basic_ostreamIwSt11char_traitsIwEED1Ev) for std::basic_ostream<wchar_t, std::char_traits<wchar_t>>::~basic_ostream()
    ios.o(i._ZNSt13basic_ostreamIwSt11char_traitsIwEED0Ev) refers to delete.o(i._ZdlPv) for operator delete (void*)
    ios.o(.ARM.exidx) refers to ios.o(i._ZNSt13basic_ostreamIwSt11char_traitsIwEED0Ev) for i._ZNSt13basic_ostreamIwSt11char_traitsIwEED0Ev
    ios.o(i._ZTv0_n12_NSt13basic_ostreamIwSt11char_traitsIwEED0Ev) refers to ios.o(i._ZNSt13basic_ostreamIwSt11char_traitsIwEED0Ev) for std::basic_ostream<wchar_t, std::char_traits<wchar_t>>::~basic_ostream__deallocating()
    ios.o(.ARM.exidx) refers to ios.o(i._ZTv0_n12_NSt13basic_ostreamIwSt11char_traitsIwEED0Ev) for i._ZTv0_n12_NSt13basic_ostreamIwSt11char_traitsIwEED0Ev
    ios.o(i._ZTv0_n12_NSt13basic_ostreamIwSt11char_traitsIwEED1Ev) refers to ios.o(i._ZNSt13basic_ostreamIwSt11char_traitsIwEED1Ev) for std::basic_ostream<wchar_t, std::char_traits<wchar_t>>::~basic_ostream()
    ios.o(.ARM.exidx) refers to ios.o(i._ZTv0_n12_NSt13basic_ostreamIwSt11char_traitsIwEED1Ev) for i._ZTv0_n12_NSt13basic_ostreamIwSt11char_traitsIwEED1Ev
    ios.o(.ARM.exidx) refers to ios.o(i._ZNKSt7codecvtIccSt11__mbstate_tE6do_outERS0_PKcS4_RS4_PcS6_RS6_) for i._ZNKSt7codecvtIccSt11__mbstate_tE6do_outERS0_PKcS4_RS4_PcS6_RS6_
    ios.o(.ARM.exidx) refers to ios.o(i._ZNKSt7codecvtIccSt11__mbstate_tE5do_inERS0_PKcS4_RS4_PcS6_RS6_) for i._ZNKSt7codecvtIccSt11__mbstate_tE5do_inERS0_PKcS4_RS4_PcS6_RS6_
    ios.o(.ARM.exidx) refers to ios.o(i._ZNKSt7codecvtIccSt11__mbstate_tE10do_unshiftERS0_PcS3_RS3_) for i._ZNKSt7codecvtIccSt11__mbstate_tE10do_unshiftERS0_PcS3_RS3_
    ios.o(.ARM.exidx) refers to ios.o(i._ZNKSt7codecvtIccSt11__mbstate_tE11do_encodingEv) for i._ZNKSt7codecvtIccSt11__mbstate_tE11do_encodingEv
    ios.o(.ARM.exidx) refers to ios.o(i._ZNKSt7codecvtIccSt11__mbstate_tE16do_always_noconvEv) for i._ZNKSt7codecvtIccSt11__mbstate_tE16do_always_noconvEv
    ios.o(.ARM.exidx) refers to ios.o(i._ZNKSt7codecvtIccSt11__mbstate_tE9do_lengthERKS0_PKcS5_j) for i._ZNKSt7codecvtIccSt11__mbstate_tE9do_lengthERKS0_PKcS5_j
    ios.o(.ARM.exidx) refers to ios.o(i._ZNKSt7codecvtIccSt11__mbstate_tE13do_max_lengthEv) for i._ZNKSt7codecvtIccSt11__mbstate_tE13do_max_lengthEv
    ios.o(.ARM.exidx) refers to ios.o(i._ZNSt7codecvtIccSt11__mbstate_tED1Ev) for i._ZNSt7codecvtIccSt11__mbstate_tED1Ev
    ios.o(i._ZNSt7codecvtIccSt11__mbstate_tED0Ev) refers to ios.o(i._ZNSt7codecvtIccSt11__mbstate_tED1Ev) for std::codecvt<char, char, std::__mbstate_t>::~codecvt()
    ios.o(i._ZNSt7codecvtIccSt11__mbstate_tED0Ev) refers to delete.o(i._ZdlPv) for operator delete (void*)
    ios.o(.ARM.exidx) refers to ios.o(i._ZNSt7codecvtIccSt11__mbstate_tED0Ev) for i._ZNSt7codecvtIccSt11__mbstate_tED0Ev
    ios.o(.ARM.exidx) refers to ios.o(i._ZNKSt7codecvtIwcSt11__mbstate_tE6do_outERS0_PKwS4_RS4_PcS6_RS6_) for i._ZNKSt7codecvtIwcSt11__mbstate_tE6do_outERS0_PKwS4_RS4_PcS6_RS6_
    ios.o(.ARM.exidx) refers to ios.o(i._ZNKSt7codecvtIwcSt11__mbstate_tE5do_inERS0_PKcS4_RS4_PwS6_RS6_) for i._ZNKSt7codecvtIwcSt11__mbstate_tE5do_inERS0_PKcS4_RS4_PwS6_RS6_
    ios.o(.ARM.exidx) refers to ios.o(i._ZNKSt7codecvtIwcSt11__mbstate_tE10do_unshiftERS0_PcS3_RS3_) for i._ZNKSt7codecvtIwcSt11__mbstate_tE10do_unshiftERS0_PcS3_RS3_
    ios.o(.ARM.exidx) refers to ios.o(i._ZNKSt7codecvtIwcSt11__mbstate_tE16do_always_noconvEv) for i._ZNKSt7codecvtIwcSt11__mbstate_tE16do_always_noconvEv
    ios.o(.ARM.exidx) refers to ios.o(i._ZNKSt7codecvtIwcSt11__mbstate_tE11do_encodingEv) for i._ZNKSt7codecvtIwcSt11__mbstate_tE11do_encodingEv
    ios.o(.ARM.exidx) refers to ios.o(i._ZNKSt7codecvtIwcSt11__mbstate_tE9do_lengthERKS0_PKcS5_j) for i._ZNKSt7codecvtIwcSt11__mbstate_tE9do_lengthERKS0_PKcS5_j
    ios.o(.ARM.exidx) refers to ios.o(i._ZNKSt7codecvtIwcSt11__mbstate_tE13do_max_lengthEv) for i._ZNKSt7codecvtIwcSt11__mbstate_tE13do_max_lengthEv
    ios.o(.ARM.exidx) refers to ios.o(i._ZNSt7codecvtIwcSt11__mbstate_tED1Ev) for i._ZNSt7codecvtIwcSt11__mbstate_tED1Ev
    ios.o(i._ZNSt7codecvtIwcSt11__mbstate_tED0Ev) refers to ios.o(i._ZNSt7codecvtIwcSt11__mbstate_tED1Ev) for std::codecvt<wchar_t, char, std::__mbstate_t>::~codecvt()
    ios.o(i._ZNSt7codecvtIwcSt11__mbstate_tED0Ev) refers to delete.o(i._ZdlPv) for operator delete (void*)
    ios.o(.ARM.exidx) refers to ios.o(i._ZNSt7codecvtIwcSt11__mbstate_tED0Ev) for i._ZNSt7codecvtIwcSt11__mbstate_tED0Ev
    ios.o(i._ZNSiD1Ev) refers to ios.o(i._ZNSiD2Ev) for std::basic_istream<char, std::char_traits<char>>::~basic_istream__sub_object()
    ios.o(i._ZNSiD1Ev) refers to ios.o(i._ZNSt9basic_iosIcSt11char_traitsIcEED1Ev) for std::basic_ios<char, std::char_traits<char>>::~basic_ios()
    ios.o(i._ZNSiD1Ev) refers to ios.o(.constdata__ZTVSi) for VTT for std::basic_istream<char, std::char_traits<char>>
    ios.o(.ARM.exidx) refers to ios.o(i._ZNSiD1Ev) for i._ZNSiD1Ev
    ios.o(i._ZNSiD0Ev) refers to ios.o(i._ZNSiD1Ev) for std::basic_istream<char, std::char_traits<char>>::~basic_istream()
    ios.o(i._ZNSiD0Ev) refers to delete.o(i._ZdlPv) for operator delete (void*)
    ios.o(.ARM.exidx) refers to ios.o(i._ZNSiD0Ev) for i._ZNSiD0Ev
    ios.o(i._ZTv0_n12_NSiD0Ev) refers to ios.o(i._ZNSiD0Ev) for std::basic_istream<char, std::char_traits<char>>::~basic_istream__deallocating()
    ios.o(.ARM.exidx) refers to ios.o(i._ZTv0_n12_NSiD0Ev) for i._ZTv0_n12_NSiD0Ev
    ios.o(i._ZTv0_n12_NSiD1Ev) refers to ios.o(i._ZNSiD1Ev) for std::basic_istream<char, std::char_traits<char>>::~basic_istream()
    ios.o(.ARM.exidx) refers to ios.o(i._ZTv0_n12_NSiD1Ev) for i._ZTv0_n12_NSiD1Ev
    ios.o(t._ZNSt15basic_streambufIcSt11char_traitsIcEED0Ev) refers to ios.o(t._ZNSt15basic_streambufIcSt11char_traitsIcEED1Ev) for std::basic_streambuf<char, std::char_traits<char>>::~basic_streambuf()
    ios.o(t._ZNSt15basic_streambufIcSt11char_traitsIcEED0Ev) refers to delete.o(i._ZdlPv) for operator delete (void*)
    ios.o(.ARM.exidx) refers to ios.o(t._ZNSt15basic_streambufIcSt11char_traitsIcEED0Ev) for t._ZNSt15basic_streambufIcSt11char_traitsIcEED0Ev
    ios.o(.ARM.exidx) refers to ios.o(t._ZNSt15basic_streambufIcSt11char_traitsIcEE6setbufEPcl) for t._ZNSt15basic_streambufIcSt11char_traitsIcEE6setbufEPcl
    ios.o(t._ZNSt15basic_streambufIcSt11char_traitsIcEE7seekoffElNSt8ios_base10_C_seekdirEi) refers to ios.o(t._ZNSt4fposISt11__mbstate_tEC1El) for std::fpos<std::__mbstate_t>::fpos(long)
    ios.o(.ARM.exidx) refers to ios.o(t._ZNSt15basic_streambufIcSt11char_traitsIcEE7seekoffElNSt8ios_base10_C_seekdirEi) for t._ZNSt15basic_streambufIcSt11char_traitsIcEE7seekoffElNSt8ios_base10_C_seekdirEi
    ios.o(t._ZNSt15basic_streambufIcSt11char_traitsIcEE7seekposESt4fposISt11__mbstate_tEi) refers to ios.o(t._ZNSt4fposISt11__mbstate_tEC1El) for std::fpos<std::__mbstate_t>::fpos(long)
    ios.o(.ARM.exidx) refers to ios.o(t._ZNSt15basic_streambufIcSt11char_traitsIcEE7seekposESt4fposISt11__mbstate_tEi) for t._ZNSt15basic_streambufIcSt11char_traitsIcEE7seekposESt4fposISt11__mbstate_tEi
    ios.o(.ARM.exidx) refers to ios.o(t._ZNSt15basic_streambufIcSt11char_traitsIcEE9showmanycEv) for t._ZNSt15basic_streambufIcSt11char_traitsIcEE9showmanycEv
    ios.o(.ARM.exidx) refers to ios.o(t._ZNSt15basic_streambufIcSt11char_traitsIcEE9underflowEv) for t._ZNSt15basic_streambufIcSt11char_traitsIcEE9underflowEv
    ios.o(t._ZNSt15basic_streambufIcSt11char_traitsIcEE5uflowEv) refers to ios.o(t._ZNKSt15basic_streambufIcSt11char_traitsIcEE9_C_is_eofEi) for std::basic_streambuf<char, std::char_traits<char>>::_C_is_eof(int) const
    ios.o(.ARM.exidx) refers to ios.o(t._ZNSt15basic_streambufIcSt11char_traitsIcEE5uflowEv) for t._ZNSt15basic_streambufIcSt11char_traitsIcEE5uflowEv
    ios.o(.ARM.exidx) refers to unwind_pr0.o(.text) for __aeabi_unwind_cpp_pr0
    ios.o(.ARM.exidx) refers to ios.o(t._ZNSt15basic_streambufIcSt11char_traitsIcEE8overflowEi) for t._ZNSt15basic_streambufIcSt11char_traitsIcEE8overflowEi
    ios.o(.ARM.exidx) refers to ios.o(t._ZNSt15basic_streambufIcSt11char_traitsIcEE9pbackfailEi) for t._ZNSt15basic_streambufIcSt11char_traitsIcEE9pbackfailEi
    ios.o(t._ZNSt15basic_streambufIcSt11char_traitsIcEE6xsputnEPKcl) refers to ios.o(t._ZNSt15basic_streambufIcSt11char_traitsIcEE5sputcEc) for std::basic_streambuf<char, std::char_traits<char>>::sputc(char)
    ios.o(t._ZNSt15basic_streambufIcSt11char_traitsIcEE6xsputnEPKcl) refers to ios.o(t._ZNKSt15basic_streambufIcSt11char_traitsIcEE9_C_is_eofEi) for std::basic_streambuf<char, std::char_traits<char>>::_C_is_eof(int) const
    ios.o(.ARM.exidx) refers to ios.o(t._ZNSt15basic_streambufIcSt11char_traitsIcEE6xsputnEPKcl) for t._ZNSt15basic_streambufIcSt11char_traitsIcEE6xsputnEPKcl
    ios.o(.ARM.exidx) refers to unwind_pr0.o(.text) for __aeabi_unwind_cpp_pr0
    ios.o(.ARM.exidx) refers to ios.o(t._ZNSt15basic_streambufIcSt11char_traitsIcEE4syncEv) for t._ZNSt15basic_streambufIcSt11char_traitsIcEE4syncEv
    ios.o(i._ZNSt13basic_istreamIwSt11char_traitsIwEED1Ev) refers to ios.o(i._ZNSt13basic_istreamIwSt11char_traitsIwEED2Ev) for std::basic_istream<wchar_t, std::char_traits<wchar_t>>::~basic_istream__sub_object()
    ios.o(i._ZNSt13basic_istreamIwSt11char_traitsIwEED1Ev) refers to ios.o(i._ZNSt9basic_iosIwSt11char_traitsIwEED1Ev) for std::basic_ios<wchar_t, std::char_traits<wchar_t>>::~basic_ios()
    ios.o(i._ZNSt13basic_istreamIwSt11char_traitsIwEED1Ev) refers to ios.o(.constdata__ZTVSt13basic_istreamIwSt11char_traitsIwEE) for VTT for std::basic_istream<wchar_t, std::char_traits<wchar_t>>
    ios.o(.ARM.exidx) refers to ios.o(i._ZNSt13basic_istreamIwSt11char_traitsIwEED1Ev) for i._ZNSt13basic_istreamIwSt11char_traitsIwEED1Ev
    ios.o(i._ZNSt13basic_istreamIwSt11char_traitsIwEED0Ev) refers to ios.o(i._ZNSt13basic_istreamIwSt11char_traitsIwEED1Ev) for std::basic_istream<wchar_t, std::char_traits<wchar_t>>::~basic_istream()
    ios.o(i._ZNSt13basic_istreamIwSt11char_traitsIwEED0Ev) refers to delete.o(i._ZdlPv) for operator delete (void*)
    ios.o(.ARM.exidx) refers to ios.o(i._ZNSt13basic_istreamIwSt11char_traitsIwEED0Ev) for i._ZNSt13basic_istreamIwSt11char_traitsIwEED0Ev
    ios.o(i._ZTv0_n12_NSt13basic_istreamIwSt11char_traitsIwEED0Ev) refers to ios.o(i._ZNSt13basic_istreamIwSt11char_traitsIwEED0Ev) for std::basic_istream<wchar_t, std::char_traits<wchar_t>>::~basic_istream__deallocating()
    ios.o(.ARM.exidx) refers to ios.o(i._ZTv0_n12_NSt13basic_istreamIwSt11char_traitsIwEED0Ev) for i._ZTv0_n12_NSt13basic_istreamIwSt11char_traitsIwEED0Ev
    ios.o(i._ZTv0_n12_NSt13basic_istreamIwSt11char_traitsIwEED1Ev) refers to ios.o(i._ZNSt13basic_istreamIwSt11char_traitsIwEED1Ev) for std::basic_istream<wchar_t, std::char_traits<wchar_t>>::~basic_istream()
    ios.o(.ARM.exidx) refers to ios.o(i._ZTv0_n12_NSt13basic_istreamIwSt11char_traitsIwEED1Ev) for i._ZTv0_n12_NSt13basic_istreamIwSt11char_traitsIwEED1Ev
    ios.o(t._ZNSt15basic_streambufIwSt11char_traitsIwEED0Ev) refers to ios.o(t._ZNSt15basic_streambufIwSt11char_traitsIwEED1Ev) for std::basic_streambuf<wchar_t, std::char_traits<wchar_t>>::~basic_streambuf()
    ios.o(t._ZNSt15basic_streambufIwSt11char_traitsIwEED0Ev) refers to delete.o(i._ZdlPv) for operator delete (void*)
    ios.o(.ARM.exidx) refers to ios.o(t._ZNSt15basic_streambufIwSt11char_traitsIwEED0Ev) for t._ZNSt15basic_streambufIwSt11char_traitsIwEED0Ev
    ios.o(.ARM.exidx) refers to ios.o(t._ZNSt15basic_streambufIwSt11char_traitsIwEE6setbufEPwl) for t._ZNSt15basic_streambufIwSt11char_traitsIwEE6setbufEPwl
    ios.o(t._ZNSt15basic_streambufIwSt11char_traitsIwEE7seekoffElNSt8ios_base10_C_seekdirEi) refers to ios.o(t._ZNSt4fposISt11__mbstate_tEC1El) for std::fpos<std::__mbstate_t>::fpos(long)
    ios.o(.ARM.exidx) refers to ios.o(t._ZNSt15basic_streambufIwSt11char_traitsIwEE7seekoffElNSt8ios_base10_C_seekdirEi) for t._ZNSt15basic_streambufIwSt11char_traitsIwEE7seekoffElNSt8ios_base10_C_seekdirEi
    ios.o(t._ZNSt15basic_streambufIwSt11char_traitsIwEE7seekposESt4fposISt11__mbstate_tEi) refers to ios.o(t._ZNSt4fposISt11__mbstate_tEC1El) for std::fpos<std::__mbstate_t>::fpos(long)
    ios.o(.ARM.exidx) refers to ios.o(t._ZNSt15basic_streambufIwSt11char_traitsIwEE7seekposESt4fposISt11__mbstate_tEi) for t._ZNSt15basic_streambufIwSt11char_traitsIwEE7seekposESt4fposISt11__mbstate_tEi
    ios.o(.ARM.exidx) refers to ios.o(t._ZNSt15basic_streambufIwSt11char_traitsIwEE9showmanycEv) for t._ZNSt15basic_streambufIwSt11char_traitsIwEE9showmanycEv
    ios.o(.ARM.exidx) refers to ios.o(t._ZNSt15basic_streambufIwSt11char_traitsIwEE9underflowEv) for t._ZNSt15basic_streambufIwSt11char_traitsIwEE9underflowEv
    ios.o(t._ZNSt15basic_streambufIwSt11char_traitsIwEE5uflowEv) refers to ios.o(t._ZNKSt15basic_streambufIwSt11char_traitsIwEE9_C_is_eofEi) for std::basic_streambuf<wchar_t, std::char_traits<wchar_t>>::_C_is_eof(int) const
    ios.o(.ARM.exidx) refers to ios.o(t._ZNSt15basic_streambufIwSt11char_traitsIwEE5uflowEv) for t._ZNSt15basic_streambufIwSt11char_traitsIwEE5uflowEv
    ios.o(.ARM.exidx) refers to unwind_pr0.o(.text) for __aeabi_unwind_cpp_pr0
    ios.o(.ARM.exidx) refers to ios.o(t._ZNSt15basic_streambufIwSt11char_traitsIwEE8overflowEi) for t._ZNSt15basic_streambufIwSt11char_traitsIwEE8overflowEi
    ios.o(.ARM.exidx) refers to ios.o(t._ZNSt15basic_streambufIwSt11char_traitsIwEE9pbackfailEi) for t._ZNSt15basic_streambufIwSt11char_traitsIwEE9pbackfailEi
    ios.o(t._ZNSt15basic_streambufIwSt11char_traitsIwEE6xsputnEPKwl) refers to ios.o(t._ZNSt15basic_streambufIwSt11char_traitsIwEE5sputcEw) for std::basic_streambuf<wchar_t, std::char_traits<wchar_t>>::sputc(wchar_t)
    ios.o(t._ZNSt15basic_streambufIwSt11char_traitsIwEE6xsputnEPKwl) refers to ios.o(t._ZNKSt15basic_streambufIwSt11char_traitsIwEE9_C_is_eofEi) for std::basic_streambuf<wchar_t, std::char_traits<wchar_t>>::_C_is_eof(int) const
    ios.o(.ARM.exidx) refers to ios.o(t._ZNSt15basic_streambufIwSt11char_traitsIwEE6xsputnEPKwl) for t._ZNSt15basic_streambufIwSt11char_traitsIwEE6xsputnEPKwl
    ios.o(.ARM.exidx) refers to unwind_pr0.o(.text) for __aeabi_unwind_cpp_pr0
    ios.o(.ARM.exidx) refers to ios.o(t._ZNSt15basic_streambufIwSt11char_traitsIwEE4syncEv) for t._ZNSt15basic_streambufIwSt11char_traitsIwEE4syncEv
    ios.o(.ARM.exidx) refers to ios.o(i._ZNSt5ctypeIwE7_C_fitsEw) for i._ZNSt5ctypeIwE7_C_fitsEw
    ios.o(i._ZNSt5ctypeIwE7mask_ofEw) refers to ios.o(i._ZNSt5ctypeIwE7_C_fitsEw) for std::ctype<wchar_t>::_C_fits(wchar_t)
    ios.o(i._ZNSt5ctypeIwE7mask_ofEw) refers to ios.o(i._ZNSt5ctypeIcE13classic_tableEv) for std::ctype<char>::classic_table()
    ios.o(.ARM.exidx) refers to ios.o(i._ZNSt5ctypeIwE7mask_ofEw) for i._ZNSt5ctypeIwE7mask_ofEw
    ios.o(.ARM.exidx) refers to unwind_pr0.o(.text) for __aeabi_unwind_cpp_pr0
    ios.o(i._ZNSoD2Ev) refers to ios.o(i._ZNSt9basic_iosIcSt11char_traitsIcEED1Ev) for std::basic_ios<char, std::char_traits<char>>::~basic_ios()
    ios.o(.ARM.exidx) refers to ios.o(i._ZNSoD2Ev) for i._ZNSoD2Ev
    ios.o(i._ZNSt13basic_ostreamIwSt11char_traitsIwEED2Ev) refers to ios.o(i._ZNSt9basic_iosIwSt11char_traitsIwEED1Ev) for std::basic_ios<wchar_t, std::char_traits<wchar_t>>::~basic_ios()
    ios.o(.ARM.exidx) refers to ios.o(i._ZNSt13basic_ostreamIwSt11char_traitsIwEED2Ev) for i._ZNSt13basic_ostreamIwSt11char_traitsIwEED2Ev
    ios.o(i._ZNSiD2Ev) refers to ios.o(i._ZNSt9basic_iosIcSt11char_traitsIcEED1Ev) for std::basic_ios<char, std::char_traits<char>>::~basic_ios()
    ios.o(.ARM.exidx) refers to ios.o(i._ZNSiD2Ev) for i._ZNSiD2Ev
    ios.o(i._ZNSt13basic_istreamIwSt11char_traitsIwEED2Ev) refers to ios.o(i._ZNSt9basic_iosIwSt11char_traitsIwEED1Ev) for std::basic_ios<wchar_t, std::char_traits<wchar_t>>::~basic_ios()
    ios.o(.ARM.exidx) refers to ios.o(i._ZNSt13basic_istreamIwSt11char_traitsIwEED2Ev) for i._ZNSt13basic_istreamIwSt11char_traitsIwEED2Ev
    ios.o(i._ZNSt5ctypeIcE13classic_tableEv) refers to char.o(.constdata) for std::ctype<char>::_C_classic_table
    ios.o(.ARM.exidx) refers to ios.o(i._ZNSt5ctypeIcE13classic_tableEv) for i._ZNSt5ctypeIcE13classic_tableEv
    locale.o(.constdata__ZTVSt14codecvt_bynameIwcSt11__mbstate_tE) refers to locale.o(.constdata__ZTISt14codecvt_bynameIwcSt11__mbstate_tE) for typeinfo for std::codecvt_byname<wchar_t, char, std::__mbstate_t>
    locale.o(.constdata__ZTVSt14codecvt_bynameIwcSt11__mbstate_tE) refers to locale.o(i._ZNSt14codecvt_bynameIwcSt11__mbstate_tED1Ev) for std::codecvt_byname<wchar_t, char, std::__mbstate_t>::~codecvt_byname()
